; Listing generated by Microsoft (R) Optimizing Compiler Version 19.44.35216.0 

	TTL	g:\github\microsoft\low-latency-audio\src\vsfiles\intermediate\usbasio\arm64ec\release\combase.obj
	;ARM64

	AREA	|.drectve|, DRECTVE

	EXPORT	|??_R3INonDelegatingUnknown@@8| [ DATA ] ; INonDelegatingUnknown::`RTTI Class Hierarchy Descriptor'
	EXPORT	|??_7CUnknown@@6B@| [ DATA ]		; CUnknown::`vftable'
	EXPORT	|??_R0?AVCBaseObject@@@8| [ DATA ]	; CBaseObject `RTTI Type Descriptor'
	EXPORT	|?m_cObjects@CBaseObject@@0JA| [ DATA ]	; CBaseObject::m_cObjects
	EXPORT	|??_R0?AUINonDelegatingUnknown@@@8| [ DATA ] ; INonDelegatingUnknown `RTTI Type Descriptor'
	EXPORT	|??_R2CBaseObject@@8| [ DATA ]		; CBaseObject::`RTTI Base Class Array'
	EXPORT	|??_R2INonDelegatingUnknown@@8| [ DATA ] ; INonDelegatingUnknown::`RTTI Base Class Array'
	EXPORT	|??_R0?AVCUnknown@@@8| [ DATA ]		; CUnknown `RTTI Type Descriptor'
	EXPORT	|??_R1A@?0A@EA@INonDelegatingUnknown@@8| [ DATA ] ; INonDelegatingUnknown::`RTTI Base Class Descriptor at (0,-1,0,64)'
	EXPORT	|??_R2CUnknown@@8| [ DATA ]		; CUnknown::`RTTI Base Class Array'
	EXPORT	|??_R17?0A@EA@CBaseObject@@8| [ DATA ]	; CBaseObject::`RTTI Base Class Descriptor at (8,-1,0,64)'
	EXPORT	|??_R1A@?0A@EA@CUnknown@@8| [ DATA ]	; CUnknown::`RTTI Base Class Descriptor at (0,-1,0,64)'
	EXPORT	|??_R4CUnknown@@6B@| [ DATA ]		; CUnknown::`RTTI Complete Object Locator'
	EXPORT	|??_R1A@?0A@EA@CBaseObject@@8| [ DATA ]	; CBaseObject::`RTTI Base Class Descriptor at (0,-1,0,64)'
	EXPORT	|??_R3CBaseObject@@8| [ DATA ]		; CBaseObject::`RTTI Class Hierarchy Descriptor'
	EXPORT	|??_R3CUnknown@@8| [ DATA ]		; CUnknown::`RTTI Class Hierarchy Descriptor'
	IMPORT	|??_7type_info@@6B@|			; type_info::`vftable'
	IMPORT	|#__std_terminate|
	IMPORT	|IID_IUnknown|
	IMPORT	|??3@$$hYAXPEAX_K@Z|			; operator delete
	IMPORT	|#__security_check_cookie_arm64ec|
	IMPORT	|#__CxxFrameHandler3|

	AREA	|.bss|, NOINIT
|?m_cObjects@CBaseObject@@0JA| % 0x4			; CBaseObject::m_cObjects

	AREA	|.rdata$r|, DATA, READONLY
|??_R3CUnknown@@8| DCD 0x0				; CUnknown::`RTTI Class Hierarchy Descriptor'
	DCD	0x1
	DCD	0x3
	DCD	|??_R2CUnknown@@8|

	AREA	|.rdata$r|, DATA, READONLY
|??_R3CBaseObject@@8| DCD 0x0				; CBaseObject::`RTTI Class Hierarchy Descriptor'
	DCD	0x0
	DCD	0x1
	DCD	|??_R2CBaseObject@@8|

	AREA	|.rdata$r|, DATA, READONLY
|??_R1A@?0A@EA@CBaseObject@@8| DCD |??_R0?AVCBaseObject@@@8| ; CBaseObject::`RTTI Base Class Descriptor at (0,-1,0,64)'
	DCD	0x0
	DCD	0x0
	DCD	0xffffffff
	DCD	0x0
	DCD	0x40
	DCD	|??_R3CBaseObject@@8|

	AREA	|.rdata$r|, DATA, READONLY
|??_R4CUnknown@@6B@| DCD 0x1				; CUnknown::`RTTI Complete Object Locator'
	DCD	0x0
	DCD	0x0
	DCD	|??_R0?AVCUnknown@@@8|
	DCD	|??_R3CUnknown@@8|
	DCD	|??_R4CUnknown@@6B@|

	AREA	|.rdata$r|, DATA, READONLY
|??_R1A@?0A@EA@CUnknown@@8| DCD |??_R0?AVCUnknown@@@8|	; CUnknown::`RTTI Base Class Descriptor at (0,-1,0,64)'
	DCD	0x2
	DCD	0x0
	DCD	0xffffffff
	DCD	0x0
	DCD	0x40
	DCD	|??_R3CUnknown@@8|

	AREA	|.rdata$r|, DATA, READONLY
|??_R17?0A@EA@CBaseObject@@8| DCD |??_R0?AVCBaseObject@@@8| ; CBaseObject::`RTTI Base Class Descriptor at (8,-1,0,64)'
	DCD	0x0
	DCD	0x8
	DCD	0xffffffff
	DCD	0x0
	DCD	0x40
	DCD	|??_R3CBaseObject@@8|

	AREA	|.rdata$r|, DATA, READONLY
|??_R2CUnknown@@8| DCD |??_R1A@?0A@EA@CUnknown@@8|	; CUnknown::`RTTI Base Class Array'
	DCD	|??_R1A@?0A@EA@INonDelegatingUnknown@@8|
	DCD	|??_R17?0A@EA@CBaseObject@@8|
	%	3

	AREA	|.rdata$r|, DATA, READONLY
|??_R1A@?0A@EA@INonDelegatingUnknown@@8| DCD |??_R0?AUINonDelegatingUnknown@@@8| ; INonDelegatingUnknown::`RTTI Base Class Descriptor at (0,-1,0,64)'
	DCD	0x0
	DCD	0x0
	DCD	0xffffffff
	DCD	0x0
	DCD	0x40
	DCD	|??_R3INonDelegatingUnknown@@8|

	AREA	|.data$rs|, DATA
|??_R0?AVCUnknown@@@8| DCQ |??_7type_info@@6B@|, 0	; CUnknown `RTTI Type Descriptor'
	DCQ	0x0000000000000000
	DCB	".?AVCUnknown@@", 0x0

	AREA	|.rdata$r|, DATA, READONLY
|??_R2INonDelegatingUnknown@@8| DCD |??_R1A@?0A@EA@INonDelegatingUnknown@@8| ; INonDelegatingUnknown::`RTTI Base Class Array'
	%	3

	AREA	|.rdata$r|, DATA, READONLY
|??_R2CBaseObject@@8| DCD |??_R1A@?0A@EA@CBaseObject@@8| ; CBaseObject::`RTTI Base Class Array'
	%	3

	AREA	|.data$rs|, DATA
|??_R0?AUINonDelegatingUnknown@@@8| DCQ |??_7type_info@@6B@|, 0 ; INonDelegatingUnknown `RTTI Type Descriptor'
	DCQ	0x0000000000000000
	DCB	".?AUINonDelegatingUnknown@@", 0x0

	AREA	|.data$rs|, DATA
|??_R0?AVCBaseObject@@@8| DCQ |??_7type_info@@6B@|, 0	; CBaseObject `RTTI Type Descriptor'
	DCQ	0x0000000000000000
	DCB	".?AVCBaseObject@@", 0x0

	AREA	|.rdata|, DATA, READONLY
|??_7CUnknown@@6B@| DCQ |??_R4CUnknown@@6B@|, 0		; CUnknown::`vftable'
	DCQ	|?NonDelegatingQueryInterface@CUnknown@@UEAAJAEBU_GUID@@PEAPEAX@Z|, 0
	DCQ	|?NonDelegatingAddRef@CUnknown@@UEAAKXZ|, 0
	DCQ	|?NonDelegatingRelease@CUnknown@@UEAAKXZ|, 0
	DCQ	|??_ECUnknown@@UEAAPEAXI@Z|, 0

	AREA	|.rdata$r|, DATA, READONLY
|??_R3INonDelegatingUnknown@@8| DCD 0x0			; INonDelegatingUnknown::`RTTI Class Hierarchy Descriptor'
	DCD	0x0
	DCD	0x1
	DCD	|??_R2INonDelegatingUnknown@@8|
	EXPORT	|#_CxxThrowException$exit_thunk|
	EXPORT	|#_InterlockedDecrement$exit_thunk|
	EXPORT	|#_InterlockedDecrement_rel$exit_thunk|
	EXPORT	|#_InterlockedExchange$exit_thunk|
	EXPORT	|#_InterlockedIncrement$exit_thunk|
	EXPORT	|#_InterlockedIncrement_nf$exit_thunk|
	EXPORT	|#_InterlockedOr$exit_thunk|
	EXPORT	|#__std_terminate$exit_thunk|
	EXPORT	|#memcpy$exit_thunk|
	EXPORT	|#memset$exit_thunk|
	EXPORT	|#strcmp$exit_thunk|
	EXPORT	|$ientry_thunk$cdecl$i8$i8|
	EXPORT	|$ientry_thunk$cdecl$i8$i8d|
	EXPORT	|$ientry_thunk$cdecl$i8$i8i8|
	EXPORT	|$ientry_thunk$cdecl$i8$i8i8i8|
	EXPORT	|$ientry_thunk$cdecl$i8$i8i8i8i8|
	EXPORT	|$ientry_thunk$cdecl$i8$i8i8i8i8i8|
	EXPORT	|$ientry_thunk$cdecl$i8$v|
	EXPORT	|$ientry_thunk$cdecl$i8$varargs|
	EXPORT	|$ientry_thunk$cdecl$m12$i8i8i8|
	EXPORT	|$ientry_thunk$cdecl$v$i8|
	EXPORT	|$ientry_thunk$cdecl$v$i8i8|
	EXPORT	|$ientry_thunk$cdecl$v$i8i8i8|
	EXPORT	|$ientry_thunk$cdecl$v$v|
	EXPORT	|$iexit_thunk$cdecl$i8$i8|
	EXPORT	|$iexit_thunk$cdecl$i8$i8d|
	EXPORT	|$iexit_thunk$cdecl$i8$i8i8|
	EXPORT	|$iexit_thunk$cdecl$i8$i8i8i8|
	EXPORT	|$iexit_thunk$cdecl$i8$i8i8i8i8|
	EXPORT	|$iexit_thunk$cdecl$i8$i8i8i8i8i8|
	EXPORT	|$iexit_thunk$cdecl$i8$i8i8i8i8i8i8|
	EXPORT	|$iexit_thunk$cdecl$i8$i8i8i8i8i8i8i8|
	EXPORT	|$iexit_thunk$cdecl$i8$i8i8i8i8i8i8i8i8|
	EXPORT	|$iexit_thunk$cdecl$i8$i8i8i8i8i8i8i8i8i8|
	EXPORT	|$iexit_thunk$cdecl$i8$i8i8i8i8i8i8i8i8i8i8|
	EXPORT	|$iexit_thunk$cdecl$i8$m16i8i8|
	EXPORT	|$iexit_thunk$cdecl$i8$m16i8i8i8i8|
	EXPORT	|$iexit_thunk$cdecl$i8$v|
	EXPORT	|$iexit_thunk$cdecl$i8$varargs|
	EXPORT	|$iexit_thunk$cdecl$v$d|
	EXPORT	|$iexit_thunk$cdecl$v$i8|
	EXPORT	|$iexit_thunk$cdecl$v$i8i8|
	EXPORT	|$iexit_thunk$cdecl$v$i8i8i8|
	EXPORT	|$iexit_thunk$cdecl$v$v|
	EXPORT	|??3$exit_thunk@$$hYAXPEAX_K@Z|		;  ?? ::Z::$$hYAXPEAX_K::$exit_thunk::operator delete
	EXPORT	|??_ECUSBAsio$adjustor_exit_thunk@@$$hUEAAPEAXI@Z| ; CUSBAsio$adjustor_exit_thunk::`vector deleting destructor'
	EXPORT	|?GetInterface@CUnknown@@$$hQEAAJPEAUIUnknown@@PEAPEAX@Z| ; CUnknown::GetInterface
	EXPORT	|?NonDelegatingRelease@CUnknown@@$$hUEAAKXZ| ; CUnknown::NonDelegatingRelease
	EXPORT	|?NonDelegatingAddRef@CUnknown@@$$hUEAAKXZ| ; CUnknown::NonDelegatingAddRef
	EXPORT	|?NonDelegatingQueryInterface@CUnknown@@$$hUEAAJAEBU_GUID@@PEAPEAX@Z| ; CUnknown::NonDelegatingQueryInterface
	EXPORT	|??0INonDelegatingUnknown@@$$hQEAA@XZ|	; INonDelegatingUnknown::INonDelegatingUnknown
	EXPORT	|??0CUnknown@@$$hQEAA@PEADPEAUIUnknown@@PEAJ@Z| ; CUnknown::CUnknown
	EXPORT	|??1CBaseObject@@$$hQEAA@XZ|		; CBaseObject::~CBaseObject
	EXPORT	|??0CBaseObject@@$$hQEAA@PEAD@Z|	; CBaseObject::CBaseObject
	EXPORT	|??_GCUnknown@@$$hUEAAPEAXI@Z|		; CUnknown::`scalar deleting destructor'
	EXPORT	|??1CUnknown@@$$hUEAA@XZ|		; CUnknown::~CUnknown
	EXPORT	|#==|
	EXPORT	|#IsEqualGUID|
	IMPORT	|??_ECUnknown@@$$hUEAAPEAXI@Z|, WEAK |??_GCUnknown@@$$hUEAAPEAXI@Z| ; CUnknown::`vector deleting destructor', CUnknown::`scalar deleting destructor'
	IMPORT	|#_CxxThrowException|
	IMPORT	|#_InterlockedDecrement|
	IMPORT	|#_InterlockedDecrement_rel|
	IMPORT	|#_InterlockedExchange|
	IMPORT	|#_InterlockedIncrement|
	IMPORT	|#_InterlockedIncrement_nf|
	IMPORT	|#_InterlockedOr|
	IMPORT	|#memcpy|
	IMPORT	|#memset|
	IMPORT	|#strcmp|
	IMPORT	|IsEqualGUID|
	IMPORT	|==|
	IMPORT	|??1CUnknown@@UEAA@XZ|			; CUnknown::~CUnknown
	IMPORT	|??_GCUnknown@@UEAAPEAXI@Z|		; CUnknown::`scalar deleting destructor'
	IMPORT	|??0CBaseObject@@QEAA@PEAD@Z|		; CBaseObject::CBaseObject
	IMPORT	|??1CBaseObject@@QEAA@XZ|		; CBaseObject::~CBaseObject
	IMPORT	|??0CUnknown@@QEAA@PEADPEAUIUnknown@@PEAJ@Z| ; CUnknown::CUnknown
	IMPORT	|??0INonDelegatingUnknown@@QEAA@XZ|	; INonDelegatingUnknown::INonDelegatingUnknown
	IMPORT	|?NonDelegatingQueryInterface@CUnknown@@UEAAJAEBU_GUID@@PEAPEAX@Z| ; CUnknown::NonDelegatingQueryInterface
	IMPORT	|?NonDelegatingAddRef@CUnknown@@UEAAKXZ| ; CUnknown::NonDelegatingAddRef
	IMPORT	|?NonDelegatingRelease@CUnknown@@UEAAKXZ| ; CUnknown::NonDelegatingRelease
	IMPORT	|?GetInterface@CUnknown@@QEAAJPEAUIUnknown@@PEAPEAX@Z| ; CUnknown::GetInterface
	IMPORT	|??_ECUnknown@@UEAAPEAXI@Z|		; CUnknown::`vector deleting destructor'
	IMPORT	|#__GSHandlerCheck|
	IMPORT	|#__GSHandlerCheck_EH|
	IMPORT	|#__chkstk_arm64ec|
	IMPORT	|#__security_pop_cookie|
	IMPORT	|#__security_push_cookie|
	IMPORT	|_CxxThrowException|
	IMPORT	|_InterlockedDecrement|
	IMPORT	|_InterlockedDecrement_rel|
	IMPORT	|_InterlockedExchange|
	IMPORT	|_InterlockedIncrement|
	IMPORT	|_InterlockedIncrement_nf|
	IMPORT	|_InterlockedOr|
	IMPORT	|__adjthunk_helper|
	IMPORT	|memcpy|
	IMPORT	|memset|
	IMPORT	|strcmp|
	IMPORT	|__os_arm64x_dispatch_call_no_redirect|
	IMPORT	|__os_arm64x_dispatch_fptr|
	IMPORT	|__os_arm64x_dispatch_icall|
	IMPORT	|__os_arm64x_dispatch_ret|
	IMPORT	|_fltused|

	AREA	|.pdata|, PDATA
|$pdata$#_CxxThrowException$exit_thunk| DCD |$LN1|
	DCD	|$unwind$#_CxxThrowException$exit_thunk|

	AREA	|.pdata|, PDATA
|$pdata$#_InterlockedDecrement$exit_thunk| DCD |$LN1|
	DCD	|$unwind$#_InterlockedDecrement$exit_thunk|

	AREA	|.pdata|, PDATA
|$pdata$#_InterlockedDecrement_rel$exit_thunk| DCD |$LN1|
	DCD	|$unwind$#_InterlockedDecrement_rel$exit_thunk|

	AREA	|.pdata|, PDATA
|$pdata$#_InterlockedExchange$exit_thunk| DCD |$LN1|
	DCD	|$unwind$#_InterlockedExchange$exit_thunk|

	AREA	|.pdata|, PDATA
|$pdata$#_InterlockedIncrement$exit_thunk| DCD |$LN1|
	DCD	|$unwind$#_InterlockedIncrement$exit_thunk|

	AREA	|.pdata|, PDATA
|$pdata$#_InterlockedIncrement_nf$exit_thunk| DCD |$LN1|
	DCD	|$unwind$#_InterlockedIncrement_nf$exit_thunk|

	AREA	|.pdata|, PDATA
|$pdata$#_InterlockedOr$exit_thunk| DCD |$LN1|
	DCD	|$unwind$#_InterlockedOr$exit_thunk|

	AREA	|.pdata|, PDATA
|$pdata$#__std_terminate$exit_thunk| DCD |$LN1|
	DCD	|$unwind$#__std_terminate$exit_thunk|

	AREA	|.pdata|, PDATA
|$pdata$#memcpy$exit_thunk| DCD |$LN1|
	DCD	|$unwind$#memcpy$exit_thunk|

	AREA	|.pdata|, PDATA
|$pdata$#memset$exit_thunk| DCD |$LN1|
	DCD	|$unwind$#memset$exit_thunk|

	AREA	|.pdata|, PDATA
|$pdata$#strcmp$exit_thunk| DCD |$LN1|
	DCD	|$unwind$#strcmp$exit_thunk|

	AREA	|.pdata|, PDATA
|$pdata$$ientry_thunk$cdecl$i8$i8| DCD |$LN4|
	DCD	|$unwind$$ientry_thunk$cdecl$i8$i8|

	AREA	|.pdata|, PDATA
|$pdata$$ientry_thunk$cdecl$i8$i8d| DCD |$LN4|
	DCD	|$unwind$$ientry_thunk$cdecl$i8$i8d|

	AREA	|.pdata|, PDATA
|$pdata$$ientry_thunk$cdecl$i8$i8i8| DCD |$LN4|
	DCD	|$unwind$$ientry_thunk$cdecl$i8$i8i8|

	AREA	|.pdata|, PDATA
|$pdata$$ientry_thunk$cdecl$i8$i8i8i8| DCD |$LN4|
	DCD	|$unwind$$ientry_thunk$cdecl$i8$i8i8i8|

	AREA	|.pdata|, PDATA
|$pdata$$ientry_thunk$cdecl$i8$i8i8i8i8| DCD |$LN4|
	DCD	|$unwind$$ientry_thunk$cdecl$i8$i8i8i8i8|

	AREA	|.pdata|, PDATA
|$pdata$$ientry_thunk$cdecl$i8$i8i8i8i8i8| DCD |$LN4|
	DCD	|$unwind$$ientry_thunk$cdecl$i8$i8i8i8i8i8|

	AREA	|.pdata|, PDATA
|$pdata$$ientry_thunk$cdecl$i8$v| DCD |$LN4|
	DCD	|$unwind$$ientry_thunk$cdecl$i8$v|

	AREA	|.pdata|, PDATA
|$pdata$$ientry_thunk$cdecl$i8$varargs| DCD |$LN4|
	DCD	|$unwind$$ientry_thunk$cdecl$i8$varargs|

	AREA	|.pdata|, PDATA
|$pdata$$ientry_thunk$cdecl$m12$i8i8i8| DCD |$LN4|
	DCD	|$unwind$$ientry_thunk$cdecl$m12$i8i8i8|

	AREA	|.pdata|, PDATA
|$pdata$$ientry_thunk$cdecl$v$i8| DCD |$LN4|
	DCD	|$unwind$$ientry_thunk$cdecl$v$i8|

	AREA	|.pdata|, PDATA
|$pdata$$ientry_thunk$cdecl$v$i8i8| DCD |$LN4|
	DCD	|$unwind$$ientry_thunk$cdecl$v$i8i8|

	AREA	|.pdata|, PDATA
|$pdata$$ientry_thunk$cdecl$v$i8i8i8| DCD |$LN4|
	DCD	|$unwind$$ientry_thunk$cdecl$v$i8i8i8|

	AREA	|.pdata|, PDATA
|$pdata$$ientry_thunk$cdecl$v$v| DCD |$LN4|
	DCD	|$unwind$$ientry_thunk$cdecl$v$v|

	AREA	|.pdata|, PDATA
|$pdata$$iexit_thunk$cdecl$i8$i8| DCD |$LN4|
	DCD	0xc00031
	;Flags[SingleProEpi] functionLength[48] RegF[0] RegI[0] H[0] frameChainReturn[Reserved2] frameSize[16]

	AREA	|.pdata|, PDATA
|$pdata$$iexit_thunk$cdecl$i8$i8d| DCD |$LN4|
	DCD	0xc00035
	;Flags[SingleProEpi] functionLength[52] RegF[0] RegI[0] H[0] frameChainReturn[Reserved2] frameSize[16]

	AREA	|.pdata|, PDATA
|$pdata$$iexit_thunk$cdecl$i8$i8i8| DCD |$LN4|
	DCD	0xc00031
	;Flags[SingleProEpi] functionLength[48] RegF[0] RegI[0] H[0] frameChainReturn[Reserved2] frameSize[16]

	AREA	|.pdata|, PDATA
|$pdata$$iexit_thunk$cdecl$i8$i8i8i8| DCD |$LN4|
	DCD	0xc00031
	;Flags[SingleProEpi] functionLength[48] RegF[0] RegI[0] H[0] frameChainReturn[Reserved2] frameSize[16]

	AREA	|.pdata|, PDATA
|$pdata$$iexit_thunk$cdecl$i8$i8i8i8i8| DCD |$LN4|
	DCD	0xc00031
	;Flags[SingleProEpi] functionLength[48] RegF[0] RegI[0] H[0] frameChainReturn[Reserved2] frameSize[16]

	AREA	|.pdata|, PDATA
|$pdata$$iexit_thunk$cdecl$i8$i8i8i8i8i8| DCD |$LN4|
	DCD	0xc00035
	;Flags[SingleProEpi] functionLength[52] RegF[0] RegI[0] H[0] frameChainReturn[Reserved2] frameSize[16]

	AREA	|.pdata|, PDATA
|$pdata$$iexit_thunk$cdecl$i8$i8i8i8i8i8i8| DCD |$LN4|
	DCD	0xc00035
	;Flags[SingleProEpi] functionLength[52] RegF[0] RegI[0] H[0] frameChainReturn[Reserved2] frameSize[16]

	AREA	|.pdata|, PDATA
|$pdata$$iexit_thunk$cdecl$i8$i8i8i8i8i8i8i8| DCD |$LN4|
	DCD	0xc00039
	;Flags[SingleProEpi] functionLength[56] RegF[0] RegI[0] H[0] frameChainReturn[Reserved2] frameSize[16]

	AREA	|.pdata|, PDATA
|$pdata$$iexit_thunk$cdecl$i8$i8i8i8i8i8i8i8i8| DCD |$LN4|
	DCD	0xc00039
	;Flags[SingleProEpi] functionLength[56] RegF[0] RegI[0] H[0] frameChainReturn[Reserved2] frameSize[16]

	AREA	|.pdata|, PDATA
|$pdata$$iexit_thunk$cdecl$i8$i8i8i8i8i8i8i8i8i8| DCD |$LN4|
	DCD	0xc00041
	;Flags[SingleProEpi] functionLength[64] RegF[0] RegI[0] H[0] frameChainReturn[Reserved2] frameSize[16]

	AREA	|.pdata|, PDATA
|$pdata$$iexit_thunk$cdecl$i8$i8i8i8i8i8i8i8i8i8i8| DCD |$LN4|
	DCD	0xc00049
	;Flags[SingleProEpi] functionLength[72] RegF[0] RegI[0] H[0] frameChainReturn[Reserved2] frameSize[16]

	AREA	|.pdata|, PDATA
|$pdata$$iexit_thunk$cdecl$i8$m16i8i8| DCD |$LN4|
	DCD	0x1400041
	;Flags[SingleProEpi] functionLength[64] RegF[0] RegI[0] H[0] frameChainReturn[Reserved2] frameSize[32]

	AREA	|.pdata|, PDATA
|$pdata$$iexit_thunk$cdecl$i8$m16i8i8i8i8| DCD |$LN4|
	DCD	0x1400049
	;Flags[SingleProEpi] functionLength[72] RegF[0] RegI[0] H[0] frameChainReturn[Reserved2] frameSize[32]

	AREA	|.pdata|, PDATA
|$pdata$$iexit_thunk$cdecl$i8$v| DCD |$LN4|
	DCD	0xc00031
	;Flags[SingleProEpi] functionLength[48] RegF[0] RegI[0] H[0] frameChainReturn[Reserved2] frameSize[16]

	AREA	|.pdata|, PDATA
|$pdata$$iexit_thunk$cdecl$i8$varargs| DCD |$LN5|
	DCD	|$unwind$$iexit_thunk$cdecl$i8$varargs|

	AREA	|.pdata|, PDATA
|$pdata$$iexit_thunk$cdecl$v$d| DCD |$LN4|
	DCD	0xc0002d
	;Flags[SingleProEpi] functionLength[44] RegF[0] RegI[0] H[0] frameChainReturn[Reserved2] frameSize[16]

	AREA	|.pdata|, PDATA
|$pdata$$iexit_thunk$cdecl$v$i8| DCD |$LN4|
	DCD	0xc0002d
	;Flags[SingleProEpi] functionLength[44] RegF[0] RegI[0] H[0] frameChainReturn[Reserved2] frameSize[16]

	AREA	|.pdata|, PDATA
|$pdata$$iexit_thunk$cdecl$v$i8i8| DCD |$LN4|
	DCD	0xc0002d
	;Flags[SingleProEpi] functionLength[44] RegF[0] RegI[0] H[0] frameChainReturn[Reserved2] frameSize[16]

	AREA	|.pdata|, PDATA
|$pdata$$iexit_thunk$cdecl$v$i8i8i8| DCD |$LN4|
	DCD	0xc0002d
	;Flags[SingleProEpi] functionLength[44] RegF[0] RegI[0] H[0] frameChainReturn[Reserved2] frameSize[16]

	AREA	|.pdata|, PDATA
|$pdata$$iexit_thunk$cdecl$v$v| DCD |$LN4|
	DCD	0xc0002d
	;Flags[SingleProEpi] functionLength[44] RegF[0] RegI[0] H[0] frameChainReturn[Reserved2] frameSize[16]

	AREA	|.pdata|, PDATA
|$pdata$??3$exit_thunk@$$hYAXPEAX_K@Z| DCD |$LN1|
	DCD	|$unwind$??3$exit_thunk@$$hYAXPEAX_K@Z|

	AREA	|.pdata|, PDATA
|$pdata$?GetInterface@CUnknown@@$$hQEAAJPEAUIUnknown@@PEAPEAX@Z| DCD |$LN10|
	DCD	|$unwind$?GetInterface@CUnknown@@$$hQEAAJPEAUIUnknown@@PEAPEAX@Z|

	AREA	|.pdata|, PDATA
|$pdata$?NonDelegatingRelease@CUnknown@@$$hUEAAKXZ| DCD |$LN17|
	DCD	|$unwind$?NonDelegatingRelease@CUnknown@@$$hUEAAKXZ|

	AREA	|.pdata|, PDATA
|$pdata$?NonDelegatingAddRef@CUnknown@@$$hUEAAKXZ| DCD |$LN10|
	DCD	0x1610035
	;Flags[SingleProEpi] functionLength[52] RegF[0] RegI[1] H[0] frameChainReturn[Chained] frameSize[32]

	AREA	|.pdata|, PDATA
|$pdata$?NonDelegatingQueryInterface@CUnknown@@$$hUEAAJAEBU_GUID@@PEAPEAX@Z| DCD |$LN22|
	DCD	|$unwind$?NonDelegatingQueryInterface@CUnknown@@$$hUEAAJAEBU_GUID@@PEAPEAX@Z|

	AREA	|.pdata|, PDATA
|$pdata$??0CUnknown@@$$hQEAA@PEADPEAUIUnknown@@PEAJ@Z| DCD |$LN9|
	DCD	0x162004d
	;Flags[SingleProEpi] functionLength[76] RegF[0] RegI[2] H[0] frameChainReturn[Chained] frameSize[32]

	AREA	|.pdata|, PDATA
|$pdata$??0CBaseObject@@$$hQEAA@PEAD@Z| DCD |$LN6|
	DCD	0x161002d
	;Flags[SingleProEpi] functionLength[44] RegF[0] RegI[1] H[0] frameChainReturn[Chained] frameSize[32]

	AREA	|.pdata|, PDATA
|$pdata$??_GCUnknown@@$$hUEAAPEAXI@Z| DCD |$LN20|
	DCD	0x162004d
	;Flags[SingleProEpi] functionLength[76] RegF[0] RegI[2] H[0] frameChainReturn[Chained] frameSize[32]

	AREA	|.xdata|, DATA
|$unwind$?NonDelegatingQueryInterface@CUnknown@@$$hUEAAJAEBU_GUID@@PEAPEAX@Z| DCD 0x8c0002c
	DCD	0x400004
	DCD	0x400023
	DCD	0x400027
	DCD	0xe3e481e1
	;Code Words[1], Epilog Count[3], E[0], X[0], Function Length[44]=176 bytes
	;Epilog Start Index[1], Epilog Start Offset[4]=16 bytes
	;Epilog Start Index[1], Epilog Start Offset[35]=140 bytes
	;Epilog Start Index[1], Epilog Start Offset[39]=156 bytes
	;set_fp
	;save_fplr_x
	;end
	;nop

	AREA	|.xdata|, DATA
|$unwind$?NonDelegatingRelease@CUnknown@@$$hUEAAKXZ| DCD 0x880001f
	DCD	0x400017
	DCD	0x40001c
	DCD	0xe42281e1
	;Code Words[1], Epilog Count[2], E[0], X[0], Function Length[31]=124 bytes
	;Epilog Start Index[1], Epilog Start Offset[23]=92 bytes
	;Epilog Start Index[1], Epilog Start Offset[28]=112 bytes
	;set_fp
	;save_fplr_x
	;save_r19r20_x
	;end

	AREA	|.xdata|, DATA
|$unwind$?GetInterface@CUnknown@@$$hQEAAJPEAUIUnknown@@PEAPEAX@Z| DCD 0x8800015
	DCD	0x400004
	DCD	0x400011
	DCD	0xe3e481e1
	;Code Words[1], Epilog Count[2], E[0], X[0], Function Length[21]=84 bytes
	;Epilog Start Index[1], Epilog Start Offset[4]=16 bytes
	;Epilog Start Index[1], Epilog Start Offset[17]=68 bytes
	;set_fp
	;save_fplr_x
	;end
	;nop

	AREA	|.xdata|, DATA
|$unwind$??3$exit_thunk@$$hYAXPEAX_K@Z| DCD 0x18e0000f
	DCD	0x81e4fc81
	DCD	0xe3e3e3fc
	DCD	0xe3e3e3e4
	;Code Words[3], Epilog Start Index[3], E[1], X[0], Function Length[15]=60 bytes
	;save_fplr_x
	;pac_sign_return_address
	;end
	;save_fplr_x
	;pac_sign_return_address
	;nop
	;nop
	;nop
	;end
	;nop
	;nop
	;nop

	AREA	|.xdata|, DATA
|$unwind$$iexit_thunk$cdecl$i8$varargs| DCD 0x1820002b
	DCD	0x84d181e1
	DCD	0xfc2682c8
	DCD	0xe3e3e3e4
	;Code Words[3], Epilog Start Index[0], E[1], X[0], Function Length[43]=172 bytes
	;set_fp
	;save_fplr_x
	;save_reg
	;save_regp
	;save_r19r20_x
	;pac_sign_return_address
	;end
	;nop
	;nop
	;nop

	AREA	|.xdata|, DATA
|$unwind$$ientry_thunk$cdecl$v$v| DCD 0x40400013
	DCD	0x2c00009
	DCD	0xe6e681e1
	DCD	0x66e7e6e6
	DCD	0x81e4fc89
	DCD	0xe7884ee7
	DCD	0x4ae7864c
	DCD	0x8248e784
	DCD	0xfc8966e7
	DCD	0xe3e4e3e3
	;Code Words[8], Epilog Count[1], E[0], X[0], Function Length[19]=76 bytes
	;Epilog Start Index[11], Epilog Start Offset[9]=36 bytes
	;set_fp
	;save_fplr_x
	;save_next_pair
	;save_next_pair
	;save_next_pair
	;save_next_pair
	;save_qregp
	;save_fplr
	;save_fplr_x
	;pac_sign_return_address
	;end
	;save_fplr_x
	;save_qregp
	;save_fplr
	;save_fplr_x
	;save_qregp
	;save_fplr
	;save_fplr_x
	;save_qregp
	;save_fplr
	;save_fplr_x
	;save_qregp
	;save_fplr
	;save_fplr_x
	;save_qregp
	;save_fplr
	;save_fplr_x
	;pac_sign_return_address
	;nop
	;nop
	;end
	;nop

	AREA	|.xdata|, DATA
|$unwind$$ientry_thunk$cdecl$v$i8i8i8| DCD 0x40400013
	DCD	0x2c00009
	DCD	0xe6e681e1
	DCD	0x66e7e6e6
	DCD	0x81e4fc89
	DCD	0xe7884ee7
	DCD	0x4ae7864c
	DCD	0x8248e784
	DCD	0xfc8966e7
	DCD	0xe3e4e3e3
	;Code Words[8], Epilog Count[1], E[0], X[0], Function Length[19]=76 bytes
	;Epilog Start Index[11], Epilog Start Offset[9]=36 bytes
	;set_fp
	;save_fplr_x
	;save_next_pair
	;save_next_pair
	;save_next_pair
	;save_next_pair
	;save_qregp
	;save_fplr
	;save_fplr_x
	;pac_sign_return_address
	;end
	;save_fplr_x
	;save_qregp
	;save_fplr
	;save_fplr_x
	;save_qregp
	;save_fplr
	;save_fplr_x
	;save_qregp
	;save_fplr
	;save_fplr_x
	;save_qregp
	;save_fplr
	;save_fplr_x
	;save_qregp
	;save_fplr
	;save_fplr_x
	;pac_sign_return_address
	;nop
	;nop
	;end
	;nop

	AREA	|.xdata|, DATA
|$unwind$$ientry_thunk$cdecl$v$i8i8| DCD 0x40400013
	DCD	0x2c00009
	DCD	0xe6e681e1
	DCD	0x66e7e6e6
	DCD	0x81e4fc89
	DCD	0xe7884ee7
	DCD	0x4ae7864c
	DCD	0x8248e784
	DCD	0xfc8966e7
	DCD	0xe3e4e3e3
	;Code Words[8], Epilog Count[1], E[0], X[0], Function Length[19]=76 bytes
	;Epilog Start Index[11], Epilog Start Offset[9]=36 bytes
	;set_fp
	;save_fplr_x
	;save_next_pair
	;save_next_pair
	;save_next_pair
	;save_next_pair
	;save_qregp
	;save_fplr
	;save_fplr_x
	;pac_sign_return_address
	;end
	;save_fplr_x
	;save_qregp
	;save_fplr
	;save_fplr_x
	;save_qregp
	;save_fplr
	;save_fplr_x
	;save_qregp
	;save_fplr
	;save_fplr_x
	;save_qregp
	;save_fplr
	;save_fplr_x
	;save_qregp
	;save_fplr
	;save_fplr_x
	;pac_sign_return_address
	;nop
	;nop
	;end
	;nop

	AREA	|.xdata|, DATA
|$unwind$$ientry_thunk$cdecl$v$i8| DCD 0x40400013
	DCD	0x2c00009
	DCD	0xe6e681e1
	DCD	0x66e7e6e6
	DCD	0x81e4fc89
	DCD	0xe7884ee7
	DCD	0x4ae7864c
	DCD	0x8248e784
	DCD	0xfc8966e7
	DCD	0xe3e4e3e3
	;Code Words[8], Epilog Count[1], E[0], X[0], Function Length[19]=76 bytes
	;Epilog Start Index[11], Epilog Start Offset[9]=36 bytes
	;set_fp
	;save_fplr_x
	;save_next_pair
	;save_next_pair
	;save_next_pair
	;save_next_pair
	;save_qregp
	;save_fplr
	;save_fplr_x
	;pac_sign_return_address
	;end
	;save_fplr_x
	;save_qregp
	;save_fplr
	;save_fplr_x
	;save_qregp
	;save_fplr
	;save_fplr_x
	;save_qregp
	;save_fplr
	;save_fplr_x
	;save_qregp
	;save_fplr
	;save_fplr_x
	;save_qregp
	;save_fplr
	;save_fplr_x
	;pac_sign_return_address
	;nop
	;nop
	;end
	;nop

	AREA	|.xdata|, DATA
|$unwind$$ientry_thunk$cdecl$m12$i8i8i8| DCD 0x4840001c
	DCD	0x3400011
	DCD	0xe6e681e1
	DCD	0x8348e7e6
	DCD	0xfc15d4e3
	DCD	0x4ee781e4
	DCD	0x874ce789
	DCD	0xe7854ae7
	DCD	0xd4e38348
	DCD	0xe3e3fc15
	DCD	0xe3e3e3e4
	;Code Words[9], Epilog Count[1], E[0], X[0], Function Length[28]=112 bytes
	;Epilog Start Index[13], Epilog Start Offset[17]=68 bytes
	;set_fp
	;save_fplr_x
	;save_next_pair
	;save_next_pair
	;save_next_pair
	;save_qregp
	;save_fplr
	;save_fplr_x
	;nop
	;save_reg_x
	;pac_sign_return_address
	;end
	;save_fplr_x
	;save_qregp
	;save_fplr
	;save_fplr_x
	;save_qregp
	;save_fplr
	;save_fplr_x
	;save_qregp
	;save_fplr
	;save_fplr_x
	;save_qregp
	;save_fplr
	;save_fplr_x
	;nop
	;save_reg_x
	;pac_sign_return_address
	;nop
	;nop
	;end
	;nop
	;nop
	;nop

	AREA	|.xdata|, DATA
|$unwind$$ientry_thunk$cdecl$i8$varargs| DCD 0x40400016
	DCD	0x2c0000c
	DCD	0xe6e681e1
	DCD	0x66e7e6e6
	DCD	0x81e4fc89
	DCD	0xe7884ee7
	DCD	0x4ae7864c
	DCD	0x8248e784
	DCD	0xfc8966e7
	DCD	0xe3e4e3e3
	;Code Words[8], Epilog Count[1], E[0], X[0], Function Length[22]=88 bytes
	;Epilog Start Index[11], Epilog Start Offset[12]=48 bytes
	;set_fp
	;save_fplr_x
	;save_next_pair
	;save_next_pair
	;save_next_pair
	;save_next_pair
	;save_qregp
	;save_fplr
	;save_fplr_x
	;pac_sign_return_address
	;end
	;save_fplr_x
	;save_qregp
	;save_fplr
	;save_fplr_x
	;save_qregp
	;save_fplr
	;save_fplr_x
	;save_qregp
	;save_fplr
	;save_fplr_x
	;save_qregp
	;save_fplr
	;save_fplr_x
	;save_qregp
	;save_fplr
	;save_fplr_x
	;pac_sign_return_address
	;nop
	;nop
	;end
	;nop

	AREA	|.xdata|, DATA
|$unwind$$ientry_thunk$cdecl$i8$v| DCD 0x40400014
	DCD	0x2c0000a
	DCD	0xe6e681e1
	DCD	0x66e7e6e6
	DCD	0x81e4fc89
	DCD	0xe7884ee7
	DCD	0x4ae7864c
	DCD	0x8248e784
	DCD	0xfc8966e7
	DCD	0xe3e4e3e3
	;Code Words[8], Epilog Count[1], E[0], X[0], Function Length[20]=80 bytes
	;Epilog Start Index[11], Epilog Start Offset[10]=40 bytes
	;set_fp
	;save_fplr_x
	;save_next_pair
	;save_next_pair
	;save_next_pair
	;save_next_pair
	;save_qregp
	;save_fplr
	;save_fplr_x
	;pac_sign_return_address
	;end
	;save_fplr_x
	;save_qregp
	;save_fplr
	;save_fplr_x
	;save_qregp
	;save_fplr
	;save_fplr_x
	;save_qregp
	;save_fplr
	;save_fplr_x
	;save_qregp
	;save_fplr
	;save_fplr_x
	;save_qregp
	;save_fplr
	;save_fplr_x
	;pac_sign_return_address
	;nop
	;nop
	;end
	;nop

	AREA	|.xdata|, DATA
|$unwind$$ientry_thunk$cdecl$i8$i8i8i8i8i8| DCD 0x40400015
	DCD	0x2c0000b
	DCD	0xe6e681e1
	DCD	0x66e7e6e6
	DCD	0x81e4fc89
	DCD	0xe7884ee7
	DCD	0x4ae7864c
	DCD	0x8248e784
	DCD	0xfc8966e7
	DCD	0xe3e4e3e3
	;Code Words[8], Epilog Count[1], E[0], X[0], Function Length[21]=84 bytes
	;Epilog Start Index[11], Epilog Start Offset[11]=44 bytes
	;set_fp
	;save_fplr_x
	;save_next_pair
	;save_next_pair
	;save_next_pair
	;save_next_pair
	;save_qregp
	;save_fplr
	;save_fplr_x
	;pac_sign_return_address
	;end
	;save_fplr_x
	;save_qregp
	;save_fplr
	;save_fplr_x
	;save_qregp
	;save_fplr
	;save_fplr_x
	;save_qregp
	;save_fplr
	;save_fplr_x
	;save_qregp
	;save_fplr
	;save_fplr_x
	;save_qregp
	;save_fplr
	;save_fplr_x
	;pac_sign_return_address
	;nop
	;nop
	;end
	;nop

	AREA	|.xdata|, DATA
|$unwind$$ientry_thunk$cdecl$i8$i8i8i8i8| DCD 0x40400014
	DCD	0x2c0000a
	DCD	0xe6e681e1
	DCD	0x66e7e6e6
	DCD	0x81e4fc89
	DCD	0xe7884ee7
	DCD	0x4ae7864c
	DCD	0x8248e784
	DCD	0xfc8966e7
	DCD	0xe3e4e3e3
	;Code Words[8], Epilog Count[1], E[0], X[0], Function Length[20]=80 bytes
	;Epilog Start Index[11], Epilog Start Offset[10]=40 bytes
	;set_fp
	;save_fplr_x
	;save_next_pair
	;save_next_pair
	;save_next_pair
	;save_next_pair
	;save_qregp
	;save_fplr
	;save_fplr_x
	;pac_sign_return_address
	;end
	;save_fplr_x
	;save_qregp
	;save_fplr
	;save_fplr_x
	;save_qregp
	;save_fplr
	;save_fplr_x
	;save_qregp
	;save_fplr
	;save_fplr_x
	;save_qregp
	;save_fplr
	;save_fplr_x
	;save_qregp
	;save_fplr
	;save_fplr_x
	;pac_sign_return_address
	;nop
	;nop
	;end
	;nop

	AREA	|.xdata|, DATA
|$unwind$$ientry_thunk$cdecl$i8$i8i8i8| DCD 0x40400014
	DCD	0x2c0000a
	DCD	0xe6e681e1
	DCD	0x66e7e6e6
	DCD	0x81e4fc89
	DCD	0xe7884ee7
	DCD	0x4ae7864c
	DCD	0x8248e784
	DCD	0xfc8966e7
	DCD	0xe3e4e3e3
	;Code Words[8], Epilog Count[1], E[0], X[0], Function Length[20]=80 bytes
	;Epilog Start Index[11], Epilog Start Offset[10]=40 bytes
	;set_fp
	;save_fplr_x
	;save_next_pair
	;save_next_pair
	;save_next_pair
	;save_next_pair
	;save_qregp
	;save_fplr
	;save_fplr_x
	;pac_sign_return_address
	;end
	;save_fplr_x
	;save_qregp
	;save_fplr
	;save_fplr_x
	;save_qregp
	;save_fplr
	;save_fplr_x
	;save_qregp
	;save_fplr
	;save_fplr_x
	;save_qregp
	;save_fplr
	;save_fplr_x
	;save_qregp
	;save_fplr
	;save_fplr_x
	;pac_sign_return_address
	;nop
	;nop
	;end
	;nop

	AREA	|.xdata|, DATA
|$unwind$$ientry_thunk$cdecl$i8$i8i8| DCD 0x40400014
	DCD	0x2c0000a
	DCD	0xe6e681e1
	DCD	0x66e7e6e6
	DCD	0x81e4fc89
	DCD	0xe7884ee7
	DCD	0x4ae7864c
	DCD	0x8248e784
	DCD	0xfc8966e7
	DCD	0xe3e4e3e3
	;Code Words[8], Epilog Count[1], E[0], X[0], Function Length[20]=80 bytes
	;Epilog Start Index[11], Epilog Start Offset[10]=40 bytes
	;set_fp
	;save_fplr_x
	;save_next_pair
	;save_next_pair
	;save_next_pair
	;save_next_pair
	;save_qregp
	;save_fplr
	;save_fplr_x
	;pac_sign_return_address
	;end
	;save_fplr_x
	;save_qregp
	;save_fplr
	;save_fplr_x
	;save_qregp
	;save_fplr
	;save_fplr_x
	;save_qregp
	;save_fplr
	;save_fplr_x
	;save_qregp
	;save_fplr
	;save_fplr_x
	;save_qregp
	;save_fplr
	;save_fplr_x
	;pac_sign_return_address
	;nop
	;nop
	;end
	;nop

	AREA	|.xdata|, DATA
|$unwind$$ientry_thunk$cdecl$i8$i8d| DCD 0x40400015
	DCD	0x2c0000b
	DCD	0xe6e681e1
	DCD	0x66e7e6e6
	DCD	0x81e4fc89
	DCD	0xe7884ee7
	DCD	0x4ae7864c
	DCD	0x8248e784
	DCD	0xfc8966e7
	DCD	0xe3e4e3e3
	;Code Words[8], Epilog Count[1], E[0], X[0], Function Length[21]=84 bytes
	;Epilog Start Index[11], Epilog Start Offset[11]=44 bytes
	;set_fp
	;save_fplr_x
	;save_next_pair
	;save_next_pair
	;save_next_pair
	;save_next_pair
	;save_qregp
	;save_fplr
	;save_fplr_x
	;pac_sign_return_address
	;end
	;save_fplr_x
	;save_qregp
	;save_fplr
	;save_fplr_x
	;save_qregp
	;save_fplr
	;save_fplr_x
	;save_qregp
	;save_fplr
	;save_fplr_x
	;save_qregp
	;save_fplr
	;save_fplr_x
	;save_qregp
	;save_fplr
	;save_fplr_x
	;pac_sign_return_address
	;nop
	;nop
	;end
	;nop

	AREA	|.xdata|, DATA
|$unwind$$ientry_thunk$cdecl$i8$i8| DCD 0x40400014
	DCD	0x2c0000a
	DCD	0xe6e681e1
	DCD	0x66e7e6e6
	DCD	0x81e4fc89
	DCD	0xe7884ee7
	DCD	0x4ae7864c
	DCD	0x8248e784
	DCD	0xfc8966e7
	DCD	0xe3e4e3e3
	;Code Words[8], Epilog Count[1], E[0], X[0], Function Length[20]=80 bytes
	;Epilog Start Index[11], Epilog Start Offset[10]=40 bytes
	;set_fp
	;save_fplr_x
	;save_next_pair
	;save_next_pair
	;save_next_pair
	;save_next_pair
	;save_qregp
	;save_fplr
	;save_fplr_x
	;pac_sign_return_address
	;end
	;save_fplr_x
	;save_qregp
	;save_fplr
	;save_fplr_x
	;save_qregp
	;save_fplr
	;save_fplr_x
	;save_qregp
	;save_fplr
	;save_fplr_x
	;save_qregp
	;save_fplr
	;save_fplr_x
	;save_qregp
	;save_fplr
	;save_fplr_x
	;pac_sign_return_address
	;nop
	;nop
	;end
	;nop

	AREA	|.xdata|, DATA
|$unwind$#strcmp$exit_thunk| DCD 0x18e0000f
	DCD	0x81e4fc81
	DCD	0xe3e3e3fc
	DCD	0xe3e3e3e4
	;Code Words[3], Epilog Start Index[3], E[1], X[0], Function Length[15]=60 bytes
	;save_fplr_x
	;pac_sign_return_address
	;end
	;save_fplr_x
	;pac_sign_return_address
	;nop
	;nop
	;nop
	;end
	;nop
	;nop
	;nop

	AREA	|.xdata|, DATA
|$unwind$#memset$exit_thunk| DCD 0x18e0000f
	DCD	0x81e4fc81
	DCD	0xe3e3e3fc
	DCD	0xe3e3e3e4
	;Code Words[3], Epilog Start Index[3], E[1], X[0], Function Length[15]=60 bytes
	;save_fplr_x
	;pac_sign_return_address
	;end
	;save_fplr_x
	;pac_sign_return_address
	;nop
	;nop
	;nop
	;end
	;nop
	;nop
	;nop

	AREA	|.xdata|, DATA
|$unwind$#memcpy$exit_thunk| DCD 0x18e0000f
	DCD	0x81e4fc81
	DCD	0xe3e3e3fc
	DCD	0xe3e3e3e4
	;Code Words[3], Epilog Start Index[3], E[1], X[0], Function Length[15]=60 bytes
	;save_fplr_x
	;pac_sign_return_address
	;end
	;save_fplr_x
	;pac_sign_return_address
	;nop
	;nop
	;nop
	;end
	;nop
	;nop
	;nop

	AREA	|.xdata|, DATA
|$unwind$#__std_terminate$exit_thunk| DCD 0x18e0000f
	DCD	0x81e4fc81
	DCD	0xe3e3e3fc
	DCD	0xe3e3e3e4
	;Code Words[3], Epilog Start Index[3], E[1], X[0], Function Length[15]=60 bytes
	;save_fplr_x
	;pac_sign_return_address
	;end
	;save_fplr_x
	;pac_sign_return_address
	;nop
	;nop
	;nop
	;end
	;nop
	;nop
	;nop

	AREA	|.xdata|, DATA
|$unwind$#_InterlockedOr$exit_thunk| DCD 0x18e0000f
	DCD	0x81e4fc81
	DCD	0xe3e3e3fc
	DCD	0xe3e3e3e4
	;Code Words[3], Epilog Start Index[3], E[1], X[0], Function Length[15]=60 bytes
	;save_fplr_x
	;pac_sign_return_address
	;end
	;save_fplr_x
	;pac_sign_return_address
	;nop
	;nop
	;nop
	;end
	;nop
	;nop
	;nop

	AREA	|.xdata|, DATA
|$unwind$#_InterlockedIncrement_nf$exit_thunk| DCD 0x18e0000f
	DCD	0x81e4fc81
	DCD	0xe3e3e3fc
	DCD	0xe3e3e3e4
	;Code Words[3], Epilog Start Index[3], E[1], X[0], Function Length[15]=60 bytes
	;save_fplr_x
	;pac_sign_return_address
	;end
	;save_fplr_x
	;pac_sign_return_address
	;nop
	;nop
	;nop
	;end
	;nop
	;nop
	;nop

	AREA	|.xdata|, DATA
|$unwind$#_InterlockedIncrement$exit_thunk| DCD 0x18e0000f
	DCD	0x81e4fc81
	DCD	0xe3e3e3fc
	DCD	0xe3e3e3e4
	;Code Words[3], Epilog Start Index[3], E[1], X[0], Function Length[15]=60 bytes
	;save_fplr_x
	;pac_sign_return_address
	;end
	;save_fplr_x
	;pac_sign_return_address
	;nop
	;nop
	;nop
	;end
	;nop
	;nop
	;nop

	AREA	|.xdata|, DATA
|$unwind$#_InterlockedExchange$exit_thunk| DCD 0x18e0000f
	DCD	0x81e4fc81
	DCD	0xe3e3e3fc
	DCD	0xe3e3e3e4
	;Code Words[3], Epilog Start Index[3], E[1], X[0], Function Length[15]=60 bytes
	;save_fplr_x
	;pac_sign_return_address
	;end
	;save_fplr_x
	;pac_sign_return_address
	;nop
	;nop
	;nop
	;end
	;nop
	;nop
	;nop

	AREA	|.xdata|, DATA
|$unwind$#_InterlockedDecrement_rel$exit_thunk| DCD 0x18e0000f
	DCD	0x81e4fc81
	DCD	0xe3e3e3fc
	DCD	0xe3e3e3e4
	;Code Words[3], Epilog Start Index[3], E[1], X[0], Function Length[15]=60 bytes
	;save_fplr_x
	;pac_sign_return_address
	;end
	;save_fplr_x
	;pac_sign_return_address
	;nop
	;nop
	;nop
	;end
	;nop
	;nop
	;nop

	AREA	|.xdata|, DATA
|$unwind$#_InterlockedDecrement$exit_thunk| DCD 0x18e0000f
	DCD	0x81e4fc81
	DCD	0xe3e3e3fc
	DCD	0xe3e3e3e4
	;Code Words[3], Epilog Start Index[3], E[1], X[0], Function Length[15]=60 bytes
	;save_fplr_x
	;pac_sign_return_address
	;end
	;save_fplr_x
	;pac_sign_return_address
	;nop
	;nop
	;nop
	;end
	;nop
	;nop
	;nop

	AREA	|.xdata|, DATA
|$unwind$#_CxxThrowException$exit_thunk| DCD 0x18e0000f
	DCD	0x81e4fc81
	DCD	0xe3e3e3fc
	DCD	0xe3e3e3e4
	;Code Words[3], Epilog Start Index[3], E[1], X[0], Function Length[15]=60 bytes
	;save_fplr_x
	;pac_sign_return_address
	;end
	;save_fplr_x
	;pac_sign_return_address
	;nop
	;nop
	;nop
	;end
	;nop
	;nop
	;nop
; Function compile flags: /Ogtp
; File G:\Github\microsoft\low-latency-audio\src\uac2-asio\asio\combase.cpp

	AREA	|.text$mn|, CODE, ARM64

|??$max@K@@$$hYAKAEBK0@Z| PROC				; max<unsigned long>

; 103  : {

	ldr         w9,[x0]

; 104  :     return a > b ? a : b;

	ldr         w8,[x1]
	cmp         w9,w8
	csells      w0,w8,w9
	ret

	ENDP  ; |??$max@K@@$$hYAKAEBK0@Z|, max<unsigned long>

; Function compile flags: /Ogtp
; File C:\Program Files (x86)\Windows Kits\10\Include\10.0.26100.0\shared\guiddef.h

	AREA	|.text$mn|, CODE, ARM64

|#IsEqualGUID| PROC

; 161  :     return !memcmp(&rguid1, &rguid2, sizeof(GUID));

	ldr         x9,[x0]
	ldr         x8,[x1]
	rev         x9,x9
	rev         x8,x8
	cmp         x9,x8
	bne         |$LN3@|
	ldr         x9,[x0,#8]
	ldr         x8,[x1,#8]
	rev         x9,x9
	rev         x8,x8
	cmp         x9,x8
	bne         |$LN3@|
	mov         w8,#0
	cmp         w8,#0
	cseteq      w0
	ret
|$LN3@|
	mov         w8,#-1
	cneghs      w8,w8
	cmp         w8,#0
	cseteq      w0
	ret

	ENDP  ; |#IsEqualGUID|

; Function compile flags: /Ogtp
; File C:\Program Files (x86)\Windows Kits\10\Include\10.0.26100.0\shared\guiddef.h

	AREA	|.text$mn|, CODE, ARM64

|#==|	PROC

; 161  :     return !memcmp(&rguid1, &rguid2, sizeof(GUID));

	ldr         x9,[x0]
	ldr         x8,[x1]
	rev         x9,x9
	rev         x8,x8
	cmp         x9,x8
	bne         |$LN5@|
	ldr         x9,[x0,#8]
	ldr         x8,[x1,#8]
	rev         x9,x9
	rev         x8,x8
	cmp         x9,x8
	bne         |$LN5@|
	mov         w8,#0
	cmp         w8,#0

; 194  :     return !!IsEqualGUID(guidOne,guidOther);

	cseteq      w0
	ret
|$LN5@|

; 161  :     return !memcmp(&rguid1, &rguid2, sizeof(GUID));

	mov         w8,#-1
	cneghs      w8,w8
	cmp         w8,#0

; 194  :     return !!IsEqualGUID(guidOne,guidOther);

	cseteq      w0
	ret

	ENDP  ; |#==|

; Function compile flags: /Ogtp
; File G:\Github\microsoft\low-latency-audio\src\uac2-asio\asio\combase.h
; File G:\Github\microsoft\low-latency-audio\src\uac2-asio\asio\combase.cpp
; File G:\Github\microsoft\low-latency-audio\src\uac2-asio\asio\combase.h

	AREA	|.text$mn|, CODE, ARM64

|??1CUnknown@@$$hUEAA@XZ| PROC				; CUnknown::~CUnknown

; 192  :     virtual ~CUnknown() {};

	adrp        x8,|??_7CUnknown@@6B@|
	add         x8,x8,|??_7CUnknown@@6B@|
	str         x8,[x0]
; File G:\Github\microsoft\low-latency-audio\src\uac2-asio\asio\combase.cpp

; 43   :     InterlockedDecrement(&m_cObjects);

	adrp        x8,|?m_cObjects@CBaseObject@@0JA|
	add         x0,x8,|?m_cObjects@CBaseObject@@0JA|
	b           |#_InterlockedDecrement|

	ENDP  ; |??1CUnknown@@$$hUEAA@XZ|, CUnknown::~CUnknown

; Function compile flags: /Ogtp
; File G:\Github\microsoft\low-latency-audio\src\uac2-asio\asio\combase.h
; File G:\Github\microsoft\low-latency-audio\src\uac2-asio\asio\combase.cpp

	AREA	|.text$mn|, CODE, ARM64

|??_GCUnknown@@$$hUEAAPEAXI@Z| PROC			; CUnknown::`scalar deleting destructor'
|$LN20|
	stp         x19,x20,[sp,#-0x10]!
	stp         fp,lr,[sp,#-0x10]!
	mov         fp,sp
; File G:\Github\microsoft\low-latency-audio\src\uac2-asio\asio\combase.h

; 192  :     virtual ~CUnknown() {};

	adrp        x8,|??_7CUnknown@@6B@|
	add         x8,x8,|??_7CUnknown@@6B@|
	mov         x19,x0
	mov         w20,w1
	str         x8,[x19]
; File G:\Github\microsoft\low-latency-audio\src\uac2-asio\asio\combase.cpp

; 43   :     InterlockedDecrement(&m_cObjects);

	adrp        x8,|?m_cObjects@CBaseObject@@0JA|
	add         x0,x8,|?m_cObjects@CBaseObject@@0JA|
	bl          |#_InterlockedDecrement|
	tbz         w20,#0,|$LN17@scalar|
	mov         x1,#0x18
	mov         x0,x19
	bl          |??3@$$hYAXPEAX_K@Z|
|$LN17@scalar|
	mov         x0,x19
	ldp         fp,lr,[sp],#0x10
	ldp         x19,x20,[sp],#0x10
	ret

	ENDP  ; |??_GCUnknown@@$$hUEAAPEAXI@Z|, CUnknown::`scalar deleting destructor'

; Function compile flags: /Ogtp
; File G:\Github\microsoft\low-latency-audio\src\uac2-asio\asio\combase.cpp

	AREA	|.text$mn|, CODE, ARM64

|??0CBaseObject@@$$hQEAA@PEAD@Z| PROC			; CBaseObject::CBaseObject

; 28   : {

|$LN6|
	str         x19,[sp,#-0x10]!
	stp         fp,lr,[sp,#-0x10]!
	mov         fp,sp
	mov         x19,x0

; 29   :     /* Increment the number of active objects */
; 30   :     InterlockedIncrement(&m_cObjects);

	adrp        x8,|?m_cObjects@CBaseObject@@0JA|
	add         x0,x8,|?m_cObjects@CBaseObject@@0JA|
	bl          |#_InterlockedIncrement|

; 31   : 
; 32   : #ifdef DEBUG
; 33   :     m_dwCookie = DbgRegisterObjectCreation(pName);
; 34   : #endif
; 35   : }

	mov         x0,x19
	ldp         fp,lr,[sp],#0x10
	ldr         x19,[sp],#0x10
	ret

	ENDP  ; |??0CBaseObject@@$$hQEAA@PEAD@Z|, CBaseObject::CBaseObject

; Function compile flags: /Ogtp
; File G:\Github\microsoft\low-latency-audio\src\uac2-asio\asio\combase.cpp

	AREA	|.text$mn|, CODE, ARM64

|??1CBaseObject@@$$hQEAA@XZ| PROC			; CBaseObject::~CBaseObject

; 42   :     /* Decrement the number of objects active */
; 43   :     InterlockedDecrement(&m_cObjects);

	adrp        x8,|?m_cObjects@CBaseObject@@0JA|
	add         x0,x8,|?m_cObjects@CBaseObject@@0JA|
	b           |#_InterlockedDecrement|

	ENDP  ; |??1CBaseObject@@$$hQEAA@XZ|, CBaseObject::~CBaseObject

; Function compile flags: /Ogtp
; File G:\Github\microsoft\low-latency-audio\src\uac2-asio\asio\combase.cpp

	AREA	|.text$mn|, CODE, ARM64

|??0CUnknown@@$$hQEAA@PEADPEAUIUnknown@@PEAJ@Z| PROC	; CUnknown::CUnknown

; 71   : {

|$LN9|
	stp         x19,x20,[sp,#-0x10]!
	stp         fp,lr,[sp,#-0x10]!
	mov         fp,sp
	mov         x20,x0

; 30   :     InterlockedIncrement(&m_cObjects);

	adrp        x8,|?m_cObjects@CBaseObject@@0JA|
	add         x0,x8,|?m_cObjects@CBaseObject@@0JA|
	mov         x19,x2
	bl          |#_InterlockedIncrement|

; 71   : {

	adrp        x8,|??_7CUnknown@@6B@|
	add         x9,x8,|??_7CUnknown@@6B@|

; 31   : 
; 32   : #ifdef DEBUG
; 33   :     m_dwCookie = DbgRegisterObjectCreation(pName);
; 34   : #endif
; 35   : }
; 36   : 
; 37   : 
; 38   : /* Destructor */
; 39   : 
; 40   : CBaseObject::~CBaseObject()
; 41   : {
; 42   :     /* Decrement the number of objects active */
; 43   :     InterlockedDecrement(&m_cObjects);
; 44   : 
; 45   : #ifdef DEBUG
; 46   :     DbgRegisterObjectDestruction(m_dwCookie);
; 47   : #endif
; 48   : }
; 49   : 
; 50   : 
; 51   : /* Constructor */
; 52   : 
; 53   : // We know we use "this" in the initialization list, we also know we don't modify *phr.
; 54   : #pragma warning( disable : 4355 4100 ) 
; 55   : CUnknown::CUnknown(TCHAR *pName, LPUNKNOWN pUnk, HRESULT *phr) 
; 56   : : CBaseObject(pName)
; 57   : /* Start the object with a reference count of zero - when the      */
; 58   : /* object is queried for it's first interface this may be          */
; 59   : /* incremented depending on whether or not this object is          */
; 60   : /* currently being aggregated upon                                 */
; 61   : , m_cRef(0)
; 62   : /* Set our pointer to our IUnknown interface.                      */
; 63   : /* If we have an outer, use its, otherwise use ours.               */
; 64   : /* This pointer effectivly points to the owner of                  */
; 65   : /* this object and can be accessed by the GetOwner() method.       */
; 66   : , m_pUnknown( pUnk != 0 ? pUnk : reinterpret_cast<LPUNKNOWN>( static_cast<PNDUNKNOWN>(this) ) )

	cmp         x19,#0
	cselne      x8,x19,x20

; 72   :     // Everything we need to do has been done in the initializer list
; 73   : }

	mov         x0,x20
	stp         x9,x8,[x20]
	add         x8,x20,#0x10
	stlr        wzr,[x8]
	ldp         fp,lr,[sp],#0x10
	ldp         x19,x20,[sp],#0x10
	ret

	ENDP  ; |??0CUnknown@@$$hQEAA@PEADPEAUIUnknown@@PEAJ@Z|, CUnknown::CUnknown

; Function compile flags: /Ogtp

	AREA	|.text$mn|, CODE, ARM64

|??0INonDelegatingUnknown@@$$hQEAA@XZ| PROC		; INonDelegatingUnknown::INonDelegatingUnknown
	ret

	ENDP  ; |??0INonDelegatingUnknown@@$$hQEAA@XZ|, INonDelegatingUnknown::INonDelegatingUnknown

; Function compile flags: /Ogtp
; File G:\Github\microsoft\low-latency-audio\src\uac2-asio\asio\combase.cpp
; File C:\Program Files (x86)\Windows Kits\10\Include\10.0.26100.0\shared\guiddef.h
; File G:\Github\microsoft\low-latency-audio\src\uac2-asio\asio\combase.cpp

	AREA	|.text$mn|, CODE, ARM64

|?NonDelegatingQueryInterface@CUnknown@@$$hUEAAJAEBU_GUID@@PEAPEAX@Z| PROC ; CUnknown::NonDelegatingQueryInterface

; 79   : {

|$LN22|
	stp         fp,lr,[sp,#-0x10]!
	mov         fp,sp

; 80   :     CheckPointer(ppv,E_POINTER);

	cbnz        x2,|$LN17@NonDelegat|
	ldr         w0,|$LN20@NonDelegat|
	ldp         fp,lr,[sp],#0x10
	ret
|$LN17@NonDelegat|
; File C:\Program Files (x86)\Windows Kits\10\Include\10.0.26100.0\shared\guiddef.h

; 161  :     return !memcmp(&rguid1, &rguid2, sizeof(GUID));

	adrp        x8,IID_IUnknown
	add         x10,x8,IID_IUnknown
	ldr         x9,[x1]
	ldr         x8,[x10]
	rev         x9,x9
	rev         x8,x8
	cmp         x9,x8
	bne         |$LN13@NonDelegat|
	ldr         x9,[x1,#8]
	ldr         x8,[x10,#8]
	rev         x9,x9
	rev         x8,x8
	cmp         x9,x8
	bne         |$LN13@NonDelegat|
	mov         w8,#0
	b           |$LN14@NonDelegat|
|$LN13@NonDelegat|
	mov         w8,#-1
	cneghs      w8,w8
|$LN14@NonDelegat|
; File G:\Github\microsoft\low-latency-audio\src\uac2-asio\asio\combase.cpp

; 85   :     if (riid == IID_IUnknown) {

	cbnz        w8,|$LN3@NonDelegat|

; 161  :     *ppv = pUnk;

	str         x0,[x2]

; 162  :     pUnk->AddRef();

	ldr         x8,[x0]
	ldr         x11,[x8,#8]
	adrp        x8,__os_arm64x_dispatch_icall
	ldr         x9,[x8,__os_arm64x_dispatch_icall]
	adrp        x8,|$iexit_thunk$cdecl$i8$i8|
	add         x10,x8,|$iexit_thunk$cdecl$i8$i8|
	blr         x9
	blr         x11

; 86   :         GetInterface((LPUNKNOWN) (PNDUNKNOWN) this, ppv);
; 87   :         return NOERROR;

	mov         w0,#0
	ldp         fp,lr,[sp],#0x10
	ret
|$LN3@NonDelegat|

; 88   :     } else {
; 89   :         *ppv = NULL;

	str         xzr,[x2]

; 90   :         return E_NOINTERFACE;

	ldr         w0,|$LN21@NonDelegat|
	ldp         fp,lr,[sp],#0x10
	ret
	nop
|$LN20@NonDelegat|
	DCD         0x80004003
|$LN21@NonDelegat|
	DCD         0x80004002

	ENDP  ; |?NonDelegatingQueryInterface@CUnknown@@$$hUEAAJAEBU_GUID@@PEAPEAX@Z|, CUnknown::NonDelegatingQueryInterface

; Function compile flags: /Ogtp
; File G:\Github\microsoft\low-latency-audio\src\uac2-asio\asio\combase.cpp

	AREA	|.text$mn|, CODE, ARM64

|?NonDelegatingAddRef@CUnknown@@$$hUEAAKXZ| PROC	; CUnknown::NonDelegatingAddRef

; 110  : {

|$LN10|
	str         x19,[sp,#-0x10]!
	stp         fp,lr,[sp,#-0x10]!
	mov         fp,sp
	mov         x19,x0

; 111  :     LONG lRef = InterlockedIncrement( &m_cRef );

	add         x0,x19,#0x10
	bl          |#_InterlockedIncrement|

; 112  :     ASSERT(lRef > 0);
; 113  :     DbgLog((LOG_MEMORY,3,TEXT("    Obj %d ref++ = %d"),
; 114  :            m_dwCookie, m_cRef));
; 115  :     return max(ULONG(m_cRef), 1ul);

	add         x8,x19,#0x10
	ldar        w8,[x8]

; 104  :     return a > b ? a : b;

	cmp         w8,#1
	csinchi     w0,w8,wzr
	ldp         fp,lr,[sp],#0x10
	ldr         x19,[sp],#0x10
	ret

	ENDP  ; |?NonDelegatingAddRef@CUnknown@@$$hUEAAKXZ|, CUnknown::NonDelegatingAddRef

; Function compile flags: /Ogtp
; File G:\Github\microsoft\low-latency-audio\src\uac2-asio\asio\combase.cpp

	AREA	|.text$mn|, CODE, ARM64

|?NonDelegatingRelease@CUnknown@@$$hUEAAKXZ| PROC	; CUnknown::NonDelegatingRelease

; 123  : {

|$LN17|
	stp         x19,x20,[sp,#-0x10]!
	stp         fp,lr,[sp,#-0x10]!
	mov         fp,sp
	mov         x19,x0

; 124  :     /* If the reference count drops to zero delete ourselves */
; 125  : 
; 126  :     LONG lRef = InterlockedDecrement( &m_cRef );

	add         x20,x19,#0x10
	mov         x0,x20
	bl          |#_InterlockedDecrement|

; 127  :     ASSERT(lRef >= 0);
; 128  : 
; 129  :     DbgLog((LOG_MEMORY,3,TEXT("    Object %d ref-- = %d"),
; 130  : 	    m_dwCookie, m_cRef));
; 131  :     if (lRef == 0) {

	add         x8,x19,#0x10
	ldar        w8,[x8]
	cbnz        w0,|$LN2@NonDelegat|

; 132  : 
; 133  :         // COM rules say we must protect against re-entrancy.
; 134  :         // If we are an aggregator and we hold our own interfaces
; 135  :         // on the aggregatee, the QI for these interfaces will
; 136  :         // addref ourselves. So after doing the QI we must release
; 137  :         // a ref count on ourselves. Then, before releasing the
; 138  :         // private interface, we must addref ourselves. When we do
; 139  :         // this from the destructor here it will result in the ref
; 140  :         // count going to 1 and then back to 0 causing us to
; 141  :         // re-enter the destructor. Hence we add an extra refcount here
; 142  :         // once we know we will delete the object.
; 143  :         // for an example aggregator see filgraph\distrib.cpp.
; 144  : 
; 145  :         m_cRef++;

	add         w8,w8,#1
	stlr        w8,[x20]

; 146  : 
; 147  :         delete this;

	ldr         x8,[x19]
	ldr         x11,[x8,#0x18]
	adrp        x8,__os_arm64x_dispatch_icall
	ldr         x9,[x8,__os_arm64x_dispatch_icall]
	adrp        x8,|$iexit_thunk$cdecl$i8$i8i8|
	add         x10,x8,|$iexit_thunk$cdecl$i8$i8i8|
	blr         x9
	mov         w1,#1
	mov         x0,x19
	blr         x11

; 148  :         return ULONG(0);

	mov         w0,#0
	ldp         fp,lr,[sp],#0x10
	ldp         x19,x20,[sp],#0x10
	ret
|$LN2@NonDelegat|

; 104  :     return a > b ? a : b;

	cmp         w8,#1
	csinchi     w0,w8,wzr
	ldp         fp,lr,[sp],#0x10
	ldp         x19,x20,[sp],#0x10
	ret

	ENDP  ; |?NonDelegatingRelease@CUnknown@@$$hUEAAKXZ|, CUnknown::NonDelegatingRelease

; Function compile flags: /Ogtp
; File G:\Github\microsoft\low-latency-audio\src\uac2-asio\asio\combase.cpp

	AREA	|.text$mn|, CODE, ARM64

|?GetInterface@CUnknown@@$$hQEAAJPEAUIUnknown@@PEAPEAX@Z| PROC ; CUnknown::GetInterface

; 159  : {

|$LN10|
	stp         fp,lr,[sp,#-0x10]!
	mov         fp,sp

; 160  :     CheckPointer(ppv, E_POINTER);

	cbnz        x2,|$LN6@GetInterfa|
	ldr         w0,|$LN9@GetInterfa|
	ldp         fp,lr,[sp],#0x10
	ret
|$LN6@GetInterfa|

; 161  :     *ppv = pUnk;

	str         x1,[x2]

; 162  :     pUnk->AddRef();

	ldr         x8,[x1]
	ldr         x11,[x8,#8]
	adrp        x8,__os_arm64x_dispatch_icall
	ldr         x9,[x8,__os_arm64x_dispatch_icall]
	adrp        x8,|$iexit_thunk$cdecl$i8$i8|
	add         x10,x8,|$iexit_thunk$cdecl$i8$i8|
	blr         x9
	mov         x0,x1
	blr         x11

; 163  :     return NOERROR;

	mov         w0,#0
	ldp         fp,lr,[sp],#0x10
	ret
	nop
|$LN9@GetInterfa|
	DCD         0x80004003

	ENDP  ; |?GetInterface@CUnknown@@$$hQEAAJPEAUIUnknown@@PEAPEAX@Z|, CUnknown::GetInterface

; Function compile flags: /Odsp

	AREA	|.wowthk$aa|, CODE, ARM64

|??_ECUSBAsio$entry_thunk@@$$hW7EAAPEAXI@Z| PROC	; [thunk]:CUSBAsio$entry_thunk::`vector deleting destructor'
	sub         x0,x0,#8
	adrp        x9,|??_ECUSBAsio@@UEAAPEAXI@Z|
	add         x9,x9,|??_ECUSBAsio@@UEAAPEAXI@Z|
	adrp        xip0,__os_arm64x_dispatch_fptr
	ldr         xip0,[xip0,__os_arm64x_dispatch_fptr]
	br          xip0

	ENDP  ; |??_ECUSBAsio$entry_thunk@@$$hW7EAAPEAXI@Z|, [thunk]:CUSBAsio$entry_thunk::`vector deleting destructor'

; Function compile flags: /Odsp

	AREA	|.wowthk$aa|, CODE, ARM64

|??_ECUSBAsio$adjustor_exit_thunk@@$$hUEAAPEAXI@Z| PROC	; CUSBAsio$adjustor_exit_thunk::`vector deleting destructor'
	adrp        x8,|??_ECUSBAsio@@UEAAPEAXI@Z|
	add         x9,x8,|??_ECUSBAsio@@UEAAPEAXI@Z|
	br          x10

	ENDP  ; |??_ECUSBAsio$adjustor_exit_thunk@@$$hUEAAPEAXI@Z|, CUSBAsio$adjustor_exit_thunk::`vector deleting destructor'

; Function compile flags: /Odsp

	AREA	|.wowthk$aa|, CODE, ARM64

|??3$exit_thunk@$$hYAXPEAX_K@Z| PROC			;  ?? ::Z::$$hYAXPEAX_K::$exit_thunk::operator delete
|$LN1|
	pacibsp
	stp         fp,lr,[sp,#-0x10]!
	adrp        x9,__os_arm64x_dispatch_icall
	ldr         x9,[x9,__os_arm64x_dispatch_icall]
	adrp        x10,|$iexit_thunk$cdecl$v$i8i8|
	add         x10,x10,|$iexit_thunk$cdecl$v$i8i8|
	adrp        x11,|??3@YAXPEAX_K@Z|
	add         x11,x11,|??3@YAXPEAX_K@Z|
	blr         x9
	ldp         fp,lr,[sp],#0x10
	autibsp
	eor         x12,lr,x11
	xpaclri
	eor         x12,x12,lr
	br          x12

	ENDP  ; |??3$exit_thunk@$$hYAXPEAX_K@Z|,  ?? ::Z::$$hYAXPEAX_K::$exit_thunk::operator delete

; Function compile flags: /Ogtp

	AREA	|.wowthk$aa|, CODE, ARM64

|$iexit_thunk$cdecl$v$v| PROC
|$LN4|
	pacibsp
	stp         fp,lr,[sp,#-0x10]!
	mov         fp,sp
	sub         sp,sp,#0x20
	adrp        x8,__os_arm64x_dispatch_call_no_redirect
	ldr         xip0,[x8,__os_arm64x_dispatch_call_no_redirect]
	blr         xip0
	add         sp,sp,#0x20
	ldp         fp,lr,[sp],#0x10
	autibsp
	ret

	ENDP  ; |$iexit_thunk$cdecl$v$v|

; Function compile flags: /Ogtp

	AREA	|.wowthk$aa|, CODE, ARM64

|$iexit_thunk$cdecl$v$i8i8i8| PROC
|$LN4|
	pacibsp
	stp         fp,lr,[sp,#-0x10]!
	mov         fp,sp
	sub         sp,sp,#0x20
	adrp        x8,__os_arm64x_dispatch_call_no_redirect
	ldr         xip0,[x8,__os_arm64x_dispatch_call_no_redirect]
	blr         xip0
	add         sp,sp,#0x20
	ldp         fp,lr,[sp],#0x10
	autibsp
	ret

	ENDP  ; |$iexit_thunk$cdecl$v$i8i8i8|

; Function compile flags: /Ogtp

	AREA	|.wowthk$aa|, CODE, ARM64

|$iexit_thunk$cdecl$v$i8i8| PROC
|$LN4|
	pacibsp
	stp         fp,lr,[sp,#-0x10]!
	mov         fp,sp
	sub         sp,sp,#0x20
	adrp        x8,__os_arm64x_dispatch_call_no_redirect
	ldr         xip0,[x8,__os_arm64x_dispatch_call_no_redirect]
	blr         xip0
	add         sp,sp,#0x20
	ldp         fp,lr,[sp],#0x10
	autibsp
	ret

	ENDP  ; |$iexit_thunk$cdecl$v$i8i8|

; Function compile flags: /Ogtp

	AREA	|.wowthk$aa|, CODE, ARM64

|$iexit_thunk$cdecl$v$i8| PROC
|$LN4|
	pacibsp
	stp         fp,lr,[sp,#-0x10]!
	mov         fp,sp
	sub         sp,sp,#0x20
	adrp        x8,__os_arm64x_dispatch_call_no_redirect
	ldr         xip0,[x8,__os_arm64x_dispatch_call_no_redirect]
	blr         xip0
	add         sp,sp,#0x20
	ldp         fp,lr,[sp],#0x10
	autibsp
	ret

	ENDP  ; |$iexit_thunk$cdecl$v$i8|

; Function compile flags: /Ogtp

	AREA	|.wowthk$aa|, CODE, ARM64

|$iexit_thunk$cdecl$v$d| PROC
|$LN4|
	pacibsp
	stp         fp,lr,[sp,#-0x10]!
	mov         fp,sp
	sub         sp,sp,#0x20
	adrp        x8,__os_arm64x_dispatch_call_no_redirect
	ldr         xip0,[x8,__os_arm64x_dispatch_call_no_redirect]
	blr         xip0
	add         sp,sp,#0x20
	ldp         fp,lr,[sp],#0x10
	autibsp
	ret

	ENDP  ; |$iexit_thunk$cdecl$v$d|

; Function compile flags: /Ogtp

	AREA	|.wowthk$aa|, CODE, ARM64

|$iexit_thunk$cdecl$i8$varargs| PROC
|$LN5|
	pacibsp
	stp         x19,x20,[sp,#-0x30]!
	stp         x21,x22,[sp,#0x10]
	str         x25,[sp,#0x20]
	stp         fp,lr,[sp,#-0x10]!
	mov         fp,sp
	sub         sp,sp,#0x20
	add         x8,x5,#0xF
	cmp         x8,x5
	mov         x25,x9
	mov         x22,x0
	mov         x21,x1
	mov         x20,x2
	mov         x19,x3
	bgt         |$LN1@$iexit_thu|
	mov         x8,#0xFFFFFFFFFFFFFF0
|$LN1@$iexit_thu|
	lsr         x15,x8,#4
	bl          |#__chkstk_arm64ec|
	sub         sp,sp,x15,lsl #4
	add         x1,fp,#0x40
	mov         x2,x5
	add         x0,sp,#0x20
	bl          |#memcpy|
	adrp        x8,__os_arm64x_dispatch_call_no_redirect
	ldr         xip0,[x8,__os_arm64x_dispatch_call_no_redirect]
	mov         x3,x19
	mov         x2,x20
	mov         x1,x21
	fmov        d3,x3
	mov         x0,x22
	fmov        d2,x2
	fmov        d1,x1
	mov         x9,x25
	fmov        d0,x0
	blr         xip0
	mov         x0,x8
	mov         sp,fp
	ldp         fp,lr,[sp],#0x10
	ldr         x25,[sp,#0x20]
	ldp         x21,x22,[sp,#0x10]
	ldp         x19,x20,[sp],#0x30
	autibsp
	ret

	ENDP  ; |$iexit_thunk$cdecl$i8$varargs|

; Function compile flags: /Ogtp

	AREA	|.wowthk$aa|, CODE, ARM64

|$iexit_thunk$cdecl$i8$v| PROC
|$LN4|
	pacibsp
	stp         fp,lr,[sp,#-0x10]!
	mov         fp,sp
	sub         sp,sp,#0x20
	adrp        x8,__os_arm64x_dispatch_call_no_redirect
	ldr         xip0,[x8,__os_arm64x_dispatch_call_no_redirect]
	blr         xip0
	mov         x0,x8
	add         sp,sp,#0x20
	ldp         fp,lr,[sp],#0x10
	autibsp
	ret

	ENDP  ; |$iexit_thunk$cdecl$i8$v|

; Function compile flags: /Ogtp

	AREA	|.wowthk$aa|, CODE, ARM64

|$iexit_thunk$cdecl$i8$m16i8i8i8i8| PROC
|$LN4|
	pacibsp
	stp         fp,lr,[sp,#-0x20]!
	mov         fp,sp
	sub         sp,sp,#0x30
	adrp        x8,__os_arm64x_dispatch_call_no_redirect
	ldr         xip0,[x8,__os_arm64x_dispatch_call_no_redirect]
	stp         x0,x1,[sp,#0x40]
	mov         x1,x2
	str         x5,[sp,#0x20]
	mov         x2,x3
	mov         x3,x4
	add         x0,sp,#0x40
	blr         xip0
	mov         x0,x8
	add         sp,sp,#0x30
	ldp         fp,lr,[sp],#0x20
	autibsp
	ret

	ENDP  ; |$iexit_thunk$cdecl$i8$m16i8i8i8i8|

; Function compile flags: /Ogtp

	AREA	|.wowthk$aa|, CODE, ARM64

|$iexit_thunk$cdecl$i8$m16i8i8| PROC
|$LN4|
	pacibsp
	stp         fp,lr,[sp,#-0x20]!
	mov         fp,sp
	sub         sp,sp,#0x20
	adrp        x8,__os_arm64x_dispatch_call_no_redirect
	ldr         xip0,[x8,__os_arm64x_dispatch_call_no_redirect]
	stp         x0,x1,[sp,#0x30]
	mov         x1,x2
	mov         x2,x3
	add         x0,sp,#0x30
	blr         xip0
	mov         x0,x8
	add         sp,sp,#0x20
	ldp         fp,lr,[sp],#0x20
	autibsp
	ret

	ENDP  ; |$iexit_thunk$cdecl$i8$m16i8i8|

; Function compile flags: /Ogtp

	AREA	|.wowthk$aa|, CODE, ARM64

|$iexit_thunk$cdecl$i8$i8i8i8i8i8i8i8i8i8i8| PROC
|$LN4|
	pacibsp
	stp         fp,lr,[sp,#-0x10]!
	mov         fp,sp
	sub         sp,sp,#0x50
	ldr         x8,[sp,#0x68]
	stp         x6,x7,[sp,#0x30]
	stp         x4,x5,[sp,#0x20]
	str         x8,[sp,#0x48]
	ldr         x8,[sp,#0x60]
	str         x8,[sp,#0x40]
	adrp        x8,__os_arm64x_dispatch_call_no_redirect
	ldr         xip0,[x8,__os_arm64x_dispatch_call_no_redirect]
	blr         xip0
	mov         x0,x8
	add         sp,sp,#0x50
	ldp         fp,lr,[sp],#0x10
	autibsp
	ret

	ENDP  ; |$iexit_thunk$cdecl$i8$i8i8i8i8i8i8i8i8i8i8|

; Function compile flags: /Ogtp

	AREA	|.wowthk$aa|, CODE, ARM64

|$iexit_thunk$cdecl$i8$i8i8i8i8i8i8i8i8i8| PROC
|$LN4|
	pacibsp
	stp         fp,lr,[sp,#-0x10]!
	mov         fp,sp
	sub         sp,sp,#0x50
	ldr         x8,[sp,#0x60]
	stp         x6,x7,[sp,#0x30]
	stp         x4,x5,[sp,#0x20]
	str         x8,[sp,#0x40]
	adrp        x8,__os_arm64x_dispatch_call_no_redirect
	ldr         xip0,[x8,__os_arm64x_dispatch_call_no_redirect]
	blr         xip0
	mov         x0,x8
	add         sp,sp,#0x50
	ldp         fp,lr,[sp],#0x10
	autibsp
	ret

	ENDP  ; |$iexit_thunk$cdecl$i8$i8i8i8i8i8i8i8i8i8|

; Function compile flags: /Ogtp

	AREA	|.wowthk$aa|, CODE, ARM64

|$iexit_thunk$cdecl$i8$i8i8i8i8i8i8i8i8| PROC
|$LN4|
	pacibsp
	stp         fp,lr,[sp,#-0x10]!
	mov         fp,sp
	sub         sp,sp,#0x40
	adrp        x8,__os_arm64x_dispatch_call_no_redirect
	ldr         xip0,[x8,__os_arm64x_dispatch_call_no_redirect]
	stp         x6,x7,[sp,#0x30]
	stp         x4,x5,[sp,#0x20]
	blr         xip0
	mov         x0,x8
	add         sp,sp,#0x40
	ldp         fp,lr,[sp],#0x10
	autibsp
	ret

	ENDP  ; |$iexit_thunk$cdecl$i8$i8i8i8i8i8i8i8i8|

; Function compile flags: /Ogtp

	AREA	|.wowthk$aa|, CODE, ARM64

|$iexit_thunk$cdecl$i8$i8i8i8i8i8i8i8| PROC
|$LN4|
	pacibsp
	stp         fp,lr,[sp,#-0x10]!
	mov         fp,sp
	sub         sp,sp,#0x40
	adrp        x8,__os_arm64x_dispatch_call_no_redirect
	ldr         xip0,[x8,__os_arm64x_dispatch_call_no_redirect]
	str         x6,[sp,#0x30]
	stp         x4,x5,[sp,#0x20]
	blr         xip0
	mov         x0,x8
	add         sp,sp,#0x40
	ldp         fp,lr,[sp],#0x10
	autibsp
	ret

	ENDP  ; |$iexit_thunk$cdecl$i8$i8i8i8i8i8i8i8|

; Function compile flags: /Ogtp

	AREA	|.wowthk$aa|, CODE, ARM64

|$iexit_thunk$cdecl$i8$i8i8i8i8i8i8| PROC
|$LN4|
	pacibsp
	stp         fp,lr,[sp,#-0x10]!
	mov         fp,sp
	sub         sp,sp,#0x30
	adrp        x8,__os_arm64x_dispatch_call_no_redirect
	ldr         xip0,[x8,__os_arm64x_dispatch_call_no_redirect]
	stp         x4,x5,[sp,#0x20]
	blr         xip0
	mov         x0,x8
	add         sp,sp,#0x30
	ldp         fp,lr,[sp],#0x10
	autibsp
	ret

	ENDP  ; |$iexit_thunk$cdecl$i8$i8i8i8i8i8i8|

; Function compile flags: /Ogtp

	AREA	|.wowthk$aa|, CODE, ARM64

|$iexit_thunk$cdecl$i8$i8i8i8i8i8| PROC
|$LN4|
	pacibsp
	stp         fp,lr,[sp,#-0x10]!
	mov         fp,sp
	sub         sp,sp,#0x30
	adrp        x8,__os_arm64x_dispatch_call_no_redirect
	ldr         xip0,[x8,__os_arm64x_dispatch_call_no_redirect]
	str         x4,[sp,#0x20]
	blr         xip0
	mov         x0,x8
	add         sp,sp,#0x30
	ldp         fp,lr,[sp],#0x10
	autibsp
	ret

	ENDP  ; |$iexit_thunk$cdecl$i8$i8i8i8i8i8|

; Function compile flags: /Ogtp

	AREA	|.wowthk$aa|, CODE, ARM64

|$iexit_thunk$cdecl$i8$i8i8i8i8| PROC
|$LN4|
	pacibsp
	stp         fp,lr,[sp,#-0x10]!
	mov         fp,sp
	sub         sp,sp,#0x20
	adrp        x8,__os_arm64x_dispatch_call_no_redirect
	ldr         xip0,[x8,__os_arm64x_dispatch_call_no_redirect]
	blr         xip0
	mov         x0,x8
	add         sp,sp,#0x20
	ldp         fp,lr,[sp],#0x10
	autibsp
	ret

	ENDP  ; |$iexit_thunk$cdecl$i8$i8i8i8i8|

; Function compile flags: /Ogtp

	AREA	|.wowthk$aa|, CODE, ARM64

|$iexit_thunk$cdecl$i8$i8i8i8| PROC
|$LN4|
	pacibsp
	stp         fp,lr,[sp,#-0x10]!
	mov         fp,sp
	sub         sp,sp,#0x20
	adrp        x8,__os_arm64x_dispatch_call_no_redirect
	ldr         xip0,[x8,__os_arm64x_dispatch_call_no_redirect]
	blr         xip0
	mov         x0,x8
	add         sp,sp,#0x20
	ldp         fp,lr,[sp],#0x10
	autibsp
	ret

	ENDP  ; |$iexit_thunk$cdecl$i8$i8i8i8|

; Function compile flags: /Ogtp

	AREA	|.wowthk$aa|, CODE, ARM64

|$iexit_thunk$cdecl$i8$i8i8| PROC
|$LN4|
	pacibsp
	stp         fp,lr,[sp,#-0x10]!
	mov         fp,sp
	sub         sp,sp,#0x20
	adrp        x8,__os_arm64x_dispatch_call_no_redirect
	ldr         xip0,[x8,__os_arm64x_dispatch_call_no_redirect]
	blr         xip0
	mov         x0,x8
	add         sp,sp,#0x20
	ldp         fp,lr,[sp],#0x10
	autibsp
	ret

	ENDP  ; |$iexit_thunk$cdecl$i8$i8i8|

; Function compile flags: /Ogtp

	AREA	|.wowthk$aa|, CODE, ARM64

|$iexit_thunk$cdecl$i8$i8d| PROC
|$LN4|
	pacibsp
	stp         fp,lr,[sp,#-0x10]!
	mov         fp,sp
	sub         sp,sp,#0x20
	adrp        x8,__os_arm64x_dispatch_call_no_redirect
	ldr         xip0,[x8,__os_arm64x_dispatch_call_no_redirect]
	fmov        d1,d0
	blr         xip0
	mov         x0,x8
	add         sp,sp,#0x20
	ldp         fp,lr,[sp],#0x10
	autibsp
	ret

	ENDP  ; |$iexit_thunk$cdecl$i8$i8d|

; Function compile flags: /Ogtp

	AREA	|.wowthk$aa|, CODE, ARM64

|$iexit_thunk$cdecl$i8$i8| PROC
|$LN4|
	pacibsp
	stp         fp,lr,[sp,#-0x10]!
	mov         fp,sp
	sub         sp,sp,#0x20
	adrp        x8,__os_arm64x_dispatch_call_no_redirect
	ldr         xip0,[x8,__os_arm64x_dispatch_call_no_redirect]
	blr         xip0
	mov         x0,x8
	add         sp,sp,#0x20
	ldp         fp,lr,[sp],#0x10
	autibsp
	ret

	ENDP  ; |$iexit_thunk$cdecl$i8$i8|

; Function compile flags: /Ogtp

	AREA	|.wowthk$aa|, CODE, ARM64

|$ientry_thunk$cdecl$v$v| PROC
|$LN4|
	pacibsp
	stp         q6,q7,[sp,#-0xA0]!
	stp         q8,q9,[sp,#0x20]
	stp         q10,q11,[sp,#0x40]
	stp         q12,q13,[sp,#0x60]
	stp         q14,q15,[sp,#0x80]
	stp         fp,lr,[sp,#-0x10]!
	mov         fp,sp
	blr         x9
	ldp         fp,lr,[sp],#0x10
	ldp         q14,q15,[sp,#0x80]
	ldp         q12,q13,[sp,#0x60]
	ldp         q10,q11,[sp,#0x40]
	ldp         q8,q9,[sp,#0x20]
	ldp         q6,q7,[sp],#0xA0
	autibsp
	adrp        xip0,__os_arm64x_dispatch_ret
	ldr         xip0,[xip0,__os_arm64x_dispatch_ret]
	br          xip0

	ENDP  ; |$ientry_thunk$cdecl$v$v|

; Function compile flags: /Ogtp

	AREA	|.wowthk$aa|, CODE, ARM64

|$ientry_thunk$cdecl$v$i8i8i8| PROC
|$LN4|
	pacibsp
	stp         q6,q7,[sp,#-0xA0]!
	stp         q8,q9,[sp,#0x20]
	stp         q10,q11,[sp,#0x40]
	stp         q12,q13,[sp,#0x60]
	stp         q14,q15,[sp,#0x80]
	stp         fp,lr,[sp,#-0x10]!
	mov         fp,sp
	blr         x9
	ldp         fp,lr,[sp],#0x10
	ldp         q14,q15,[sp,#0x80]
	ldp         q12,q13,[sp,#0x60]
	ldp         q10,q11,[sp,#0x40]
	ldp         q8,q9,[sp,#0x20]
	ldp         q6,q7,[sp],#0xA0
	autibsp
	adrp        xip0,__os_arm64x_dispatch_ret
	ldr         xip0,[xip0,__os_arm64x_dispatch_ret]
	br          xip0

	ENDP  ; |$ientry_thunk$cdecl$v$i8i8i8|

; Function compile flags: /Ogtp

	AREA	|.wowthk$aa|, CODE, ARM64

|$ientry_thunk$cdecl$v$i8i8| PROC
|$LN4|
	pacibsp
	stp         q6,q7,[sp,#-0xA0]!
	stp         q8,q9,[sp,#0x20]
	stp         q10,q11,[sp,#0x40]
	stp         q12,q13,[sp,#0x60]
	stp         q14,q15,[sp,#0x80]
	stp         fp,lr,[sp,#-0x10]!
	mov         fp,sp
	blr         x9
	ldp         fp,lr,[sp],#0x10
	ldp         q14,q15,[sp,#0x80]
	ldp         q12,q13,[sp,#0x60]
	ldp         q10,q11,[sp,#0x40]
	ldp         q8,q9,[sp,#0x20]
	ldp         q6,q7,[sp],#0xA0
	autibsp
	adrp        xip0,__os_arm64x_dispatch_ret
	ldr         xip0,[xip0,__os_arm64x_dispatch_ret]
	br          xip0

	ENDP  ; |$ientry_thunk$cdecl$v$i8i8|

; Function compile flags: /Ogtp

	AREA	|.wowthk$aa|, CODE, ARM64

|$ientry_thunk$cdecl$v$i8| PROC
|$LN4|
	pacibsp
	stp         q6,q7,[sp,#-0xA0]!
	stp         q8,q9,[sp,#0x20]
	stp         q10,q11,[sp,#0x40]
	stp         q12,q13,[sp,#0x60]
	stp         q14,q15,[sp,#0x80]
	stp         fp,lr,[sp,#-0x10]!
	mov         fp,sp
	blr         x9
	ldp         fp,lr,[sp],#0x10
	ldp         q14,q15,[sp,#0x80]
	ldp         q12,q13,[sp,#0x60]
	ldp         q10,q11,[sp,#0x40]
	ldp         q8,q9,[sp,#0x20]
	ldp         q6,q7,[sp],#0xA0
	autibsp
	adrp        xip0,__os_arm64x_dispatch_ret
	ldr         xip0,[xip0,__os_arm64x_dispatch_ret]
	br          xip0

	ENDP  ; |$ientry_thunk$cdecl$v$i8|

; Function compile flags: /Ogtp

	AREA	|.wowthk$aa|, CODE, ARM64

|$ientry_thunk$cdecl$m12$i8i8i8| PROC
|$LN4|
	pacibsp
	str         x19,[sp,#-0xB0]!
	stp         q6,q7,[sp,#0x10]
	stp         q8,q9,[sp,#0x30]
	stp         q10,q11,[sp,#0x50]
	stp         q12,q13,[sp,#0x70]
	stp         q14,q15,[sp,#0x90]
	stp         fp,lr,[sp,#-0x10]!
	mov         fp,sp
	mov         x19,x0
	mov         x0,x1
	mov         x1,x2
	mov         x2,x3
	blr         x9
	mov         x8,x19
	str         x0,[x19]
	str         w1,[x19,#8]
	ldp         fp,lr,[sp],#0x10
	ldp         q14,q15,[sp,#0x90]
	ldp         q12,q13,[sp,#0x70]
	ldp         q10,q11,[sp,#0x50]
	ldp         q8,q9,[sp,#0x30]
	ldp         q6,q7,[sp,#0x10]
	ldr         x19,[sp],#0xB0
	autibsp
	adrp        xip0,__os_arm64x_dispatch_ret
	ldr         xip0,[xip0,__os_arm64x_dispatch_ret]
	br          xip0

	ENDP  ; |$ientry_thunk$cdecl$m12$i8i8i8|

; Function compile flags: /Ogtp

	AREA	|.wowthk$aa|, CODE, ARM64

|$ientry_thunk$cdecl$i8$varargs| PROC
|$LN4|
	pacibsp
	stp         q6,q7,[sp,#-0xA0]!
	stp         q8,q9,[sp,#0x20]
	stp         q10,q11,[sp,#0x40]
	stp         q12,q13,[sp,#0x60]
	stp         q14,q15,[sp,#0x80]
	stp         fp,lr,[sp,#-0x10]!
	mov         fp,sp
	add         x4,x4,#0x20
	mov         x5,#0
	blr         x9
	mov         x8,x0
	ldp         fp,lr,[sp],#0x10
	ldp         q14,q15,[sp,#0x80]
	ldp         q12,q13,[sp,#0x60]
	ldp         q10,q11,[sp,#0x40]
	ldp         q8,q9,[sp,#0x20]
	ldp         q6,q7,[sp],#0xA0
	autibsp
	adrp        xip0,__os_arm64x_dispatch_ret
	ldr         xip0,[xip0,__os_arm64x_dispatch_ret]
	br          xip0

	ENDP  ; |$ientry_thunk$cdecl$i8$varargs|

; Function compile flags: /Ogtp

	AREA	|.wowthk$aa|, CODE, ARM64

|$ientry_thunk$cdecl$i8$v| PROC
|$LN4|
	pacibsp
	stp         q6,q7,[sp,#-0xA0]!
	stp         q8,q9,[sp,#0x20]
	stp         q10,q11,[sp,#0x40]
	stp         q12,q13,[sp,#0x60]
	stp         q14,q15,[sp,#0x80]
	stp         fp,lr,[sp,#-0x10]!
	mov         fp,sp
	blr         x9
	mov         x8,x0
	ldp         fp,lr,[sp],#0x10
	ldp         q14,q15,[sp,#0x80]
	ldp         q12,q13,[sp,#0x60]
	ldp         q10,q11,[sp,#0x40]
	ldp         q8,q9,[sp,#0x20]
	ldp         q6,q7,[sp],#0xA0
	autibsp
	adrp        xip0,__os_arm64x_dispatch_ret
	ldr         xip0,[xip0,__os_arm64x_dispatch_ret]
	br          xip0

	ENDP  ; |$ientry_thunk$cdecl$i8$v|

; Function compile flags: /Ogtp

	AREA	|.wowthk$aa|, CODE, ARM64

|$ientry_thunk$cdecl$i8$i8i8i8i8i8| PROC
|$LN4|
	pacibsp
	stp         q6,q7,[sp,#-0xA0]!
	stp         q8,q9,[sp,#0x20]
	stp         q10,q11,[sp,#0x40]
	stp         q12,q13,[sp,#0x60]
	stp         q14,q15,[sp,#0x80]
	stp         fp,lr,[sp,#-0x10]!
	mov         fp,sp
	ldr         x4,[x4,#0x20]
	blr         x9
	mov         x8,x0
	ldp         fp,lr,[sp],#0x10
	ldp         q14,q15,[sp,#0x80]
	ldp         q12,q13,[sp,#0x60]
	ldp         q10,q11,[sp,#0x40]
	ldp         q8,q9,[sp,#0x20]
	ldp         q6,q7,[sp],#0xA0
	autibsp
	adrp        xip0,__os_arm64x_dispatch_ret
	ldr         xip0,[xip0,__os_arm64x_dispatch_ret]
	br          xip0

	ENDP  ; |$ientry_thunk$cdecl$i8$i8i8i8i8i8|

; Function compile flags: /Ogtp

	AREA	|.wowthk$aa|, CODE, ARM64

|$ientry_thunk$cdecl$i8$i8i8i8i8| PROC
|$LN4|
	pacibsp
	stp         q6,q7,[sp,#-0xA0]!
	stp         q8,q9,[sp,#0x20]
	stp         q10,q11,[sp,#0x40]
	stp         q12,q13,[sp,#0x60]
	stp         q14,q15,[sp,#0x80]
	stp         fp,lr,[sp,#-0x10]!
	mov         fp,sp
	blr         x9
	mov         x8,x0
	ldp         fp,lr,[sp],#0x10
	ldp         q14,q15,[sp,#0x80]
	ldp         q12,q13,[sp,#0x60]
	ldp         q10,q11,[sp,#0x40]
	ldp         q8,q9,[sp,#0x20]
	ldp         q6,q7,[sp],#0xA0
	autibsp
	adrp        xip0,__os_arm64x_dispatch_ret
	ldr         xip0,[xip0,__os_arm64x_dispatch_ret]
	br          xip0

	ENDP  ; |$ientry_thunk$cdecl$i8$i8i8i8i8|

; Function compile flags: /Ogtp

	AREA	|.wowthk$aa|, CODE, ARM64

|$ientry_thunk$cdecl$i8$i8i8i8| PROC
|$LN4|
	pacibsp
	stp         q6,q7,[sp,#-0xA0]!
	stp         q8,q9,[sp,#0x20]
	stp         q10,q11,[sp,#0x40]
	stp         q12,q13,[sp,#0x60]
	stp         q14,q15,[sp,#0x80]
	stp         fp,lr,[sp,#-0x10]!
	mov         fp,sp
	blr         x9
	mov         x8,x0
	ldp         fp,lr,[sp],#0x10
	ldp         q14,q15,[sp,#0x80]
	ldp         q12,q13,[sp,#0x60]
	ldp         q10,q11,[sp,#0x40]
	ldp         q8,q9,[sp,#0x20]
	ldp         q6,q7,[sp],#0xA0
	autibsp
	adrp        xip0,__os_arm64x_dispatch_ret
	ldr         xip0,[xip0,__os_arm64x_dispatch_ret]
	br          xip0

	ENDP  ; |$ientry_thunk$cdecl$i8$i8i8i8|

; Function compile flags: /Ogtp

	AREA	|.wowthk$aa|, CODE, ARM64

|$ientry_thunk$cdecl$i8$i8i8| PROC
|$LN4|
	pacibsp
	stp         q6,q7,[sp,#-0xA0]!
	stp         q8,q9,[sp,#0x20]
	stp         q10,q11,[sp,#0x40]
	stp         q12,q13,[sp,#0x60]
	stp         q14,q15,[sp,#0x80]
	stp         fp,lr,[sp,#-0x10]!
	mov         fp,sp
	blr         x9
	mov         x8,x0
	ldp         fp,lr,[sp],#0x10
	ldp         q14,q15,[sp,#0x80]
	ldp         q12,q13,[sp,#0x60]
	ldp         q10,q11,[sp,#0x40]
	ldp         q8,q9,[sp,#0x20]
	ldp         q6,q7,[sp],#0xA0
	autibsp
	adrp        xip0,__os_arm64x_dispatch_ret
	ldr         xip0,[xip0,__os_arm64x_dispatch_ret]
	br          xip0

	ENDP  ; |$ientry_thunk$cdecl$i8$i8i8|

; Function compile flags: /Ogtp

	AREA	|.wowthk$aa|, CODE, ARM64

|$ientry_thunk$cdecl$i8$i8d| PROC
|$LN4|
	pacibsp
	stp         q6,q7,[sp,#-0xA0]!
	stp         q8,q9,[sp,#0x20]
	stp         q10,q11,[sp,#0x40]
	stp         q12,q13,[sp,#0x60]
	stp         q14,q15,[sp,#0x80]
	stp         fp,lr,[sp,#-0x10]!
	mov         fp,sp
	fmov        d0,d1
	blr         x9
	mov         x8,x0
	ldp         fp,lr,[sp],#0x10
	ldp         q14,q15,[sp,#0x80]
	ldp         q12,q13,[sp,#0x60]
	ldp         q10,q11,[sp,#0x40]
	ldp         q8,q9,[sp,#0x20]
	ldp         q6,q7,[sp],#0xA0
	autibsp
	adrp        xip0,__os_arm64x_dispatch_ret
	ldr         xip0,[xip0,__os_arm64x_dispatch_ret]
	br          xip0

	ENDP  ; |$ientry_thunk$cdecl$i8$i8d|

; Function compile flags: /Ogtp

	AREA	|.wowthk$aa|, CODE, ARM64

|$ientry_thunk$cdecl$i8$i8| PROC
|$LN4|
	pacibsp
	stp         q6,q7,[sp,#-0xA0]!
	stp         q8,q9,[sp,#0x20]
	stp         q10,q11,[sp,#0x40]
	stp         q12,q13,[sp,#0x60]
	stp         q14,q15,[sp,#0x80]
	stp         fp,lr,[sp,#-0x10]!
	mov         fp,sp
	blr         x9
	mov         x8,x0
	ldp         fp,lr,[sp],#0x10
	ldp         q14,q15,[sp,#0x80]
	ldp         q12,q13,[sp,#0x60]
	ldp         q10,q11,[sp,#0x40]
	ldp         q8,q9,[sp,#0x20]
	ldp         q6,q7,[sp],#0xA0
	autibsp
	adrp        xip0,__os_arm64x_dispatch_ret
	ldr         xip0,[xip0,__os_arm64x_dispatch_ret]
	br          xip0

	ENDP  ; |$ientry_thunk$cdecl$i8$i8|

; Function compile flags: /Odsp

	AREA	|.wowthk$aa|, CODE, ARM64

|#strcmp$exit_thunk| PROC
|$LN1|
	pacibsp
	stp         fp,lr,[sp,#-0x10]!
	adrp        x9,__os_arm64x_dispatch_icall
	ldr         x9,[x9,__os_arm64x_dispatch_icall]
	adrp        x10,|$iexit_thunk$cdecl$i8$i8i8|
	add         x10,x10,|$iexit_thunk$cdecl$i8$i8i8|
	adrp        x11,strcmp
	add         x11,x11,strcmp
	blr         x9
	ldp         fp,lr,[sp],#0x10
	autibsp
	eor         x12,lr,x11
	xpaclri
	eor         x12,x12,lr
	br          x12

	ENDP  ; |#strcmp$exit_thunk|

; Function compile flags: /Odsp

	AREA	|.wowthk$aa|, CODE, ARM64

|#memset$exit_thunk| PROC
|$LN1|
	pacibsp
	stp         fp,lr,[sp,#-0x10]!
	adrp        x9,__os_arm64x_dispatch_icall
	ldr         x9,[x9,__os_arm64x_dispatch_icall]
	adrp        x10,|$iexit_thunk$cdecl$i8$i8i8i8|
	add         x10,x10,|$iexit_thunk$cdecl$i8$i8i8i8|
	adrp        x11,memset
	add         x11,x11,memset
	blr         x9
	ldp         fp,lr,[sp],#0x10
	autibsp
	eor         x12,lr,x11
	xpaclri
	eor         x12,x12,lr
	br          x12

	ENDP  ; |#memset$exit_thunk|

; Function compile flags: /Odsp

	AREA	|.wowthk$aa|, CODE, ARM64

|#memcpy$exit_thunk| PROC
|$LN1|
	pacibsp
	stp         fp,lr,[sp,#-0x10]!
	adrp        x9,__os_arm64x_dispatch_icall
	ldr         x9,[x9,__os_arm64x_dispatch_icall]
	adrp        x10,|$iexit_thunk$cdecl$i8$i8i8i8|
	add         x10,x10,|$iexit_thunk$cdecl$i8$i8i8i8|
	adrp        x11,memcpy
	add         x11,x11,memcpy
	blr         x9
	ldp         fp,lr,[sp],#0x10
	autibsp
	eor         x12,lr,x11
	xpaclri
	eor         x12,x12,lr
	br          x12

	ENDP  ; |#memcpy$exit_thunk|

; Function compile flags: /Odsp

	AREA	|.wowthk$aa|, CODE, ARM64

|#__std_terminate$exit_thunk| PROC
|$LN1|
	pacibsp
	stp         fp,lr,[sp,#-0x10]!
	adrp        x9,__os_arm64x_dispatch_icall
	ldr         x9,[x9,__os_arm64x_dispatch_icall]
	adrp        x10,|$iexit_thunk$cdecl$v$v|
	add         x10,x10,|$iexit_thunk$cdecl$v$v|
	adrp        x11,__std_terminate
	add         x11,x11,__std_terminate
	blr         x9
	ldp         fp,lr,[sp],#0x10
	autibsp
	eor         x12,lr,x11
	xpaclri
	eor         x12,x12,lr
	br          x12

	ENDP  ; |#__std_terminate$exit_thunk|

; Function compile flags: /Odsp

	AREA	|.wowthk$aa|, CODE, ARM64

|#_InterlockedOr$exit_thunk| PROC
|$LN1|
	pacibsp
	stp         fp,lr,[sp,#-0x10]!
	adrp        x9,__os_arm64x_dispatch_icall
	ldr         x9,[x9,__os_arm64x_dispatch_icall]
	adrp        x10,|$iexit_thunk$cdecl$i8$i8i8|
	add         x10,x10,|$iexit_thunk$cdecl$i8$i8i8|
	adrp        x11,_InterlockedOr
	add         x11,x11,_InterlockedOr
	blr         x9
	ldp         fp,lr,[sp],#0x10
	autibsp
	eor         x12,lr,x11
	xpaclri
	eor         x12,x12,lr
	br          x12

	ENDP  ; |#_InterlockedOr$exit_thunk|

; Function compile flags: /Odsp

	AREA	|.wowthk$aa|, CODE, ARM64

|#_InterlockedIncrement_nf$exit_thunk| PROC
|$LN1|
	pacibsp
	stp         fp,lr,[sp,#-0x10]!
	adrp        x9,__os_arm64x_dispatch_icall
	ldr         x9,[x9,__os_arm64x_dispatch_icall]
	adrp        x10,|$iexit_thunk$cdecl$i8$i8|
	add         x10,x10,|$iexit_thunk$cdecl$i8$i8|
	adrp        x11,_InterlockedIncrement_nf
	add         x11,x11,_InterlockedIncrement_nf
	blr         x9
	ldp         fp,lr,[sp],#0x10
	autibsp
	eor         x12,lr,x11
	xpaclri
	eor         x12,x12,lr
	br          x12

	ENDP  ; |#_InterlockedIncrement_nf$exit_thunk|

; Function compile flags: /Odsp

	AREA	|.wowthk$aa|, CODE, ARM64

|#_InterlockedIncrement$exit_thunk| PROC
|$LN1|
	pacibsp
	stp         fp,lr,[sp,#-0x10]!
	adrp        x9,__os_arm64x_dispatch_icall
	ldr         x9,[x9,__os_arm64x_dispatch_icall]
	adrp        x10,|$iexit_thunk$cdecl$i8$i8|
	add         x10,x10,|$iexit_thunk$cdecl$i8$i8|
	adrp        x11,_InterlockedIncrement
	add         x11,x11,_InterlockedIncrement
	blr         x9
	ldp         fp,lr,[sp],#0x10
	autibsp
	eor         x12,lr,x11
	xpaclri
	eor         x12,x12,lr
	br          x12

	ENDP  ; |#_InterlockedIncrement$exit_thunk|

; Function compile flags: /Odsp

	AREA	|.wowthk$aa|, CODE, ARM64

|#_InterlockedExchange$exit_thunk| PROC
|$LN1|
	pacibsp
	stp         fp,lr,[sp,#-0x10]!
	adrp        x9,__os_arm64x_dispatch_icall
	ldr         x9,[x9,__os_arm64x_dispatch_icall]
	adrp        x10,|$iexit_thunk$cdecl$i8$i8i8|
	add         x10,x10,|$iexit_thunk$cdecl$i8$i8i8|
	adrp        x11,_InterlockedExchange
	add         x11,x11,_InterlockedExchange
	blr         x9
	ldp         fp,lr,[sp],#0x10
	autibsp
	eor         x12,lr,x11
	xpaclri
	eor         x12,x12,lr
	br          x12

	ENDP  ; |#_InterlockedExchange$exit_thunk|

; Function compile flags: /Odsp

	AREA	|.wowthk$aa|, CODE, ARM64

|#_InterlockedDecrement_rel$exit_thunk| PROC
|$LN1|
	pacibsp
	stp         fp,lr,[sp,#-0x10]!
	adrp        x9,__os_arm64x_dispatch_icall
	ldr         x9,[x9,__os_arm64x_dispatch_icall]
	adrp        x10,|$iexit_thunk$cdecl$i8$i8|
	add         x10,x10,|$iexit_thunk$cdecl$i8$i8|
	adrp        x11,_InterlockedDecrement_rel
	add         x11,x11,_InterlockedDecrement_rel
	blr         x9
	ldp         fp,lr,[sp],#0x10
	autibsp
	eor         x12,lr,x11
	xpaclri
	eor         x12,x12,lr
	br          x12

	ENDP  ; |#_InterlockedDecrement_rel$exit_thunk|

; Function compile flags: /Odsp

	AREA	|.wowthk$aa|, CODE, ARM64

|#_InterlockedDecrement$exit_thunk| PROC
|$LN1|
	pacibsp
	stp         fp,lr,[sp,#-0x10]!
	adrp        x9,__os_arm64x_dispatch_icall
	ldr         x9,[x9,__os_arm64x_dispatch_icall]
	adrp        x10,|$iexit_thunk$cdecl$i8$i8|
	add         x10,x10,|$iexit_thunk$cdecl$i8$i8|
	adrp        x11,_InterlockedDecrement
	add         x11,x11,_InterlockedDecrement
	blr         x9
	ldp         fp,lr,[sp],#0x10
	autibsp
	eor         x12,lr,x11
	xpaclri
	eor         x12,x12,lr
	br          x12

	ENDP  ; |#_InterlockedDecrement$exit_thunk|

; Function compile flags: /Odsp

	AREA	|.wowthk$aa|, CODE, ARM64

|#_CxxThrowException$exit_thunk| PROC
|$LN1|
	pacibsp
	stp         fp,lr,[sp,#-0x10]!
	adrp        x9,__os_arm64x_dispatch_icall
	ldr         x9,[x9,__os_arm64x_dispatch_icall]
	adrp        x10,|$iexit_thunk$cdecl$v$i8i8|
	add         x10,x10,|$iexit_thunk$cdecl$v$i8i8|
	adrp        x11,_CxxThrowException
	add         x11,x11,_CxxThrowException
	blr         x9
	ldp         fp,lr,[sp],#0x10
	autibsp
	eor         x12,lr,x11
	xpaclri
	eor         x12,x12,lr
	br          x12

	ENDP  ; |#_CxxThrowException$exit_thunk|

	END
