; Listing generated by Microsoft (R) Optimizing Compiler Version 19.44.35216.0 

	TTL	g:\github\microsoft\low-latency-audio\src\vsfiles\intermediate\usbasio\arm64ec\release\dllmain.obj
	;ARM64

	AREA	|.drectve|, DRECTVE

	EXPORT	|??_R0?AUIClassFactory@@@8| [ DATA ]	; IClassFactory `RTTI Type Descriptor'
	EXPORT	|??_R3IUnknown@@8| [ DATA ]		; IUnknown::`RTTI Class Hierarchy Descriptor'
	EXPORT	|??_R0?AUIUnknown@@@8| [ DATA ]		; IUnknown `RTTI Type Descriptor'
	EXPORT	|?s_Locked@CClassFactory@@0JA| [ DATA ]	; CClassFactory::s_Locked
	EXPORT	|??_R2CClassFactory@@8| [ DATA ]	; CClassFactory::`RTTI Base Class Array'
	EXPORT	|??_R3IClassFactory@@8| [ DATA ]	; IClassFactory::`RTTI Class Hierarchy Descriptor'
	EXPORT	|??_R1A@?0A@EA@IClassFactory@@8| [ DATA ] ; IClassFactory::`RTTI Base Class Descriptor at (0,-1,0,64)'
	EXPORT	|??_R1A@?0A@EA@CClassFactory@@8| [ DATA ] ; CClassFactory::`RTTI Base Class Descriptor at (0,-1,0,64)'
	EXPORT	|??_R2IClassFactory@@8| [ DATA ]	; IClassFactory::`RTTI Base Class Array'
	EXPORT	|??_R4CClassFactory@@6B@| [ DATA ]	; CClassFactory::`RTTI Complete Object Locator'
	EXPORT	|??_R0?AVCClassFactory@@@8| [ DATA ]	; CClassFactory `RTTI Type Descriptor'
	EXPORT	|??_R2IUnknown@@8| [ DATA ]		; IUnknown::`RTTI Base Class Array'
	EXPORT	|??_R1A@?0A@EA@IUnknown@@8| [ DATA ]	; IUnknown::`RTTI Base Class Descriptor at (0,-1,0,64)'
	EXPORT	|??_R3CClassFactory@@8| [ DATA ]	; CClassFactory::`RTTI Class Hierarchy Descriptor'
	EXPORT	|??_7CClassFactory@@6B@| [ DATA ]	; CClassFactory::`vftable'
	IMPORT	|IID_IClassFactory|
	IMPORT	|??2@$$hYAPEAX_K@Z|			; operator new

	AREA	|.bss|, NOINIT
|?s_Locked@CClassFactory@@0JA| % 0x4			; CClassFactory::s_Locked

	AREA	|.rdata|, DATA, READONLY
|??_7CClassFactory@@6B@| DCQ |??_R4CClassFactory@@6B@|, 0 ; CClassFactory::`vftable'
	DCQ	|?QueryInterface@CClassFactory@@UEAAJAEBU_GUID@@PEAPEAX@Z|, 0
	DCQ	|?AddRef@CClassFactory@@UEAAKXZ|, 0
	DCQ	|?Release@CClassFactory@@UEAAKXZ|, 0
	DCQ	|?CreateInstance@CClassFactory@@UEAAJPEAUIUnknown@@AEBU_GUID@@PEAPEAX@Z|, 0
	DCQ	|?LockServer@CClassFactory@@UEAAJH@Z|, 0
	DCQ	|??_ECClassFactory@@UEAAPEAXI@Z|, 0

	AREA	|.rdata$r|, DATA, READONLY
|??_R3CClassFactory@@8| DCD 0x0				; CClassFactory::`RTTI Class Hierarchy Descriptor'
	DCD	0x0
	DCD	0x3
	DCD	|??_R2CClassFactory@@8|

	AREA	|.rdata$r|, DATA, READONLY
|??_R1A@?0A@EA@IUnknown@@8| DCD |??_R0?AUIUnknown@@@8|	; IUnknown::`RTTI Base Class Descriptor at (0,-1,0,64)'
	DCD	0x0
	DCD	0x0
	DCD	0xffffffff
	DCD	0x0
	DCD	0x40
	DCD	|??_R3IUnknown@@8|

	AREA	|.rdata$r|, DATA, READONLY
|??_R2IUnknown@@8| DCD |??_R1A@?0A@EA@IUnknown@@8|	; IUnknown::`RTTI Base Class Array'
	%	3

	AREA	|.data$rs|, DATA
|??_R0?AVCClassFactory@@@8| DCQ |??_7type_info@@6B@|, 0	; CClassFactory `RTTI Type Descriptor'
	DCQ	0x0000000000000000
	DCB	".?AVCClassFactory@@", 0x0

	AREA	|.rdata$r|, DATA, READONLY
|??_R4CClassFactory@@6B@| DCD 0x1			; CClassFactory::`RTTI Complete Object Locator'
	DCD	0x0
	DCD	0x0
	DCD	|??_R0?AVCClassFactory@@@8|
	DCD	|??_R3CClassFactory@@8|
	DCD	|??_R4CClassFactory@@6B@|

	AREA	|.rdata$r|, DATA, READONLY
|??_R2IClassFactory@@8| DCD |??_R1A@?0A@EA@IClassFactory@@8| ; IClassFactory::`RTTI Base Class Array'
	DCD	|??_R1A@?0A@EA@IUnknown@@8|
	%	3

	AREA	|.rdata$r|, DATA, READONLY
|??_R1A@?0A@EA@CClassFactory@@8| DCD |??_R0?AVCClassFactory@@@8| ; CClassFactory::`RTTI Base Class Descriptor at (0,-1,0,64)'
	DCD	0x2
	DCD	0x0
	DCD	0xffffffff
	DCD	0x0
	DCD	0x40
	DCD	|??_R3CClassFactory@@8|

	AREA	|.rdata$r|, DATA, READONLY
|??_R1A@?0A@EA@IClassFactory@@8| DCD |??_R0?AUIClassFactory@@@8| ; IClassFactory::`RTTI Base Class Descriptor at (0,-1,0,64)'
	DCD	0x1
	DCD	0x0
	DCD	0xffffffff
	DCD	0x0
	DCD	0x40
	DCD	|??_R3IClassFactory@@8|

	AREA	|.rdata$r|, DATA, READONLY
|??_R3IClassFactory@@8| DCD 0x0				; IClassFactory::`RTTI Class Hierarchy Descriptor'
	DCD	0x0
	DCD	0x2
	DCD	|??_R2IClassFactory@@8|

	AREA	|.rdata$r|, DATA, READONLY
|??_R2CClassFactory@@8| DCD |??_R1A@?0A@EA@CClassFactory@@8| ; CClassFactory::`RTTI Base Class Array'
	DCD	|??_R1A@?0A@EA@IClassFactory@@8|
	DCD	|??_R1A@?0A@EA@IUnknown@@8|
	%	3

	AREA	|.data$rs|, DATA
|??_R0?AUIUnknown@@@8| DCQ |??_7type_info@@6B@|, 0	; IUnknown `RTTI Type Descriptor'
	DCQ	0x0000000000000000
	DCB	".?AUIUnknown@@", 0x0

	AREA	|.rdata$r|, DATA, READONLY
|??_R3IUnknown@@8| DCD 0x0				; IUnknown::`RTTI Class Hierarchy Descriptor'
	DCD	0x0
	DCD	0x1
	DCD	|??_R2IUnknown@@8|

	AREA	|.data$rs|, DATA
|??_R0?AUIClassFactory@@@8| DCQ |??_7type_info@@6B@|, 0	; IClassFactory `RTTI Type Descriptor'
	DCQ	0x0000000000000000
	DCB	".?AUIClassFactory@@", 0x0
	EXPORT	|??2$exit_thunk@$$hYAPEAX_K@Z|		;  ?? ::Z::$$hYAPEAX_K::$exit_thunk::operator new
	EXPORT	|#DllUnregisterServer|
	EXPORT	|#DllRegisterServer|
	EXPORT	|#DllCanUnloadNow|
	EXPORT	|?__autoclassinit2@CClassFactory@@$$hQEAAX_K@Z| ; CClassFactory::__autoclassinit2
	EXPORT	|#DllGetClassObject|
	EXPORT	|#DllMain|
	EXPORT	|?IsLocked@CClassFactory@@$$hSAHXZ|	; CClassFactory::IsLocked
	EXPORT	|?LockServer@CClassFactory@@$$hUEAAJH@Z| ; CClassFactory::LockServer
	EXPORT	|?CreateInstance@CClassFactory@@$$hUEAAJPEAUIUnknown@@AEBU_GUID@@PEAPEAX@Z| ; CClassFactory::CreateInstance
	EXPORT	|?Release@CClassFactory@@$$hUEAAKXZ|	; CClassFactory::Release
	EXPORT	|?AddRef@CClassFactory@@$$hUEAAKXZ|	; CClassFactory::AddRef
	EXPORT	|?QueryInterface@CClassFactory@@$$hUEAAJAEBU_GUID@@PEAPEAX@Z| ; CClassFactory::QueryInterface
	EXPORT	|??1CClassFactory@@$$hUEAA@XZ|		; CClassFactory::~CClassFactory
	EXPORT	|??0IUnknown@@$$hQEAA@XZ|		; IUnknown::IUnknown
	EXPORT	|??0IClassFactory@@$$hQEAA@XZ|		; IClassFactory::IClassFactory
	EXPORT	|??_GCClassFactory@@$$hUEAAPEAXI@Z|	; CClassFactory::`scalar deleting destructor'
	EXPORT	|??0CClassFactory@@$$hQEAA@PEBVCFactoryTemplate@@@Z| ; CClassFactory::CClassFactory
	EXPORT	|?CreateInstance@CFactoryTemplate@@$$hQEBAPEAVCUnknown@@PEAUIUnknown@@PEAJ@Z| ; CFactoryTemplate::CreateInstance
	EXPORT	|?IsClassID@CFactoryTemplate@@$$hQEBAHAEBU_GUID@@@Z| ; CFactoryTemplate::IsClassID
	EXPORT	|?ObjectsActive@CBaseObject@@$$hSAJXZ|	; CBaseObject::ObjectsActive
	EXPORT	|#!=|
	IMPORT	|??_ECClassFactory@@$$hUEAAPEAXI@Z|, WEAK |??_GCClassFactory@@$$hUEAAPEAXI@Z| ; CClassFactory::`vector deleting destructor', CClassFactory::`scalar deleting destructor'
	IMPORT	|!=|
	IMPORT	|?ObjectsActive@CBaseObject@@SAJXZ|	; CBaseObject::ObjectsActive
	IMPORT	|?IsClassID@CFactoryTemplate@@QEBAHAEBU_GUID@@@Z| ; CFactoryTemplate::IsClassID
	IMPORT	|?CreateInstance@CFactoryTemplate@@QEBAPEAVCUnknown@@PEAUIUnknown@@PEAJ@Z| ; CFactoryTemplate::CreateInstance
	IMPORT	|??0CClassFactory@@QEAA@PEBVCFactoryTemplate@@@Z| ; CClassFactory::CClassFactory
	IMPORT	|??_GCClassFactory@@UEAAPEAXI@Z|	; CClassFactory::`scalar deleting destructor'
	IMPORT	|??0IClassFactory@@QEAA@XZ|		; IClassFactory::IClassFactory
	IMPORT	|??0IUnknown@@QEAA@XZ|			; IUnknown::IUnknown
	IMPORT	|??1CClassFactory@@UEAA@XZ|		; CClassFactory::~CClassFactory
	IMPORT	|?QueryInterface@CClassFactory@@UEAAJAEBU_GUID@@PEAPEAX@Z| ; CClassFactory::QueryInterface
	IMPORT	|?AddRef@CClassFactory@@UEAAKXZ|	; CClassFactory::AddRef
	IMPORT	|?Release@CClassFactory@@UEAAKXZ|	; CClassFactory::Release
	IMPORT	|?CreateInstance@CClassFactory@@UEAAJPEAUIUnknown@@AEBU_GUID@@PEAPEAX@Z| ; CClassFactory::CreateInstance
	IMPORT	|?LockServer@CClassFactory@@UEAAJH@Z|	; CClassFactory::LockServer
	IMPORT	|?IsLocked@CClassFactory@@SAHXZ|	; CClassFactory::IsLocked
	IMPORT	|DllMain|
	IMPORT	|DllGetClassObject|
	IMPORT	|?__autoclassinit2@CClassFactory@@QEAAX_K@Z| ; CClassFactory::__autoclassinit2
	IMPORT	|DllCanUnloadNow|
	IMPORT	|DllRegisterServer|
	IMPORT	|DllUnregisterServer|
	IMPORT	|??_ECClassFactory@@UEAAPEAXI@Z|	; CClassFactory::`vector deleting destructor'

	AREA	|.pdata|, PDATA
|$pdata$??2$exit_thunk@$$hYAPEAX_K@Z| DCD |$LN1|
	DCD	|$unwind$??2$exit_thunk@$$hYAPEAX_K@Z|

	AREA	|.pdata|, PDATA
|$pdata$#DllUnregisterServer| DCD |$LN12|
	DCD	|$unwind$#DllUnregisterServer|

	AREA	|.pdata|, PDATA
|$pdata$0$#DllUnregisterServer| DCD |$LN12|+36
	DCD	|$unwind$0$#DllUnregisterServer|

	AREA	|.pdata|, PDATA
|$pdata$1$#DllUnregisterServer| DCD |$LN12|+128
	DCD	|$unwind$1$#DllUnregisterServer|

	AREA	|.pdata|, PDATA
|$pdata$#DllRegisterServer| DCD |$LN105|
	DCD	|$unwind$#DllRegisterServer|

	AREA	|.pdata|, PDATA
|$pdata$#DllGetClassObject| DCD |$LN55|
	DCD	|$unwind$#DllGetClassObject|

	AREA	|.pdata|, PDATA
|$pdata$?LockServer@CClassFactory@@$$hUEAAJH@Z| DCD |$LN8|
	DCD	|$unwind$?LockServer@CClassFactory@@$$hUEAAJH@Z|

	AREA	|.pdata|, PDATA
|$pdata$?CreateInstance@CClassFactory@@$$hUEAAJPEAUIUnknown@@AEBU_GUID@@PEAPEAX@Z| DCD |$LN25|
	DCD	|$unwind$?CreateInstance@CClassFactory@@$$hUEAAJPEAUIUnknown@@AEBU_GUID@@PEAPEAX@Z|

	AREA	|.pdata|, PDATA
|$pdata$0$?CreateInstance@CClassFactory@@$$hUEAAJPEAUIUnknown@@AEBU_GUID@@PEAPEAX@Z| DCD |$LN25|+44
	DCD	|$unwind$0$?CreateInstance@CClassFactory@@$$hUEAAJPEAUIUnknown@@AEBU_GUID@@PEAPEAX@Z|

	AREA	|.pdata|, PDATA
|$pdata$1$?CreateInstance@CClassFactory@@$$hUEAAJPEAUIUnknown@@AEBU_GUID@@PEAPEAX@Z| DCD |$LN25|+152
	DCD	|$unwind$1$?CreateInstance@CClassFactory@@$$hUEAAJPEAUIUnknown@@AEBU_GUID@@PEAPEAX@Z|

	AREA	|.pdata|, PDATA
|$pdata$2$?CreateInstance@CClassFactory@@$$hUEAAJPEAUIUnknown@@AEBU_GUID@@PEAPEAX@Z| DCD |$LN25|+164
	DCD	|$unwind$2$?CreateInstance@CClassFactory@@$$hUEAAJPEAUIUnknown@@AEBU_GUID@@PEAPEAX@Z|

	AREA	|.pdata|, PDATA
|$pdata$3$?CreateInstance@CClassFactory@@$$hUEAAJPEAUIUnknown@@AEBU_GUID@@PEAPEAX@Z| DCD |$LN25|+220
	DCD	|$unwind$3$?CreateInstance@CClassFactory@@$$hUEAAJPEAUIUnknown@@AEBU_GUID@@PEAPEAX@Z|

	AREA	|.pdata|, PDATA
|$pdata$4$?CreateInstance@CClassFactory@@$$hUEAAJPEAUIUnknown@@AEBU_GUID@@PEAPEAX@Z| DCD |$LN25|+232
	DCD	|$unwind$4$?CreateInstance@CClassFactory@@$$hUEAAJPEAUIUnknown@@AEBU_GUID@@PEAPEAX@Z|

	AREA	|.pdata|, PDATA
|$pdata$5$?CreateInstance@CClassFactory@@$$hUEAAJPEAUIUnknown@@AEBU_GUID@@PEAPEAX@Z| DCD |$LN25|+380
	DCD	|$unwind$5$?CreateInstance@CClassFactory@@$$hUEAAJPEAUIUnknown@@AEBU_GUID@@PEAPEAX@Z|

	AREA	|.pdata|, PDATA
|$pdata$?Release@CClassFactory@@$$hUEAAKXZ| DCD |$LN10|
	DCD	|$unwind$?Release@CClassFactory@@$$hUEAAKXZ|

	AREA	|.pdata|, PDATA
|$pdata$?QueryInterface@CClassFactory@@$$hUEAAJAEBU_GUID@@PEAPEAX@Z| DCD |$LN21|
	DCD	|$unwind$?QueryInterface@CClassFactory@@$$hUEAAJAEBU_GUID@@PEAPEAX@Z|

	AREA	|.pdata|, PDATA
|$pdata$0$??_GCClassFactory@@$$hUEAAPEAXI@Z| DCD |$LN12|+16
	DCD	|$unwind$0$??_GCClassFactory@@$$hUEAAPEAXI@Z|

	AREA	|.pdata|, PDATA
|$pdata$?CreateInstance@CFactoryTemplate@@$$hQEBAPEAVCUnknown@@PEAUIUnknown@@PEAJ@Z| DCD |$LN6|
	DCD	0xe00039
	;Flags[SingleProEpi] functionLength[56] RegF[0] RegI[0] H[0] frameChainReturn[Chained] frameSize[16]

	AREA	|.xdata|, DATA
|$unwind$0$??_GCClassFactory@@$$hUEAAPEAXI@Z| DCD 0x10400009
	DCD	0x400007
	DCD	0x1d481e1
	DCD	0xe3e3e4e5
	;Code Words[2], Epilog Count[1], E[0], X[0], Function Length[9]=36 bytes
	;Epilog Start Index[1], Epilog Start Offset[7]=28 bytes
	;set_fp
	;save_fplr_x
	;save_reg_x
	;end_c
	;end
	;nop
	;nop

	AREA	|.xdata|, DATA
|$unwind$?QueryInterface@CClassFactory@@$$hUEAAJAEBU_GUID@@PEAPEAX@Z| DCD 0x8800037
	DCD	0x400028
	DCD	0x400034
	DCD	0xe3e481e1
	;Code Words[1], Epilog Count[2], E[0], X[0], Function Length[55]=220 bytes
	;Epilog Start Index[1], Epilog Start Offset[40]=160 bytes
	;Epilog Start Index[1], Epilog Start Offset[52]=208 bytes
	;set_fp
	;save_fplr_x
	;end
	;nop

	AREA	|.xdata|, DATA
|$unwind$?Release@CClassFactory@@$$hUEAAKXZ| DCD 0x8800015
	DCD	0x400010
	DCD	0x400013
	DCD	0xe3e481e1
	;Code Words[1], Epilog Count[2], E[0], X[0], Function Length[21]=84 bytes
	;Epilog Start Index[1], Epilog Start Offset[16]=64 bytes
	;Epilog Start Index[1], Epilog Start Offset[19]=76 bytes
	;set_fp
	;save_fplr_x
	;end
	;nop

	AREA	|.xdata|, DATA
|$unwind$5$?CreateInstance@CClassFactory@@$$hUEAAJPEAUIUnknown@@AEBU_GUID@@PEAPEAX@Z| DCD 0x10500006
	DCD	0x1400000
	DCD	0x85e101e5
	DCD	0xe48501e4
	DCD	|#__GSHandlerCheck|
	DCD	0xffffffc8
	;Code Words[2], Epilog Count[1], E[0], X[1], Function Length[6]=24 bytes
	;Epilog Start Index[5], Epilog Start Offset[0]=0 bytes
	;end_c
	;alloc_s
	;set_fp
	;save_fplr_x
	;end
	;alloc_s
	;save_fplr_x
	;end

	AREA	|.xdata|, DATA
|$unwind$4$?CreateInstance@CClassFactory@@$$hUEAAJPEAUIUnknown@@AEBU_GUID@@PEAPEAX@Z| DCD 0x18500025
	DCD	0x400023
	DCD	0xc886c8e5
	DCD	0x85e10104
	DCD	0xe3e3e3e4
	DCD	|#__GSHandlerCheck|
	DCD	0xffffffc8
	;Code Words[3], Epilog Count[1], E[0], X[1], Function Length[37]=148 bytes
	;Epilog Start Index[1], Epilog Start Offset[35]=140 bytes
	;end_c
	;save_regp
	;save_regp
	;alloc_s
	;set_fp
	;save_fplr_x
	;end
	;nop
	;nop
	;nop

	AREA	|.xdata|, DATA
|$unwind$3$?CreateInstance@CClassFactory@@$$hUEAAJPEAUIUnknown@@AEBU_GUID@@PEAPEAX@Z| DCD 0x11700003
	DCD	0x85e101e5
	DCD	0xe48501e4
	DCD	|#__GSHandlerCheck|
	DCD	0xffffffc8
	;Code Words[2], Epilog Start Index[5], E[1], X[1], Function Length[3]=12 bytes
	;end_c
	;alloc_s
	;set_fp
	;save_fplr_x
	;end
	;alloc_s
	;save_fplr_x
	;end

	AREA	|.xdata|, DATA
|$unwind$2$?CreateInstance@CClassFactory@@$$hUEAAJPEAUIUnknown@@AEBU_GUID@@PEAPEAX@Z| DCD 0x1850000e
	DCD	0x40000c
	DCD	0xc886c8e5
	DCD	0x85e10104
	DCD	0xe3e3e3e4
	DCD	|#__GSHandlerCheck|
	DCD	0xffffffc8
	;Code Words[3], Epilog Count[1], E[0], X[1], Function Length[14]=56 bytes
	;Epilog Start Index[1], Epilog Start Offset[12]=48 bytes
	;end_c
	;save_regp
	;save_regp
	;alloc_s
	;set_fp
	;save_fplr_x
	;end
	;nop
	;nop
	;nop

	AREA	|.xdata|, DATA
|$unwind$1$?CreateInstance@CClassFactory@@$$hUEAAJPEAUIUnknown@@AEBU_GUID@@PEAPEAX@Z| DCD 0x11700003
	DCD	0x85e101e5
	DCD	0xe48501e4
	DCD	|#__GSHandlerCheck|
	DCD	0xffffffc8
	;Code Words[2], Epilog Start Index[5], E[1], X[1], Function Length[3]=12 bytes
	;end_c
	;alloc_s
	;set_fp
	;save_fplr_x
	;end
	;alloc_s
	;save_fplr_x
	;end

	AREA	|.xdata|, DATA
|$unwind$0$?CreateInstance@CClassFactory@@$$hUEAAJPEAUIUnknown@@AEBU_GUID@@PEAPEAX@Z| DCD 0x1850001b
	DCD	0x19
	DCD	0x4c886c8
	DCD	0x85e101e5
	DCD	0xe3e3e3e4
	DCD	|#__GSHandlerCheck|
	DCD	0xffffffc8
	;Code Words[3], Epilog Count[1], E[0], X[1], Function Length[27]=108 bytes
	;Epilog Start Index[0], Epilog Start Offset[25]=100 bytes
	;save_regp
	;save_regp
	;end_c
	;alloc_s
	;set_fp
	;save_fplr_x
	;end
	;nop
	;nop
	;nop

	AREA	|.xdata|, DATA
|$unwind$?CreateInstance@CClassFactory@@$$hUEAAJPEAUIUnknown@@AEBU_GUID@@PEAPEAX@Z| DCD 0x1130000b
	DCD	0xe485e101
	DCD	0xe3e48501
	DCD	|#__GSHandlerCheck|
	DCD	0xffffffc8
	;Code Words[2], Epilog Start Index[4], E[1], X[1], Function Length[11]=44 bytes
	;alloc_s
	;set_fp
	;save_fplr_x
	;end
	;alloc_s
	;save_fplr_x
	;end
	;nop

	AREA	|.xdata|, DATA
|$unwind$?LockServer@CClassFactory@@$$hUEAAJH@Z| DCD 0x880000d
	DCD	0x400007
	DCD	0x40000b
	DCD	0xe3e481e1
	;Code Words[1], Epilog Count[2], E[0], X[0], Function Length[13]=52 bytes
	;Epilog Start Index[1], Epilog Start Offset[7]=28 bytes
	;Epilog Start Index[1], Epilog Start Offset[11]=44 bytes
	;set_fp
	;save_fplr_x
	;end
	;nop

	AREA	|.xdata|, DATA
|$unwind$#DllGetClassObject| DCD 0x9000061
	DCD	0x400028
	DCD	0x400042
	DCD	0x400056
	DCD	0x40005b
	DCD	0xe42281e1
	;Code Words[1], Epilog Count[4], E[0], X[0], Function Length[97]=388 bytes
	;Epilog Start Index[1], Epilog Start Offset[40]=160 bytes
	;Epilog Start Index[1], Epilog Start Offset[66]=264 bytes
	;Epilog Start Index[1], Epilog Start Offset[86]=344 bytes
	;Epilog Start Index[1], Epilog Start Offset[91]=364 bytes
	;set_fp
	;save_fplr_x
	;save_r19r20_x
	;end

	AREA	|.xdata|, DATA
|$unwind$#DllRegisterServer| DCD 0x3850017e
	DCD	0x3000174
	DCD	0x8d2e101
	DCD	0x84c886c9
	DCD	0xe48902c8
	DCD	0xd20167c0
	DCD	0xc886c908
	DCD	0x8902c884
	DCD	0xe3e3e3e4
	DCD	|#__GSHandlerCheck|
	DCD	0xffffffa8
	;Code Words[7], Epilog Count[1], E[0], X[1], Function Length[382]=1528 bytes
	;Epilog Start Index[12], Epilog Start Offset[372]=1488 bytes
	;alloc_s
	;set_fp
	;save_reg
	;save_regp
	;save_regp
	;save_regp
	;save_fplr_x
	;end
	;alloc_m
	;alloc_s
	;save_reg
	;save_regp
	;save_regp
	;save_regp
	;save_fplr_x
	;end
	;nop
	;nop
	;nop

	AREA	|.xdata|, DATA
|$unwind$1$#DllUnregisterServer| DCD 0x19700004
	DCD	0x83e101e5
	DCD	0x830108e4
	DCD	0xe3e3e3e4
	DCD	|#__GSHandlerCheck|
	DCD	0xffffffd8
	;Code Words[3], Epilog Start Index[5], E[1], X[1], Function Length[4]=16 bytes
	;end_c
	;alloc_s
	;set_fp
	;save_fplr_x
	;end
	;alloc_s
	;alloc_s
	;save_fplr_x
	;end
	;nop
	;nop
	;nop

	AREA	|.xdata|, DATA
|$unwind$0$#DllUnregisterServer| DCD 0x10500017
	DCD	0x16
	DCD	0x1e514d0
	DCD	0xe3e483e1
	DCD	|#__GSHandlerCheck|
	DCD	0xffffffd8
	;Code Words[2], Epilog Count[1], E[0], X[1], Function Length[23]=92 bytes
	;Epilog Start Index[0], Epilog Start Offset[22]=88 bytes
	;save_reg
	;end_c
	;alloc_s
	;set_fp
	;save_fplr_x
	;end
	;nop

	AREA	|.xdata|, DATA
|$unwind$#DllUnregisterServer| DCD 0x8100009
	DCD	0xe483e101
	DCD	|#__GSHandlerCheck|
	DCD	0xffffffd8
	;Code Words[1], Epilog Count[0], E[0], X[1], Function Length[9]=36 bytes
	;alloc_s
	;set_fp
	;save_fplr_x
	;end

	AREA	|.xdata|, DATA
|$unwind$??2$exit_thunk@$$hYAPEAX_K@Z| DCD 0x18e0000f
	DCD	0x81e4fc81
	DCD	0xe3e3e3fc
	DCD	0xe3e3e3e4
	;Code Words[3], Epilog Start Index[3], E[1], X[0], Function Length[15]=60 bytes
	;save_fplr_x
	;pac_sign_return_address
	;end
	;save_fplr_x
	;pac_sign_return_address
	;nop
	;nop
	;nop
	;end
	;nop
	;nop
	;nop
; Function compile flags: /Ogtp
; File C:\Program Files (x86)\Windows Kits\10\Include\10.0.26100.0\shared\guiddef.h

	AREA	|.text$mn|, CODE, ARM64

|#!=|	PROC

; 161  :     return !memcmp(&rguid1, &rguid2, sizeof(GUID));

	ldr         x9,[x0]
	ldr         x8,[x1]
	rev         x9,x9
	rev         x8,x8
	cmp         x9,x8
	bne         |$LN7@|
	ldr         x9,[x0,#8]
	ldr         x8,[x1,#8]
	rev         x9,x9
	rev         x8,x8
	cmp         x9,x8
	bne         |$LN7@|
	mov         w8,#0
	cmp         w8,#0

; 199  :     return !(guidOne == guidOther);

	csetne      w0
	ret
|$LN7@|

; 161  :     return !memcmp(&rguid1, &rguid2, sizeof(GUID));

	mov         w8,#-1
	cneghs      w8,w8
	cmp         w8,#0

; 199  :     return !(guidOne == guidOther);

	csetne      w0
	ret

	ENDP  ; |#!=|

; Function compile flags: /Ogtp
; File G:\Github\microsoft\low-latency-audio\src\uac2-asio\asio\combase.h

	AREA	|.text$mn|, CODE, ARM64

|?ObjectsActive@CBaseObject@@$$hSAJXZ| PROC		; CBaseObject::ObjectsActive

; 170  :         return m_cObjects;

	adrp        x8,|?m_cObjects@CBaseObject@@0JA|
	ldr         w0,[x8,|?m_cObjects@CBaseObject@@0JA|]
	ret

	ENDP  ; |?ObjectsActive@CBaseObject@@$$hSAJXZ|, CBaseObject::ObjectsActive

; Function compile flags: /Ogtp
; File G:\Github\microsoft\low-latency-audio\src\uac2-asio\asio\combase.h
; File C:\Program Files (x86)\Windows Kits\10\Include\10.0.26100.0\shared\guiddef.h
; File G:\Github\microsoft\low-latency-audio\src\uac2-asio\asio\combase.h

	AREA	|.text$mn|, CODE, ARM64

|?IsClassID@CFactoryTemplate@@$$hQEBAHAEBU_GUID@@@Z| PROC ; CFactoryTemplate::IsClassID
; File C:\Program Files (x86)\Windows Kits\10\Include\10.0.26100.0\shared\guiddef.h

; 161  :     return !memcmp(&rguid1, &rguid2, sizeof(GUID));

	ldr         x10,[x0,#8]
	ldr         x8,[x1]
	ldr         x9,[x10]
	rev         x8,x8
	rev         x9,x9
	cmp         x9,x8
	bne         |$LN5@IsClassID|
	ldr         x9,[x10,#8]
	ldr         x8,[x1,#8]
	rev         x9,x9
	rev         x8,x8
	cmp         x9,x8
	bne         |$LN5@IsClassID|
	mov         w8,#0
	cmp         w8,#0
	cseteq      w0
	ret
|$LN5@IsClassID|
	mov         w8,#-1
	cneghs      w8,w8
	cmp         w8,#0
	cseteq      w0
	ret

	ENDP  ; |?IsClassID@CFactoryTemplate@@$$hQEBAHAEBU_GUID@@@Z|, CFactoryTemplate::IsClassID

; Function compile flags: /Ogtp
; File G:\Github\microsoft\low-latency-audio\src\uac2-asio\asio\combase.h

	AREA	|.text$mn|, CODE, ARM64

|?CreateInstance@CFactoryTemplate@@$$hQEBAPEAVCUnknown@@PEAUIUnknown@@PEAJ@Z| PROC ; CFactoryTemplate::CreateInstance

; 261  :     CUnknown *CreateInstance(LPUNKNOWN pUnk, HRESULT *phr) const {

|$LN6|
	stp         fp,lr,[sp,#-0x10]!
	mov         fp,sp
	mov         x8,x0

; 262  :         return m_lpfnNew(pUnk, phr);

	ldr         x11,[x8,#0x10]
	adrp        x8,__os_arm64x_dispatch_icall
	ldr         x9,[x8,__os_arm64x_dispatch_icall]
	adrp        x8,|$iexit_thunk$cdecl$i8$i8i8|
	add         x10,x8,|$iexit_thunk$cdecl$i8$i8i8|
	mov         x0,x1
	mov         x1,x2
	blr         x9
	blr         x11
	ldp         fp,lr,[sp],#0x10
	ret

	ENDP  ; |?CreateInstance@CFactoryTemplate@@$$hQEBAPEAVCUnknown@@PEAUIUnknown@@PEAJ@Z|, CFactoryTemplate::CreateInstance

; Function compile flags: /Ogtp
; File G:\Github\microsoft\low-latency-audio\src\uac2-asio\dllmain.cpp

	AREA	|.text$mn|, CODE, ARM64

|??0CClassFactory@@$$hQEAA@PEBVCFactoryTemplate@@@Z| PROC ; CClassFactory::CClassFactory

; 80   : {

	adrp        x8,|??_7CClassFactory@@6B@|
	add         x8,x8,|??_7CClassFactory@@6B@|

; 79   :     : m_Template(factoryTemplate), m_Ref(0)

	str         wzr,[x0,#0x10]
	stp         x8,x1,[x0]
	ret

	ENDP  ; |??0CClassFactory@@$$hQEAA@PEBVCFactoryTemplate@@@Z|, CClassFactory::CClassFactory

; Function compile flags: /Ogtp

	AREA	|.text$mn|, CODE, ARM64

|??_GCClassFactory@@$$hUEAAPEAXI@Z| PROC		; CClassFactory::`scalar deleting destructor'
|$LN12|
	adrp        x8,|??_7CClassFactory@@6B@|
	add         x8,x8,|??_7CClassFactory@@6B@|
	str         x8,[x0]
	tbz         w1,#0,|$LN2@scalar|
	str         x19,[sp,#-0x10]!
	stp         fp,lr,[sp,#-0x10]!
	mov         fp,sp
	mov         x19,x0
	mov         x1,#0x18
	bl          |??3@$$hYAXPEAX_K@Z|
	mov         x0,x19
	ldp         fp,lr,[sp],#0x10
	ldr         x19,[sp],#0x10
|$LN2@scalar|
	ret

	ENDP  ; |??_GCClassFactory@@$$hUEAAPEAXI@Z|, CClassFactory::`scalar deleting destructor'

; Function compile flags: /Ogtp

	AREA	|.text$mn|, CODE, ARM64

|??0IClassFactory@@$$hQEAA@XZ| PROC			; IClassFactory::IClassFactory
	ret

	ENDP  ; |??0IClassFactory@@$$hQEAA@XZ|, IClassFactory::IClassFactory

; Function compile flags: /Ogtp

	AREA	|.text$mn|, CODE, ARM64

|??0IUnknown@@$$hQEAA@XZ| PROC				; IUnknown::IUnknown
	ret

	ENDP  ; |??0IUnknown@@$$hQEAA@XZ|, IUnknown::IUnknown

; Function compile flags: /Ogtp
; File G:\Github\microsoft\low-latency-audio\src\uac2-asio\dllmain.cpp

	AREA	|.text$mn|, CODE, ARM64

|??1CClassFactory@@$$hUEAA@XZ| PROC			; CClassFactory::~CClassFactory

; 84   : {

	adrp        x8,|??_7CClassFactory@@6B@|
	add         x8,x8,|??_7CClassFactory@@6B@|
	str         x8,[x0]
	ret

	ENDP  ; |??1CClassFactory@@$$hUEAA@XZ|, CClassFactory::~CClassFactory

; Function compile flags: /Ogtp
; File G:\Github\microsoft\low-latency-audio\src\uac2-asio\dllmain.cpp
; File C:\Program Files (x86)\Windows Kits\10\Include\10.0.26100.0\shared\guiddef.h
; File G:\Github\microsoft\low-latency-audio\src\uac2-asio\dllmain.cpp
; File C:\Program Files (x86)\Windows Kits\10\Include\10.0.26100.0\shared\guiddef.h
; File G:\Github\microsoft\low-latency-audio\src\uac2-asio\dllmain.cpp
; File C:\Program Files (x86)\Windows Kits\10\Include\10.0.26100.0\shared\guiddef.h
; File G:\Github\microsoft\low-latency-audio\src\uac2-asio\dllmain.cpp

	AREA	|.text$mn|, CODE, ARM64

|?QueryInterface@CClassFactory@@$$hUEAAJAEBU_GUID@@PEAPEAX@Z| PROC ; CClassFactory::QueryInterface

; 91   : {

|$LN21|
	stp         fp,lr,[sp,#-0x10]!
	mov         fp,sp
; File C:\Program Files (x86)\Windows Kits\10\Include\10.0.26100.0\shared\guiddef.h

; 161  :     return !memcmp(&rguid1, &rguid2, sizeof(GUID));

	adrp        x8,IID_IUnknown
	add         x11,x8,IID_IUnknown
; File G:\Github\microsoft\low-latency-audio\src\uac2-asio\dllmain.cpp

; 94   :     *ppv = nullptr;

	str         xzr,[x2]
; File C:\Program Files (x86)\Windows Kits\10\Include\10.0.26100.0\shared\guiddef.h

; 161  :     return !memcmp(&rguid1, &rguid2, sizeof(GUID));

	ldr         x9,[x1]
	ldr         x8,[x11]
	rev         x10,x9
	rev         x9,x8
	cmp         x10,x9
	mov         w8,#-1
	bne         |$LN13@QueryInter|
	ldr         x10,[x1,#8]
	ldr         x9,[x11,#8]
	rev         x10,x10
	rev         x9,x9
	cmp         x10,x9
	mov         w9,#0
	beq         |$LN14@QueryInter|
|$LN13@QueryInter|
	cneghs      w9,w8
|$LN14@QueryInter|
; File G:\Github\microsoft\low-latency-audio\src\uac2-asio\dllmain.cpp

; 96   :     if ((riid == IID_IUnknown) || (riid == IID_IClassFactory))

	cbz         w9,|$LN3@QueryInter|
; File C:\Program Files (x86)\Windows Kits\10\Include\10.0.26100.0\shared\guiddef.h

; 161  :     return !memcmp(&rguid1, &rguid2, sizeof(GUID));

	adrp        x9,IID_IClassFactory
	add         x11,x9,IID_IClassFactory
	ldr         x9,[x11]
	ldr         x10,[x1]
	rev         x9,x9
	rev         x10,x10
	cmp         x10,x9
	bne         |$LN15@QueryInter|
	ldr         x10,[x1,#8]
	ldr         x9,[x11,#8]
	rev         x10,x10
	rev         x9,x9
	cmp         x10,x9
	bne         |$LN15@QueryInter|
	mov         w8,#0
	b           |$LN16@QueryInter|
|$LN15@QueryInter|
	cneghs      w8,w8
|$LN16@QueryInter|
; File G:\Github\microsoft\low-latency-audio\src\uac2-asio\dllmain.cpp

; 96   :     if ((riid == IID_IUnknown) || (riid == IID_IClassFactory))

	cbz         w8,|$LN3@QueryInter|

; 101  :     }
; 102  : 
; 103  :     return ResultFromScode(E_NOINTERFACE);

	ldr         w0,|$LN20@QueryInter|
	ldp         fp,lr,[sp],#0x10
	ret
|$LN3@QueryInter|

; 97   :     {
; 98   :         *ppv = (LPVOID)this;

	str         x0,[x2]

; 99   :         ((LPUNKNOWN)*ppv)->AddRef();

	ldr         x8,[x0]
	ldr         x11,[x8,#8]
	adrp        x8,__os_arm64x_dispatch_icall
	ldr         x9,[x8,__os_arm64x_dispatch_icall]
	adrp        x8,|$iexit_thunk$cdecl$i8$i8|
	add         x10,x8,|$iexit_thunk$cdecl$i8$i8|
	blr         x9
	blr         x11

; 100  :         return NOERROR;

	mov         w0,#0
	ldp         fp,lr,[sp],#0x10
	ret
|$LN20@QueryInter|
	DCD         0x80004002

	ENDP  ; |?QueryInterface@CClassFactory@@$$hUEAAJAEBU_GUID@@PEAPEAX@Z|, CClassFactory::QueryInterface

; Function compile flags: /Ogtp
; File G:\Github\microsoft\low-latency-audio\src\uac2-asio\dllmain.cpp

	AREA	|.text$mn|, CODE, ARM64

|?AddRef@CClassFactory@@$$hUEAAKXZ| PROC		; CClassFactory::AddRef

; 108  : {

	mov         x8,x0

; 109  :     return ++m_Ref;

	ldr         w9,[x8,#0x10]
	add         w0,w9,#1
	str         w0,[x8,#0x10]
	ret

	ENDP  ; |?AddRef@CClassFactory@@$$hUEAAKXZ|, CClassFactory::AddRef

; Function compile flags: /Ogtp
; File G:\Github\microsoft\low-latency-audio\src\uac2-asio\dllmain.cpp

	AREA	|.text$mn|, CODE, ARM64

|?Release@CClassFactory@@$$hUEAAKXZ| PROC		; CClassFactory::Release

; 113  : {

|$LN10|
	stp         fp,lr,[sp,#-0x10]!
	mov         fp,sp

; 114  :     LONG result = 0;
; 115  : 
; 116  :     if (--m_Ref == 0)

	ldr         w8,[x0,#0x10]
	sub         w8,w8,#1
	str         w8,[x0,#0x10]
	cbnz        w8,|$LN2@Release|

; 117  :     {
; 118  :         delete this;

	ldr         x8,[x0]
	ldr         x11,[x8,#0x28]
	adrp        x8,__os_arm64x_dispatch_icall
	ldr         x9,[x8,__os_arm64x_dispatch_icall]
	adrp        x8,|$iexit_thunk$cdecl$i8$i8i8|
	add         x10,x8,|$iexit_thunk$cdecl$i8$i8i8|
	blr         x9
	mov         w1,#1
	blr         x11

; 119  :         result = 0;

	mov         w0,#0
	ldp         fp,lr,[sp],#0x10
	ret
|$LN2@Release|

; 120  :     }
; 121  :     else
; 122  :     {
; 123  :         result = m_Ref;

	mov         w0,w8
	ldp         fp,lr,[sp],#0x10
	ret

	ENDP  ; |?Release@CClassFactory@@$$hUEAAKXZ|, CClassFactory::Release

; Function compile flags: /Ogtp
; File G:\Github\microsoft\low-latency-audio\src\uac2-asio\dllmain.cpp
; File C:\Program Files (x86)\Windows Kits\10\Include\10.0.26100.0\shared\guiddef.h
; File G:\Github\microsoft\low-latency-audio\src\uac2-asio\dllmain.cpp
; File G:\Github\microsoft\low-latency-audio\src\uac2-asio\asio\combase.h
; File G:\Github\microsoft\low-latency-audio\src\uac2-asio\dllmain.cpp

	AREA	|.text$mn|, CODE, ARM64

|?CreateInstance@CClassFactory@@$$hUEAAJPEAUIUnknown@@AEBU_GUID@@PEAPEAX@Z| PROC ; CClassFactory::CreateInstance

; 134  : {

|$LN25|
	stp         fp,lr,[sp,#-0x30]!
	mov         fp,sp
	bl          |#__security_push_cookie|
	mov         x4,x0

; 135  :     HRESULT result = NOERROR;

	str         wzr,[sp]
	mov         x0,x1

; 136  : 
; 137  :     CheckPointer(object, E_POINTER);

	cbnz        x3,|$LN19@CreateInst|
	ldr         w0,|$LN22@CreateInst|
	bl          |#__security_pop_cookie|
	ldp         fp,lr,[sp],#0x30
	ret
|$LN19@CreateInst|
	stp         x19,x20,[sp,#0x20]
	stp         x21,x22,[sp,#0x30]
	mov         x21,x2
	mov         x22,x3

; 138  :     ValidateReadWritePtr(object, sizeof(void *));
; 139  : 
; 140  :     if (unknown != nullptr)

	cbz         x0,|$LN4@CreateInst|
; File C:\Program Files (x86)\Windows Kits\10\Include\10.0.26100.0\shared\guiddef.h

; 161  :     return !memcmp(&rguid1, &rguid2, sizeof(GUID));

	adrp        x8,IID_IUnknown
	add         x10,x8,IID_IUnknown
	ldr         x8,[x10]
	ldr         x9,[x21]
	rev         x8,x8
	rev         x9,x9
	cmp         x9,x8
	bne         |$LN15@CreateInst|
	ldr         x9,[x21,#8]
	ldr         x8,[x10,#8]
	rev         x9,x9
	rev         x8,x8
	cmp         x9,x8
	bne         |$LN15@CreateInst|
	mov         w8,#0
	b           |$LN16@CreateInst|
|$LN15@CreateInst|
	mov         w8,#-1
	cneghs      w8,w8
|$LN16@CreateInst|
; File G:\Github\microsoft\low-latency-audio\src\uac2-asio\dllmain.cpp

; 142  :         if (IsEqualIID(riid, IID_IUnknown) == FALSE)

	cbz         w8,|$LN4@CreateInst|

; 143  :         {
; 144  :             return ResultFromScode(E_NOINTERFACE);

	ldr         w0,|$LN23@CreateInst|
	ldp         x21,x22,[sp,#0x30]
	ldp         x19,x20,[sp,#0x20]
	bl          |#__security_pop_cookie|
	ldp         fp,lr,[sp],#0x30
	ret
|$LN4@CreateInst|
; File G:\Github\microsoft\low-latency-audio\src\uac2-asio\asio\combase.h

; 262  :         return m_lpfnNew(pUnk, phr);

	ldr         x8,[x4,#8]
	ldr         x11,[x8,#0x10]
	adrp        x8,__os_arm64x_dispatch_icall
	ldr         x20,[x8,__os_arm64x_dispatch_icall]
	adrp        x8,|$iexit_thunk$cdecl$i8$i8i8|
	add         x10,x8,|$iexit_thunk$cdecl$i8$i8i8|
	blr         x20
	mov         x1,sp
	blr         x11
	mov         x19,x0
; File G:\Github\microsoft\low-latency-audio\src\uac2-asio\dllmain.cpp

; 150  :     if (newObject == nullptr)

	cbnz        x19,|$LN5@CreateInst|

; 151  :     {
; 152  :         return E_OUTOFMEMORY;

	ldr         w0,|$LN24@CreateInst|
	ldp         x21,x22,[sp,#0x30]
	ldp         x19,x20,[sp,#0x20]
	bl          |#__security_pop_cookie|
	ldp         fp,lr,[sp],#0x30
	ret
|$LN5@CreateInst|

; 153  :     }
; 154  : 
; 155  :     if (FAILED(result))

	ldr         x9,[x19]
	ldr         w8,[sp]
	tbz         w8,#0x1F,|$LN6@CreateInst|

; 156  :     {
; 157  :         delete newObject;

	ldr         x11,[x9,#0x18]
	adrp        x8,|$iexit_thunk$cdecl$i8$i8i8|
	add         x10,x8,|$iexit_thunk$cdecl$i8$i8i8|
	blr         x20
	mov         w1,#1
	mov         x0,x19
	blr         x11

; 158  :     }

	b           |$LN7@CreateInst|
|$LN6@CreateInst|

; 159  :     else
; 160  :     {
; 161  :         newObject->NonDelegatingAddRef();

	ldr         x11,[x9,#8]
	adrp        x8,|$iexit_thunk$cdecl$i8$i8|
	add         x10,x8,|$iexit_thunk$cdecl$i8$i8|
	blr         x20
	mov         x0,x19
	blr         x11

; 162  :         result = newObject->NonDelegatingQueryInterface(riid, object);

	ldr         x8,[x19]
	ldr         x11,[x8]
	adrp        x8,|$iexit_thunk$cdecl$i8$i8i8i8|
	add         x10,x8,|$iexit_thunk$cdecl$i8$i8i8i8|
	blr         x20
	mov         x2,x22
	mov         x1,x21
	mov         x0,x19
	blr         x11
	str         w0,[sp]

; 163  :         newObject->NonDelegatingRelease();

	ldr         x8,[x19]
	ldr         x11,[x8,#0x10]
	adrp        x8,|$iexit_thunk$cdecl$i8$i8|
	add         x10,x8,|$iexit_thunk$cdecl$i8$i8|
	blr         x20
	mov         x0,x19
	blr         x11
|$LN7@CreateInst|

; 164  :         // if (SUCCEEDED(result)) {
; 165  :         // 	ASSERT(*object);
; 166  :         // }
; 167  :     }
; 168  :     return result;

	ldr         w0,[sp]
	ldp         x21,x22,[sp,#0x30]
	ldp         x19,x20,[sp,#0x20]
	bl          |#__security_pop_cookie|
	ldp         fp,lr,[sp],#0x30
	ret
|$LN22@CreateInst|
	DCD         0x80004003
|$LN23@CreateInst|
	DCD         0x80004002
|$LN24@CreateInst|
	DCD         0x8007000e

	ENDP  ; |?CreateInstance@CClassFactory@@$$hUEAAJPEAUIUnknown@@AEBU_GUID@@PEAPEAX@Z|, CClassFactory::CreateInstance

; Function compile flags: /Ogtp
; File G:\Github\microsoft\low-latency-audio\src\uac2-asio\dllmain.cpp

	AREA	|.text$mn|, CODE, ARM64

|?LockServer@CClassFactory@@$$hUEAAJH@Z| PROC		; CClassFactory::LockServer

; 174  : {

|$LN8|
	stp         fp,lr,[sp,#-0x10]!
	mov         fp,sp

; 175  :     if (fLock)

	adrp        x8,|?s_Locked@CClassFactory@@0JA|
	add         x0,x8,|?s_Locked@CClassFactory@@0JA|
	cbz         w1,|$LN2@LockServer|

; 176  :     {
; 177  :         InterlockedIncrement(&s_Locked);

	bl          |#_InterlockedIncrement|

; 182  :     }
; 183  :     return NOERROR;

	mov         w0,#0
	ldp         fp,lr,[sp],#0x10
	ret
|$LN2@LockServer|

; 178  :     }
; 179  :     else
; 180  :     {
; 181  :         InterlockedDecrement(&s_Locked);

	bl          |#_InterlockedDecrement|

; 182  :     }
; 183  :     return NOERROR;

	mov         w0,#0
	ldp         fp,lr,[sp],#0x10
	ret

	ENDP  ; |?LockServer@CClassFactory@@$$hUEAAJH@Z|, CClassFactory::LockServer

; Function compile flags: /Ogtp
; File G:\Github\microsoft\low-latency-audio\src\uac2-asio\dllmain.cpp

	AREA	|.text$mn|, CODE, ARM64

|?IsLocked@CClassFactory@@$$hSAHXZ| PROC		; CClassFactory::IsLocked

; 188  :     return (s_Locked > 0);

	adrp        x8,|?s_Locked@CClassFactory@@0JA|
	ldr         w8,[x8,|?s_Locked@CClassFactory@@0JA|]
	cmp         w8,#0
	csetgt      w0
	ret

	ENDP  ; |?IsLocked@CClassFactory@@$$hSAHXZ|, CClassFactory::IsLocked

; Function compile flags: /Ogtp
; File G:\Github\microsoft\low-latency-audio\src\uac2-asio\dllmain.cpp

	AREA	|.text$mn|, CODE, ARM64

|#DllMain| PROC

; 193  :     switch (ul_reason_for_call)
; 194  :     {
; 195  :     case DLL_PROCESS_ATTACH:
; 196  :     case DLL_THREAD_ATTACH:
; 197  :     case DLL_THREAD_DETACH:
; 198  :     case DLL_PROCESS_DETACH:
; 199  :         break;
; 200  :     }
; 201  :     return TRUE;

	mov         w0,#1
	ret

	ENDP  ; |#DllMain|

; Function compile flags: /Ogtp
; File G:\Github\microsoft\low-latency-audio\src\uac2-asio\dllmain.cpp
; File C:\Program Files (x86)\Windows Kits\10\Include\10.0.26100.0\shared\guiddef.h
; File G:\Github\microsoft\low-latency-audio\src\uac2-asio\dllmain.cpp
; File C:\Program Files (x86)\Windows Kits\10\Include\10.0.26100.0\shared\guiddef.h
; File G:\Github\microsoft\low-latency-audio\src\uac2-asio\dllmain.cpp
; File C:\Program Files (x86)\Windows Kits\10\Include\10.0.26100.0\shared\guiddef.h
; File G:\Github\microsoft\low-latency-audio\src\uac2-asio\dllmain.cpp

	AREA	|.text$mn|, CODE, ARM64

|#DllGetClassObject| PROC

; 210  : {

|$LN55|
	stp         x19,x20,[sp,#-0x10]!
	stp         fp,lr,[sp,#-0x10]!
	mov         fp,sp
; File C:\Program Files (x86)\Windows Kits\10\Include\10.0.26100.0\shared\guiddef.h

; 161  :     return !memcmp(&rguid1, &rguid2, sizeof(GUID));

	adrp        x8,IID_IUnknown
	add         x11,x8,IID_IUnknown
	ldr         x9,[x1]
	ldr         x8,[x11]
	mov         x20,x2
	rev         x10,x9
	rev         x9,x8
	cmp         x10,x9
	mov         w8,#-1
	bne         |$LN38@|
	ldr         x10,[x1,#8]
	ldr         x9,[x11,#8]
	rev         x10,x10
	rev         x9,x9
	cmp         x10,x9
	mov         w9,#0
	beq         |$LN39@|
|$LN38@|
	cneghs      w9,w8
|$LN39@|
; File G:\Github\microsoft\low-latency-audio\src\uac2-asio\dllmain.cpp

; 211  :     if ((riid != IID_IUnknown) && (riid != IID_IClassFactory))

	cbz         w9,|$LN5@|
; File C:\Program Files (x86)\Windows Kits\10\Include\10.0.26100.0\shared\guiddef.h

; 161  :     return !memcmp(&rguid1, &rguid2, sizeof(GUID));

	adrp        x9,IID_IClassFactory
	add         x11,x9,IID_IClassFactory
	ldr         x9,[x11]
	ldr         x10,[x1]
	rev         x9,x9
	rev         x10,x10
	cmp         x10,x9
	bne         |$LN40@|
	ldr         x10,[x1,#8]
	ldr         x9,[x11,#8]
	rev         x10,x10
	rev         x9,x9
	cmp         x10,x9
	mov         w9,#0
	beq         |$LN41@|
|$LN40@|
	cneghs      w9,w8
|$LN41@|
; File G:\Github\microsoft\low-latency-audio\src\uac2-asio\dllmain.cpp

; 211  :     if ((riid != IID_IUnknown) && (riid != IID_IClassFactory))

	cbz         w9,|$LN5@|

; 212  :     {
; 213  :         return E_NOINTERFACE;

	ldr         w0,|$LN52@|
	ldp         fp,lr,[sp],#0x10
	ldp         x19,x20,[sp],#0x10
	ret
|$LN5@|
	adrp        x9,|?g_Templates@@3PAVCFactoryTemplate@@A|
	add         x19,x9,|?g_Templates@@3PAVCFactoryTemplate@@A|
	add         x9,x19,#0x20
|$LL4@|
; File C:\Program Files (x86)\Windows Kits\10\Include\10.0.26100.0\shared\guiddef.h

; 161  :     return !memcmp(&rguid1, &rguid2, sizeof(GUID));

	ldr         x12,[x19,#8]
	ldr         x10,[x0]
	ldr         x11,[x12]
	rev         x10,x10
	rev         x11,x11
	cmp         x11,x10
	bne         |$LN42@|
	ldr         x11,[x12,#8]
	ldr         x10,[x0,#8]
	rev         x11,x11
	rev         x10,x10
	cmp         x11,x10
	mov         w10,#0
	beq         |$LN43@|
|$LN42@|
	cneghs      w10,w8
|$LN43@|
; File G:\Github\microsoft\low-latency-audio\src\uac2-asio\dllmain.cpp

; 219  :         if (factoryTemplate->IsClassID(rclsid))

	cbz         w10,|$LN48@|

; 214  :     }
; 215  : 
; 216  :     for (int index = 0; index < g_NumOfTemplates; index++)

	add         x19,x19,#0x20
	cmp         x19,x9
	blt         |$LL4@|

; 228  :         }
; 229  :     }
; 230  :     return CLASS_E_CLASSNOTAVAILABLE;

	ldr         w0,|$LN53@|
	ldp         fp,lr,[sp],#0x10
	ldp         x19,x20,[sp],#0x10
	ret
|$LN48@|

; 220  :         {
; 221  :             *ppv = (LPVOID)(LPUNKNOWN) new CClassFactory(factoryTemplate);

	mov         x0,#0x18
	bl          |??2@$$hYAPEAX_K@Z|
	cbz         x0,|$LN9@|

; 80   : {

	adrp        x8,|??_7CClassFactory@@6B@|
	add         x8,x8,|??_7CClassFactory@@6B@|

; 79   :     : m_Template(factoryTemplate), m_Ref(0)

	stp         wzr,wzr,[x0,#0x10]
	stp         x8,x19,[x0]

; 220  :         {
; 221  :             *ppv = (LPVOID)(LPUNKNOWN) new CClassFactory(factoryTemplate);

	str         x0,[x20]

; 225  :             }
; 226  :             ((LPUNKNOWN)*ppv)->AddRef();

	ldr         x8,[x0]
	ldr         x11,[x8,#8]
	adrp        x8,__os_arm64x_dispatch_icall
	ldr         x9,[x8,__os_arm64x_dispatch_icall]
	adrp        x8,|$iexit_thunk$cdecl$i8$i8|
	add         x10,x8,|$iexit_thunk$cdecl$i8$i8|
	blr         x9
	blr         x11

; 227  :             return NOERROR;

	mov         w0,#0
	ldp         fp,lr,[sp],#0x10
	ldp         x19,x20,[sp],#0x10
	ret
|$LN9@|

; 220  :         {
; 221  :             *ppv = (LPVOID)(LPUNKNOWN) new CClassFactory(factoryTemplate);

	str         xzr,[x20]

; 222  :             if (*ppv == nullptr)
; 223  :             {
; 224  :                 return E_OUTOFMEMORY;

	ldr         w0,|$LN54@|
	ldp         fp,lr,[sp],#0x10
	ldp         x19,x20,[sp],#0x10
	ret
|$LN52@|
	DCD         0x80004002
|$LN53@|
	DCD         0x80040111
|$LN54@|
	DCD         0x8007000e

	ENDP  ; |#DllGetClassObject|

; Function compile flags: /Ogtp

	AREA	|.text$mn|, CODE, ARM64

|?__autoclassinit2@CClassFactory@@$$hQEAAX_K@Z| PROC	; CClassFactory::__autoclassinit2
	movi        v7.16b,#0
	str         q7,[x0]
	str         d7,[x0,#0x10]
	ret

	ENDP  ; |?__autoclassinit2@CClassFactory@@$$hQEAAX_K@Z|, CClassFactory::__autoclassinit2

; Function compile flags: /Ogtp
; File G:\Github\microsoft\low-latency-audio\src\uac2-asio\dllmain.cpp

	AREA	|.text$mn|, CODE, ARM64

|#DllCanUnloadNow| PROC

; 188  :     return (s_Locked > 0);

	adrp        x8,|?s_Locked@CClassFactory@@0JA|
	ldr         w8,[x8,|?s_Locked@CClassFactory@@0JA|]
	cmp         w8,#0

; 236  :     if (CClassFactory::IsLocked() || CBaseObject::ObjectsActive())

	bgt         |$LN4@|
	adrp        x8,|?m_cObjects@CBaseObject@@0JA|
	ldr         w8,[x8,|?m_cObjects@CBaseObject@@0JA|]
	cmp         w8,#0
	csetne      w0
	ret
|$LN4@|

; 237  :     {
; 238  :         return S_FALSE;

	mov         w0,#1
	ret

	ENDP  ; |#DllCanUnloadNow|

; Function compile flags: /Ogtp
; File G:\Github\microsoft\low-latency-audio\src\uac2-asio\dllmain.cpp
; File G:\Github\microsoft\low-latency-audio\src\uac2-asio\USBAsio.cpp
; File G:\Github\microsoft\low-latency-audio\src\uac2-asio\Register.cpp
; File G:\Github\microsoft\low-latency-audio\src\uac2-asio\USBAsio.cpp
; File G:\Github\microsoft\low-latency-audio\src\uac2-asio\Register.cpp
; File G:\Github\microsoft\low-latency-audio\src\uac2-asio\USBAsio.cpp
; File G:\Github\microsoft\low-latency-audio\src\uac2-asio\Register.cpp
; File C:\Program Files (x86)\Windows Kits\10\Include\10.0.26100.0\shared\winerror.h
; File G:\Github\microsoft\low-latency-audio\src\uac2-asio\Register.cpp
; File C:\Program Files (x86)\Windows Kits\10\Include\10.0.26100.0\shared\winerror.h
; File G:\Github\microsoft\low-latency-audio\src\uac2-asio\Register.cpp
; File C:\Program Files (x86)\Windows Kits\10\Include\10.0.26100.0\shared\winerror.h
; File G:\Github\microsoft\low-latency-audio\src\uac2-asio\Register.cpp
; File C:\Program Files (x86)\Windows Kits\10\Include\10.0.26100.0\shared\winerror.h
; File G:\Github\microsoft\low-latency-audio\src\uac2-asio\Register.cpp
; File C:\Program Files (x86)\Windows Kits\10\Include\10.0.26100.0\shared\winerror.h
; File G:\Github\microsoft\low-latency-audio\src\uac2-asio\Register.cpp
; File C:\Program Files (x86)\Windows Kits\10\Include\10.0.26100.0\shared\winerror.h
; File G:\Github\microsoft\low-latency-audio\src\uac2-asio\Register.cpp
; File C:\Program Files (x86)\Windows Kits\10\Include\10.0.26100.0\shared\winerror.h
; File G:\Github\microsoft\low-latency-audio\src\uac2-asio\Register.cpp
; File G:\Github\microsoft\low-latency-audio\src\uac2-asio\USBAsio.cpp
; File G:\Github\microsoft\low-latency-audio\src\uac2-asio\dllmain.cpp

	AREA	|.text$mn|, CODE, ARM64

|#DllRegisterServer| PROC

; 247  : {

|$LN105|
	stp         fp,lr,[sp,#-0x50]!
	stp         x19,x20,[sp,#0x10]
	stp         x21,x22,[sp,#0x20]
	stp         x25,x26,[sp,#0x30]
	str         x27,[sp,#0x40]
	mov         fp,sp
	bl          |#__security_push_cookie|
	sub         sp,sp,#0x670
; File G:\Github\microsoft\low-latency-audio\src\uac2-asio\USBAsio.cpp

; 127  :     HRESULT result = RegisterAsioDriver(IID_ASIO_DRIVER, ASIODRV_NAME, DRIVER_NAME, DRIVER_NAME, TEXT("Apartment"));

	adrp        x8,|?IID_ASIO_DRIVER@@3U_GUID@@A|
	add         x8,x8,|?IID_ASIO_DRIVER@@3U_GUID@@A|
; File G:\Github\microsoft\low-latency-audio\src\uac2-asio\Register.cpp

; 185  :     LPOLESTR wszCLSID = nullptr;

	str         xzr,[sp,#0x78]
; File G:\Github\microsoft\low-latency-audio\src\uac2-asio\USBAsio.cpp

; 127  :     HRESULT result = RegisterAsioDriver(IID_ASIO_DRIVER, ASIODRV_NAME, DRIVER_NAME, DRIVER_NAME, TEXT("Apartment"));

	ldr         q7,[x8]
; File G:\Github\microsoft\low-latency-audio\src\uac2-asio\Register.cpp

; 187  :     module = GetModuleHandle(dllName);

	adrp        x8,|??_C@_0M@BFGLKKGE@USBAsio?4dll@|
	add         x0,x8,|??_C@_0M@BFGLKKGE@USBAsio?4dll@|
; File G:\Github\microsoft\low-latency-audio\src\uac2-asio\USBAsio.cpp

; 127  :     HRESULT result = RegisterAsioDriver(IID_ASIO_DRIVER, ASIODRV_NAME, DRIVER_NAME, DRIVER_NAME, TEXT("Apartment"));

	str         q7,[sp,#0x90]
; File G:\Github\microsoft\low-latency-audio\src\uac2-asio\Register.cpp

; 179  :     TCHAR    dllPath[_MAX_PATH] = {0};

	movi        v7.16b,#0
	add         xip1,sp,#0x560
	stp         q7,q7,[xip1]
	add         xip1,sp,#0x580
	stp         q7,q7,[xip1]
	add         xip1,sp,#0x5A0
	stp         q7,q7,[xip1]
	add         xip1,sp,#0x5C0
	stp         q7,q7,[xip1]
	add         xip1,sp,#0x5E0
	stp         q7,q7,[xip1]
	add         xip1,sp,#0x600
	stp         q7,q7,[xip1]
	add         xip1,sp,#0x620
	stp         q7,q7,[xip1]
	add         xip1,sp,#0x640
	stp         q7,q7,[xip1]
	str         s7,[sp,#0x660]

; 180  :     TCHAR    moduleName[_MAX_PATH] = {0};

	movi        v7.16b,#0
	stp         q7,q7,[sp,#0x230]
	stp         q7,q7,[sp,#0x250]
	stp         q7,q7,[sp,#0x270]
	stp         q7,q7,[sp,#0x290]
	stp         q7,q7,[sp,#0x2B0]
	stp         q7,q7,[sp,#0x2D0]
	stp         q7,q7,[sp,#0x2F0]
	stp         q7,q7,[sp,#0x310]
	str         s7,[sp,#0x330]

; 181  :     TCHAR    classRegistryPath[_MAX_PATH] = {0};

	movi        v7.16b,#0
	stp         q7,q7,[sp,#0x340]
	stp         q7,q7,[sp,#0x360]
	stp         q7,q7,[sp,#0x380]
	stp         q7,q7,[sp,#0x3A0]
	stp         q7,q7,[sp,#0x3C0]
	stp         q7,q7,[sp,#0x3E0]
	add         xip1,sp,#0x400
	stp         q7,q7,[xip1]
	add         xip1,sp,#0x420
	stp         q7,q7,[xip1]
	str         s7,[sp,#0x440]

; 182  :     TCHAR    InprocServer32RegistryPath[_MAX_PATH] = {0};

	movi        v7.16b,#0
	add         xip1,sp,#0x450
	stp         q7,q7,[xip1]
	add         xip1,sp,#0x470
	stp         q7,q7,[xip1]
	add         xip1,sp,#0x490
	stp         q7,q7,[xip1]
	add         xip1,sp,#0x4B0
	stp         q7,q7,[xip1]
	add         xip1,sp,#0x4D0
	stp         q7,q7,[xip1]
	add         xip1,sp,#0x4F0
	stp         q7,q7,[xip1]
	add         xip1,sp,#0x510
	stp         q7,q7,[xip1]
	add         xip1,sp,#0x530
	stp         q7,q7,[xip1]
	str         s7,[sp,#0x550]

; 183  :     TCHAR    asioRegistryPath[_MAX_PATH] = {0};

	movi        v7.16b,#0
	stp         q7,q7,[sp,#0x120]
	stp         q7,q7,[sp,#0x140]
	stp         q7,q7,[sp,#0x160]
	stp         q7,q7,[sp,#0x180]
	stp         q7,q7,[sp,#0x1A0]
	stp         q7,q7,[sp,#0x1C0]
	stp         q7,q7,[sp,#0x1E0]
	stp         q7,q7,[sp,#0x200]
	str         s7,[sp,#0x220]

; 184  :     TCHAR    clsid[CLSID_STRING_LEN] = {0};

	movi        v7.16b,#0
	stp         q7,q7,[sp,#0xA0]
	stp         q7,q7,[sp,#0xC0]
	stp         q7,q7,[sp,#0xE0]
	str         s7,[sp,#0x100]

; 187  :     module = GetModuleHandle(dllName);

	bl          |#GetModuleHandleA|

; 188  :     if (module == nullptr)

	adrp        x8,|??_C@_0BC@LDCENIFA@USB?5ASIO?5?$CIARM64X?$CJ@|
	add         x26,x8,|??_C@_0BC@LDCENIFA@USB?5ASIO?5?$CIARM64X?$CJ@|
	cbnz        x0,|$LN13@|

; 190  :         return HRESULT_FROM_WIN32(GetLastError());

	bl          |#GetLastError|
; File C:\Program Files (x86)\Windows Kits\10\Include\10.0.26100.0\shared\winerror.h

; 30274: FORCEINLINE _Translates_Win32_to_HRESULT_(x) HRESULT HRESULT_FROM_WIN32(unsigned long x) { return (HRESULT)(x) <= 0 ? (HRESULT)(x) : (HRESULT) (((x) & 0x0000FFFF) | (FACILITY_WIN32 << 16) | 0x80000000);}

	mov         w8,#0x80070000
	and         w9,w0,#0xFFFF
	orr         w8,w9,w8
	cmp         w0,#0
	cselle      w19,w0,w8
; File G:\Github\microsoft\low-latency-audio\src\uac2-asio\Register.cpp

; 190  :         return HRESULT_FROM_WIN32(GetLastError());

	b           |$LN6@|
|$LN13@|

; 191  :     }
; 192  : 
; 193  :     GetModuleFileName(module, moduleName, _MAX_PATH);

	mov         w2,#0x104
	add         x1,sp,#0x230
	bl          |#GetModuleFileNameA|

; 194  :     if (moduleName[0] == 0)

	ldrsb       w8,[sp,#0x230]
	cbnz        w8,|$LN14@|

; 196  :         return HRESULT_FROM_WIN32(GetLastError());

	bl          |#GetLastError|
; File C:\Program Files (x86)\Windows Kits\10\Include\10.0.26100.0\shared\winerror.h

; 30274: FORCEINLINE _Translates_Win32_to_HRESULT_(x) HRESULT HRESULT_FROM_WIN32(unsigned long x) { return (HRESULT)(x) <= 0 ? (HRESULT)(x) : (HRESULT) (((x) & 0x0000FFFF) | (FACILITY_WIN32 << 16) | 0x80000000);}

	mov         w8,#0x80070000
	and         w9,w0,#0xFFFF
	orr         w8,w9,w8
	cmp         w0,#0
	cselle      w19,w0,w8
; File G:\Github\microsoft\low-latency-audio\src\uac2-asio\Register.cpp

; 196  :         return HRESULT_FROM_WIN32(GetLastError());

	b           |$LN6@|
|$LN14@|

; 197  :     }
; 198  :     CharLower(moduleName);

	add         x0,sp,#0x230
	bl          |#CharLowerA|

; 199  : 
; 200  :     result = StringFromCLSID(clsId, &wszCLSID);

	add         x1,sp,#0x78
	add         x0,sp,#0x90
	bl          |#StringFromCLSID|
	mov         w19,w0

; 201  :     if (!SUCCEEDED(result))

	tbnz        w19,#0x1F,|$LN6@|

; 202  :     {
; 203  :         return result;
; 204  :     }
; 205  : #ifdef _UNICODE
; 206  :     wcsncpy_s(clsid, CLSID_STRING_LEN - 1, wszCLSID, _TRUNCATE);
; 207  : #else
; 208  :     if (WideCharToMultiByte(CP_ACP, 0, (LPWSTR)wszCLSID, -1, clsid, CLSID_STRING_LEN, 0, 0) == 0)

	ldr         x2,[sp,#0x78]
	mov         x7,#0
	mov         x6,#0
	mov         w5,#0x64
	add         x4,sp,#0xA0
	mov         w3,#-1
	mov         w1,#0
	mov         w0,#0
	bl          |#WideCharToMultiByte|
	cbnz        w0,|$LN16@|

; 209  :     {
; 210  :         CoTaskMemFree(wszCLSID);

	ldr         x0,[sp,#0x78]
	bl          |#CoTaskMemFree|

; 211  :         return HRESULT_FROM_WIN32(GetLastError());

	bl          |#GetLastError|
; File C:\Program Files (x86)\Windows Kits\10\Include\10.0.26100.0\shared\winerror.h

; 30274: FORCEINLINE _Translates_Win32_to_HRESULT_(x) HRESULT HRESULT_FROM_WIN32(unsigned long x) { return (HRESULT)(x) <= 0 ? (HRESULT)(x) : (HRESULT) (((x) & 0x0000FFFF) | (FACILITY_WIN32 << 16) | 0x80000000);}

	mov         w8,#0x80070000
	and         w9,w0,#0xFFFF
	orr         w8,w9,w8
	cmp         w0,#0
	cselle      w19,w0,w8
; File G:\Github\microsoft\low-latency-audio\src\uac2-asio\Register.cpp

; 211  :         return HRESULT_FROM_WIN32(GetLastError());

	b           |$LN6@|
|$LN16@|

; 212  :     }
; 213  : #endif
; 214  :     CoTaskMemFree(wszCLSID);

	ldr         x0,[sp,#0x78]
	bl          |#CoTaskMemFree|

; 215  : 
; 216  :     _stprintf_s(classRegistryPath, _countof(classRegistryPath), REGSTR_CLSID _T("\\%s"), clsid);

	adrp        x8,|??_C@_08KMINELBC@CLSID?2?$CFs@|
	add         x2,x8,|??_C@_08KMINELBC@CLSID?2?$CFs@|
	add         x3,sp,#0xA0
	mov         x1,#0x104
	add         x0,sp,#0x340
	mov         x4,sp
	mov         x5,#0
	bl          |#sprintf_s|

; 217  :     _stprintf_s(InprocServer32RegistryPath, _countof(InprocServer32RegistryPath), REGSTR_CLSID _T("\\%s\\") REGSTR_INPROCSERVER32, clsid);

	adrp        x8,|??_C@_0BI@EJPDCOGH@CLSID?2?$CFs?2InprocServer32@|
	add         x2,x8,|??_C@_0BI@EJPDCOGH@CLSID?2?$CFs?2InprocServer32@|
	add         x3,sp,#0xA0
	mov         x1,#0x104
	add         x0,sp,#0x450
	mov         x4,sp
	mov         x5,#0
	bl          |#sprintf_s|

; 218  :     _stprintf_s(asioRegistryPath, _countof(asioRegistryPath), REGSTR_SOFTWAREASIO _T("\\%s"), regName);

	adrp        x8,|??_C@_0BB@PEAGLIBC@SOFTWARE?2ASIO?2?$CFs@|
	add         x2,x8,|??_C@_0BB@PEAGLIBC@SOFTWARE?2ASIO?2?$CFs@|
	mov         x3,x26
	mov         x1,#0x104
	add         x0,sp,#0x120
	mov         x4,sp
	mov         x5,#0
	bl          |#sprintf_s|

; 58   :         LSTATUS status = RegOpenKeyEx(key, regPath, 0, KEY_ALL_ACCESS, &subKey);

	mov         w25,#0x3F
	movk        w25,#0xF,lsl #0x10
	str         xzr,[sp,#0x70]
	mov         w3,w25
	add         x4,sp,#0x70
	mov         w2,#0
	add         x1,sp,#0x340
	mov         x0,#-0x80000000
	bl          |#RegOpenKeyExA|

; 59   :         if (status == ERROR_SUCCESS)

	ldr         x20,|$LN104@|
	cbnz        w0,|$LN17@|

; 60   :         {
; 61   :             RegCloseKey(subKey);

	ldr         x0,[sp,#0x70]
	bl          |#RegCloseKey|

; 77   :         if (RegOpenKeyEx(mainKey, regPath, 0, KEY_ALL_ACCESS, &key) == ERROR_SUCCESS)

	add         x4,sp,#0x70
	mov         w3,w25
	mov         w2,#0
	add         x1,sp,#0x450
	mov         x0,#-0x80000000
	bl          |#RegOpenKeyExA|
	cbnz        w0,|$LN86@|

; 78   :         {
; 79   :             if (RegQueryValueEx(key, valueName, 0, &valueType, 0, &valueSize) == ERROR_SUCCESS)

	ldr         x0,[sp,#0x70]
	add         x5,sp,#0x80
	mov         x4,#0
	add         x3,sp,#0x84
	mov         x2,#0
	mov         x1,#0
	bl          |#RegQueryValueExA|

; 80   :             {
; 81   :                 if (valueSize <= dataSize)

	ldr         w8,[sp,#0x80]
	cmp         w8,#0x104
	ccmpls      w0,#0,#0
	ldr         x0,[sp,#0x70]
	bne         |$LN43@|

; 82   :                 {
; 83   :                     RegQueryValueEx(key, valueName, 0, &valueType, (LPBYTE)data, &valueSize);

	add         x5,sp,#0x80
	add         x4,sp,#0x560
	add         x3,sp,#0x84
	mov         x2,#0
	mov         x1,#0
	bl          |#RegQueryValueExA|

; 84   :                     result = true;

	ldr         x0,[sp,#0x70]
	bl          |#RegCloseKey|

; 226  :             CharLower((LPTSTR)dllPath);

	add         x0,sp,#0x560
	bl          |#CharLowerA|

; 227  :             if (_tcscmp(dllPath, moduleName))

	add         x1,sp,#0x230
	add         x0,sp,#0x560
	bl          |#strcmp|
	cbz         w0,|$LN86@|

; 228  :             {
; 229  :                 RegDeleteTree(HKEY_LOCAL_MACHINE, classRegistryPath);

	add         x1,sp,#0x340
	mov         x0,x20
	bl          |#RegDeleteTreeA|
|$LN17@|

; 230  :                 // ASSERT(SUCCEEDED(result));
; 231  :                 newregentry = true;
; 232  :             }
; 233  :         }
; 234  :     }
; 235  :     else
; 236  :     {
; 237  :         newregentry = true;
; 238  :     }
; 239  : 
; 240  :     if (newregentry && SUCCEEDED(result))
; 241  :     {
; 242  :         REGISTRY_ELEMENT registryElements[] = {
; 243  :             {HKEY_CLASSES_ROOT, classRegistryPath, nullptr, asioDescriptor},

	mov         x9,#-0x80000000
	stp         xzr,x26,[sp,#0x20]
	add         x8,sp,#0x340
	stp         x9,x8,[sp,#0x10]

; 244  :             {HKEY_CLASSES_ROOT, InprocServer32RegistryPath, nullptr, moduleName},

	add         x8,sp,#0x450
	stp         x9,x8,[sp,#0x30]
	add         x8,sp,#0x230
	stp         xzr,x8,[sp,#0x40]

; 245  :             {HKEY_CLASSES_ROOT, InprocServer32RegistryPath, REGSTR_THREADINGMODEL, threadModel}

	add         x8,sp,#0x450
	stp         x9,x8,[sp,#0x50]
	adrp        x8,|??_C@_0P@FAEGJAHE@ThreadingModel@|
	add         x9,x8,|??_C@_0P@FAEGJAHE@ThreadingModel@|
	adrp        x8,|??_C@_09OOLPICH@Apartment@|
	add         x8,x8,|??_C@_09OOLPICH@Apartment@|
	stp         x9,x8,[sp,#0x60]

; 246  :         };
; 247  : 
; 248  :         for (int index = 0; (index < _countof(registryElements)) && SUCCEEDED(result); index++)

	mov         w21,#0
	add         x22,sp,#0x20
|$LL9@|
	tbnz        w19,#0x1F,|$LN81@|

; 249  :         {
; 250  :             result = CreateRegistryKeyAndSetValue(

	ldr         x3,[x22,#8]
	ldr         x2,[x22],#0x20
	ldp         x0,x1,[x22,#-0x30]
	bl          |?CreateRegistryKeyAndSetValue@@$$hYAJPEAUHKEY__@@PEBD11@Z|
	add         w21,w21,#1
	cmp         w21,#3
	mov         w19,w0
	blo         |$LL9@|

; 251  :                 registryElements[index].RootKey,
; 252  :                 registryElements[index].KeyName,
; 253  :                 registryElements[index].ValueName,
; 254  :                 registryElements[index].Data
; 255  :             );
; 256  :         }
; 257  :     }
; 258  :     if (SUCCEEDED(result))

	tbnz        w19,#0x1F,|$LN81@|
|$LN86@|

; 58   :         LSTATUS status = RegOpenKeyEx(key, regPath, 0, KEY_ALL_ACCESS, &subKey);

	adrp        x21,|??_C@_0O@KEDGEIPK@SOFTWARE?2ASIO@|
	add         x1,x21,|??_C@_0O@KEDGEIPK@SOFTWARE?2ASIO@|
	str         xzr,[sp,#0x70]
	add         x4,sp,#0x70
	mov         w3,w25
	mov         w2,#0
	mov         x0,x20
	bl          |#RegOpenKeyExA|

; 59   :         if (status == ERROR_SUCCESS)

	mov         w22,#0x80070000
	cbnz        w0,|$LN23@|

; 60   :         {
; 61   :             RegCloseKey(subKey);

	ldr         x0,[sp,#0x70]
	bl          |#RegCloseKey|

; 58   :         LSTATUS status = RegOpenKeyEx(key, regPath, 0, KEY_ALL_ACCESS, &subKey);

	add         x4,sp,#0x70
	str         xzr,[sp,#0x70]
	mov         w3,w25
	mov         w2,#0
	add         x1,sp,#0x120
	mov         x0,x20
	bl          |#RegOpenKeyExA|

; 59   :         if (status == ERROR_SUCCESS)

	cbnz        w0,|$LN24@|

; 60   :         {
; 61   :             RegCloseKey(subKey);

	ldr         x0,[sp,#0x70]
	bl          |#RegCloseKey|

; 265  :                 result = HRESULT_FROM_WIN32(RegDeleteTree(HKEY_LOCAL_MACHINE, asioRegistryPath));

	add         x1,sp,#0x120
	mov         x0,x20
	bl          |#RegDeleteTreeA|
; File C:\Program Files (x86)\Windows Kits\10\Include\10.0.26100.0\shared\winerror.h

; 30274: FORCEINLINE _Translates_Win32_to_HRESULT_(x) HRESULT HRESULT_FROM_WIN32(unsigned long x) { return (HRESULT)(x) <= 0 ? (HRESULT)(x) : (HRESULT) (((x) & 0x0000FFFF) | (FACILITY_WIN32 << 16) | 0x80000000);}

	and         w8,w0,#0xFFFF
	orr         w8,w8,w22
	cmp         w0,#0
	cselle      w19,w0,w8
; File G:\Github\microsoft\low-latency-audio\src\uac2-asio\Register.cpp

; 268  :         }

	b           |$LN24@|
|$LN43@|

; 87   :             RegCloseKey(key);

	bl          |#RegCloseKey|
	b           |$LN86@|
|$LN23@|

; 104  :     ret = RegCreateKeyEx(rootKey, keyName, 0, nullptr, REG_OPTION_NON_VOLATILE, KEY_ALL_ACCESS, nullptr, &key, nullptr);

	add         x7,sp,#0x70
	str         xzr,[sp]
	mov         x6,#0
	mov         w5,w25
	mov         w4,#0
	mov         x3,#0
	mov         w2,#0
	add         x1,x21,|??_C@_0O@KEDGEIPK@SOFTWARE?2ASIO@|
	mov         x0,x20
	mov         w19,#0
	bl          |#RegCreateKeyExA|

; 105  :     if (ret != ERROR_SUCCESS)

	cbz         w0,|$LN56@|
; File C:\Program Files (x86)\Windows Kits\10\Include\10.0.26100.0\shared\winerror.h

; 30274: FORCEINLINE _Translates_Win32_to_HRESULT_(x) HRESULT HRESULT_FROM_WIN32(unsigned long x) { return (HRESULT)(x) <= 0 ? (HRESULT)(x) : (HRESULT) (((x) & 0x0000FFFF) | (FACILITY_WIN32 << 16) | 0x80000000);}

	and         w8,w0,#0xFFFF
	orr         w8,w8,w22
	cmp         w0,#0
	cselle      w19,w0,w8
; File G:\Github\microsoft\low-latency-audio\src\uac2-asio\Register.cpp

; 108  :     }

	b           |$LN24@|
|$LN56@|

; 116  :         RegCloseKey(key);

	ldr         x0,[sp,#0x70]
	bl          |#RegCloseKey|
|$LN24@|

; 276  :     if (SUCCEEDED(result))

	tbnz        w19,#0x1F,|$LN81@|

; 277  :     {
; 278  :         REGISTRY_ELEMENT registryElements[] = {
; 279  :             {HKEY_LOCAL_MACHINE, asioRegistryPath, nullptr, nullptr},

	add         x8,sp,#0x120
	stp         xzr,xzr,[sp,#0x20]
	stp         x20,x8,[sp,#0x10]

; 280  :             {HKEY_LOCAL_MACHINE, asioRegistryPath, REGSTR_CLSID, clsid},

	add         x8,sp,#0x120
	stp         x20,x8,[sp,#0x30]
	adrp        x8,|??_C@_05GIBEAPNE@CLSID@|
	add         x9,x8,|??_C@_05GIBEAPNE@CLSID@|
	add         x8,sp,#0xA0

; 281  :             {HKEY_LOCAL_MACHINE, asioRegistryPath, REGSTR_DESCRIPTION, asioDescriptor}
; 282  :         };
; 283  : 
; 284  :         for (int index = 0; (index < _countof(registryElements)) && SUCCEEDED(result); index++)

	mov         w21,#0
	stp         x9,x8,[sp,#0x40]
	add         x8,sp,#0x120
	stp         x20,x8,[sp,#0x50]
	adrp        x8,|??_C@_0M@OHKMKKDH@Description@|
	add         x8,x8,|??_C@_0M@OHKMKKDH@Description@|
	stp         x8,x26,[sp,#0x60]
	add         x20,sp,#0x18
|$LN12@|
	tbnz        w19,#0x1F,|$LN81@|

; 285  :         {
; 286  :             result = CreateRegistryKeyAndSetValue(

	ldr         x27,[x20,#0x10]

; 104  :     ret = RegCreateKeyEx(rootKey, keyName, 0, nullptr, REG_OPTION_NON_VOLATILE, KEY_ALL_ACCESS, nullptr, &key, nullptr);

	add         x7,sp,#0x70
	ldr         x1,[x20],#0x20
	mov         x6,#0
	str         xzr,[sp]
	mov         w5,w25
	mov         w4,#0
	mov         x3,#0
	ldur        x0,[x20,#-0x28]
	mov         w2,#0
	mov         w19,#0
	bl          |#RegCreateKeyExA|

; 105  :     if (ret != ERROR_SUCCESS)

	cbz         w0,|$LN65@|
; File C:\Program Files (x86)\Windows Kits\10\Include\10.0.26100.0\shared\winerror.h

; 30274: FORCEINLINE _Translates_Win32_to_HRESULT_(x) HRESULT HRESULT_FROM_WIN32(unsigned long x) { return (HRESULT)(x) <= 0 ? (HRESULT)(x) : (HRESULT) (((x) & 0x0000FFFF) | (FACILITY_WIN32 << 16) | 0x80000000);}

	and         w8,w0,#0xFFFF
	orr         w8,w8,w22
	cmp         w0,#0
	cselle      w19,w0,w8
; File G:\Github\microsoft\low-latency-audio\src\uac2-asio\Register.cpp

; 108  :     }

	b           |$LN66@|
|$LN65@|

; 109  :     else
; 110  :     {
; 111  :         if (data != nullptr)

	cbz         x27,|$LN67@|

; 112  :         {
; 113  :             ret = RegSetValueEx(key, valueName, 0, REG_SZ, (LPBYTE)data, (DWORD)((_tcslen(data) + 1) * sizeof(TCHAR)));

	mov         x8,x27
	ldrsb       w9,[x8]
	cbz         w9,|$LN99@|
|$LL98@|
	ldrsb       w9,[x8,#1]!
	cbnz        w9,|$LL98@|
|$LN99@|
	ldur        x1,[x20,#-0x18]
	sub         x8,x8,x27
	ldr         x0,[sp,#0x70]
	add         w5,w8,#1
	mov         x4,x27
	mov         w3,#1
	mov         w2,#0
	bl          |#RegSetValueExA|
; File C:\Program Files (x86)\Windows Kits\10\Include\10.0.26100.0\shared\winerror.h

; 30274: FORCEINLINE _Translates_Win32_to_HRESULT_(x) HRESULT HRESULT_FROM_WIN32(unsigned long x) { return (HRESULT)(x) <= 0 ? (HRESULT)(x) : (HRESULT) (((x) & 0x0000FFFF) | (FACILITY_WIN32 << 16) | 0x80000000);}

	and         w8,w0,#0xFFFF
	orr         w8,w8,w22
	cmp         w0,#0
	cselle      w19,w0,w8
|$LN67@|
; File G:\Github\microsoft\low-latency-audio\src\uac2-asio\Register.cpp

; 116  :         RegCloseKey(key);

	ldr         x0,[sp,#0x70]
	bl          |#RegCloseKey|
|$LN66@|

; 284  :         for (int index = 0; (index < _countof(registryElements)) && SUCCEEDED(result); index++)

	add         w21,w21,#1
	cmp         w21,#3
	blo         |$LN12@|

; 287  :                 registryElements[index].RootKey,
; 288  :                 registryElements[index].KeyName,
; 289  :                 registryElements[index].ValueName,
; 290  :                 registryElements[index].Data
; 291  :             );
; 292  :         }
; 293  :     }
; 294  : 
; 295  :     if (!SUCCEEDED(result))

	tbz         w19,#0x1F,|$LN6@|
|$LN81@|

; 296  :     {
; 297  :         UnregisterAsioDriver(clsId, dllName, regName);

	ldp         x0,x1,[sp,#0x90]
	bl          |?UnregisterAsioDriver@@$$hYAJU_GUID@@PEBD1@Z|
|$LN6@|
; File G:\Github\microsoft\low-latency-audio\src\uac2-asio\USBAsio.cpp

; 129  :     if (!SUCCEEDED(result))

	tbz         w19,#0x1F,|$LN4@|

; 130  :     {
; 131  :         TCHAR message[ERROR_MESSAGE_LENGTH] = {0};

	movi        v7.16b,#0

; 132  :         _stprintf_s(message, ERROR_MESSAGE_LENGTH, TEXT("Register Server failed ! (%d)"), result);

	adrp        x8,|??_C@_0BO@KGBEPONM@Register?5Server?5failed?5?$CB?5?$CI?$CFd?$CJ@|
	mov         w3,w19
	add         x2,x8,|??_C@_0BO@KGBEPONM@Register?5Server?5failed?5?$CB?5?$CI?$CFd?$CJ@|
	mov         x1,#0x80
	stp         q7,q7,[sp,#0xA0]
	add         x0,sp,#0xA0
	stp         q7,q7,[sp,#0xC0]
	mov         x4,sp
	stp         q7,q7,[sp,#0xE0]
	mov         x5,#0
	stp         q7,q7,[sp,#0x100]
	bl          |#sprintf_s|

; 133  :         MessageBox(nullptr, message, DRIVER_NAME, MB_OK);

	mov         w3,#0
	mov         x2,x26
	add         x1,sp,#0xA0
	mov         x0,#0
	bl          |#MessageBoxA|
|$LN4@|
; File G:\Github\microsoft\low-latency-audio\src\uac2-asio\dllmain.cpp

; 248  :     return RegisterAsioDriver();

	mov         w0,w19
	add         sp,sp,#0x670
	bl          |#__security_pop_cookie|
	ldr         x27,[sp,#0x40]
	ldp         x25,x26,[sp,#0x30]
	ldp         x21,x22,[sp,#0x20]
	ldp         x19,x20,[sp,#0x10]
	ldp         fp,lr,[sp],#0x50
	ret
|$LN104@|
	DCQ         0xffffffff80000002

	ENDP  ; |#DllRegisterServer|

; Function compile flags: /Ogtp
; File G:\Github\microsoft\low-latency-audio\src\uac2-asio\dllmain.cpp
; File G:\Github\microsoft\low-latency-audio\src\uac2-asio\USBAsio.cpp
; File G:\Github\microsoft\low-latency-audio\src\uac2-asio\dllmain.cpp

	AREA	|.text$mn|, CODE, ARM64

|#DllUnregisterServer| PROC

; 252  : {

|$LN12|
	stp         fp,lr,[sp,#-0x20]!
	mov         fp,sp
	bl          |#__security_push_cookie|
	sub         sp,sp,#0x80
; File G:\Github\microsoft\low-latency-audio\src\uac2-asio\USBAsio.cpp

; 141  :     HRESULT result = UnregisterAsioDriver(IID_ASIO_DRIVER, ASIODRV_NAME, DRIVER_NAME);

	adrp        x8,|?IID_ASIO_DRIVER@@3U_GUID@@A|
	add         x8,x8,|?IID_ASIO_DRIVER@@3U_GUID@@A|
	ldp         x0,x1,[x8]
	bl          |?UnregisterAsioDriver@@$$hYAJU_GUID@@PEBD1@Z|

; 142  : 
; 143  :     if (!SUCCEEDED(result))

	tbz         w0,#0x1F,|$LN4@|
	str         x19,[sp,#0xA0]
	mov         w19,w0

; 144  :     {
; 145  :         TCHAR message[ERROR_MESSAGE_LENGTH] = {0};

	movi        v7.16b,#0
	stp         q7,q7,[sp]
	stp         q7,q7,[sp,#0x20]
	stp         q7,q7,[sp,#0x40]
	stp         q7,q7,[sp,#0x60]

; 146  :         _stprintf_s(message, ERROR_MESSAGE_LENGTH, TEXT("Unregister Server failed ! (%d)"), result);

	mov         w3,w19
	adrp        x8,|??_C@_0CA@OPFFDHMA@Unregister?5Server?5failed?5?$CB?5?$CI?$CFd?$CJ@|
	add         x2,x8,|??_C@_0CA@OPFFDHMA@Unregister?5Server?5failed?5?$CB?5?$CI?$CFd?$CJ@|
	mov         x1,#0x80
	mov         x0,sp
	mov         x4,sp
	mov         x5,#0
	bl          |#sprintf_s|

; 147  :         MessageBox(nullptr, message, DRIVER_NAME, MB_OK);

	mov         w3,#0
	adrp        x8,|??_C@_0BC@LDCENIFA@USB?5ASIO?5?$CIARM64X?$CJ@|
	add         x2,x8,|??_C@_0BC@LDCENIFA@USB?5ASIO?5?$CIARM64X?$CJ@|
	mov         x1,sp
	mov         x0,#0
	bl          |#MessageBoxA|
	mov         w0,w19
	ldr         x19,[sp,#0xA0]
|$LN4@|
	add         sp,sp,#0x80
	bl          |#__security_pop_cookie|
	ldp         fp,lr,[sp],#0x20
	ret

	ENDP  ; |#DllUnregisterServer|

; Function compile flags: /Odsp

	AREA	|.wowthk$aa|, CODE, ARM64

|??2$exit_thunk@$$hYAPEAX_K@Z| PROC			;  ?? ::Z::$$hYAPEAX_K::$exit_thunk::operator new
|$LN1|
	pacibsp
	stp         fp,lr,[sp,#-0x10]!
	adrp        x9,__os_arm64x_dispatch_icall
	ldr         x9,[x9,__os_arm64x_dispatch_icall]
	adrp        x10,|$iexit_thunk$cdecl$i8$i8|
	add         x10,x10,|$iexit_thunk$cdecl$i8$i8|
	adrp        x11,|??2@YAPEAX_K@Z|
	add         x11,x11,|??2@YAPEAX_K@Z|
	blr         x9
	ldp         fp,lr,[sp],#0x10
	autibsp
	eor         x12,lr,x11
	xpaclri
	eor         x12,x12,lr
	br          x12

	ENDP  ; |??2$exit_thunk@$$hYAPEAX_K@Z|,  ?? ::Z::$$hYAPEAX_K::$exit_thunk::operator new

	END
