; Listing generated by Microsoft (R) Optimizing Compiler Version 19.44.35216.0 

include listing.inc

INCLUDELIB OLDNAMES

PUBLIC	?g_Templates@@3PAVCFactoryTemplate@@A		; g_Templates
PUBLIC	?g_NumOfTemplates@@3HA				; g_NumOfTemplates
PUBLIC	??_C@_00CNPNBAHC@@				; `string'
PUBLIC	??_C@_0BC@EOODALEL@Unknown?5exception@		; `string'
PUBLIC	??_C@_09FBNMMHMJ@Exception@			; `string'
PUBLIC	??_C@_08PHCNGLJD@ReturnNt@			; `string'
PUBLIC	??_C@_08KFPKLAKH@ReturnHr@			; `string'
PUBLIC	??_C@_05LKGDKHFF@LogNt@				; `string'
PUBLIC	??_C@_05OILEHMGB@LogHr@				; `string'
PUBLIC	??_C@_08IAOKKAJK@FailFast@			; `string'
PUBLIC	??_C@_1CC@NCIPMFAO@?$AA?$CF?$AAh?$AAs?$AA?$CI?$AA?$CF?$AAu?$AA?$CJ?$AA?2?$AA?$CF?$AAh?$AAs?$AA?$CB?$AA?$CF?$AAp?$AA?3@ ; `string'
PUBLIC	??_C@_1BC@HOGHCIFF@?$AA?$CF?$AAh?$AAs?$AA?$CB?$AA?$CF?$AAp?$AA?3?$AA?5@ ; `string'
PUBLIC	??_C@_1BM@EAHLIJPA@?$AA?$CI?$AAc?$AAa?$AAl?$AAl?$AAe?$AAr?$AA?3?$AA?5?$AA?$CF?$AAp?$AA?$CJ?$AA?5@ ; `string'
PUBLIC	??_C@_1DC@MFHOKFOG@?$AA?$CF?$AAh?$AAs?$AA?$CI?$AA?$CF?$AAd?$AA?$CJ?$AA?5?$AAt?$AAi?$AAd?$AA?$CI?$AA?$CF?$AAx?$AA?$CJ@ ; `string'
PUBLIC	??_C@_19NMAFMAH@?$AA?5?$AA?5?$AA?5?$AA?5@	; `string'
PUBLIC	??_C@_1BG@MCLOHHAM@?$AAM?$AAs?$AAg?$AA?3?$AA?$FL?$AA?$CF?$AAw?$AAs?$AA?$FN?$AA?5@ ; `string'
PUBLIC	??_C@_1CG@CGJKEFKG@?$AAC?$AAa?$AAl?$AAl?$AAC?$AAo?$AAn?$AAt?$AAe?$AAx?$AAt?$AA?3?$AA?$FL?$AA?$CF?$AAh@ ; `string'
PUBLIC	??_C@_1BI@PKOCHLJN@?$AA?$FL?$AA?$CF?$AAh?$AAs?$AA?$CI?$AA?$CF?$AAh?$AAs?$AA?$CJ?$AA?$FN?$AA?6@ ; `string'
PUBLIC	??_C@_1O@PJKHPDBK@?$AA?$FL?$AA?$CF?$AAh?$AAs?$AA?$FN?$AA?6@ ; `string'
PUBLIC	??_C@_13LBAGMAIH@?$AA?6@			; `string'
PUBLIC	??_C@_1BO@MFOKJHPK@?$AAk?$AAe?$AAr?$AAn?$AAe?$AAl?$AAb?$AAa?$AAs?$AAe?$AA?4?$AAd?$AAl?$AAl@ ; `string'
PUBLIC	??_C@_0BH@EEDPADAA@RaiseFailFastException@	; `string'
PUBLIC	??_C@_0O@KIMGFJMA@WIL?5Exception@		; `string'
PUBLIC	??_C@_1CI@KEGLKJIE@?$AAs?$AAt?$AAd?$AA?3?$AA?3?$AAe?$AAx?$AAc?$AAe?$AAp?$AAt?$AAi?$AAo?$AAn?$AA?3@ ; `string'
PUBLIC	??_C@_0CE@FGCAAGLA@Software?2Microsoft?2Windows?5USB?5@ ; `string'
PUBLIC	??_C@_0BC@CNPFEPCO@FixedSamplingRate@		; `string'
PUBLIC	??_C@_0N@FDBGAPPM@PeriodFrames@			; `string'
PUBLIC	??_C@_0BE@NOAOMEBF@ClassicFramesPerIrp@		; `string'
PUBLIC	??_C@_0BF@IAHDLOFO@ClassicFramesPerIrp2@	; `string'
PUBLIC	??_C@_0N@BNFIBEN@MaxIrpNumber@			; `string'
PUBLIC	??_C@_0BD@JPDMMNEG@FirstPacketLatency@		; `string'
PUBLIC	??_C@_0O@DDKFKBEA@PreSendFrames@		; `string'
PUBLIC	??_C@_0BB@PIAJBBGI@OutputFrameDelay@		; `string'
PUBLIC	??_C@_0BK@JNKNPGNG@DelayedOutputBufferSwitch@	; `string'
PUBLIC	??_C@_0L@ONBBLLLB@AsioDevice@			; `string'
PUBLIC	??_C@_0BJ@ENDJMLOO@OutBufferOperationOffset@	; `string'
PUBLIC	??_C@_0N@DLKKJNAP@OutHubOffset@			; `string'
PUBLIC	??_C@_0BI@IIKKMOIC@InBufferOperationOffset@	; `string'
PUBLIC	??_C@_0M@IIIMLOLG@InHubOffset@			; `string'
PUBLIC	??_C@_0BF@BAAHAIB@BufferThreadPriority@		; `string'
PUBLIC	??_C@_0BB@GLAIOBJJ@DropoutDetection@		; `string'
PUBLIC	??_C@_0BH@ECDADGG@OutBulkOperationOffset@	; `string'
PUBLIC	??_C@_0O@CHCBIFB@USBAudio2?9ACX@		; `string'
PUBLIC	??_C@_0O@LGMBKNOO@RenderDevice0@		; `string'
PUBLIC	??_C@_1BG@NOBPGPPM@?$AAY?$AAS?$AAU?$AAS?$AAB?$AA_?$AAA?$AAS?$AAI?$AAO@ ; `string'
PUBLIC	??_C@_09OOLPICH@Apartment@			; `string'
PUBLIC	??_C@_08JKCDEOBL@USB?5ASIO@			; `string'
PUBLIC	??_C@_0M@BFGLKKGE@USBAsio?4dll@			; `string'
PUBLIC	??_C@_0BO@KGBEPONM@Register?5Server?5failed?5?$CB?5?$CI?$CFd?$CJ@ ; `string'
PUBLIC	??_C@_0CA@OPFFDHMA@Unregister?5Server?5failed?5?$CB?5?$CI?$CFd?$CJ@ ; `string'
PUBLIC	??_C@_08KPIIIDA@CUSBAsio@			; `string'
PUBLIC	??_C@_02KPKOKMHB@?$CFS@				; `string'
PUBLIC	??_C@_0L@CIJEIFL@channel?5?$CFu@		; `string'
PUBLIC	??_C@_0BI@EKCPACDK@USBAsioControlPanel?4exe@	; `string'
PUBLIC	??_C@_06DIJPEION@?$CFs?$CFs?$CFs@		; `string'
PUBLIC	??_C@_09FJFDCAPM@Pro?5Audio@			; `string'
PUBLIC	_GUID_6994ad04_93ef_11d0_a3cc_00a0c9223196
PUBLIC	??_R4IASIO@@6B@					; IASIO::`RTTI Complete Object Locator'
PUBLIC	??_R4exception@std@@6B@				; std::exception::`RTTI Complete Object Locator'
PUBLIC	??_R3IASIO@@8					; IASIO::`RTTI Class Hierarchy Descriptor'
PUBLIC	??_R3CUSBAsio@@8				; CUSBAsio::`RTTI Class Hierarchy Descriptor'
PUBLIC	??_R0?AVbad_alloc@std@@@8			; std::bad_alloc `RTTI Type Descriptor'
PUBLIC	g_pfnResultLoggingCallback
PUBLIC	?g_pfnResultFromCaughtException@wil@@3P6AJX_EEA	; wil::g_pfnResultFromCaughtException
PUBLIC	?g_resultMessageCallbackSet@details@wil@@3_NA	; wil::details::g_resultMessageCallbackSet
PUBLIC	?g_pfnFormatNtStatusMsg@details@wil@@3P6AXJPEA_WK@ZEA ; wil::details::g_pfnFormatNtStatusMsg
PUBLIC	g_pfnResultFromCaughtException_CppWinRt
PUBLIC	g_pfnResultFromCaughtException_WinRt
PUBLIC	??_R17?0A@EA@INonDelegatingUnknown@@8		; INonDelegatingUnknown::`RTTI Base Class Descriptor at (8,-1,0,64)'
PUBLIC	??_R3ResultException@wil@@8			; wil::ResultException::`RTTI Class Hierarchy Descriptor'
PUBLIC	??_R1A@?0A@EA@IASIO@@8				; IASIO::`RTTI Base Class Descriptor at (0,-1,0,64)'
PUBLIC	??_R2CUSBAsio@@8				; CUSBAsio::`RTTI Base Class Array'
PUBLIC	??_7CUSBAsio@@6BCUnknown@@@			; CUSBAsio::`vftable'
PUBLIC	_Avx2WmemEnabledWeakValue
PUBLIC	?s_fModuleValid@?1??GetCurrentModuleName@details@wil@@YAPEBDXZ@4_NC ; `wil::details::GetCurrentModuleName'::`2'::s_fModuleValid
PUBLIC	?s_hrErrorLast@?1??RecordFailFast@details@wil@@YAHJ@Z@4JC ; `wil::details::RecordFailFast'::`2'::s_hrErrorLast
PUBLIC	??_7IASIO@@6B@					; IASIO::`vftable'
PUBLIC	??_R1A@?0A@EA@exception@std@@8			; std::exception::`RTTI Base Class Descriptor at (0,-1,0,64)'
PUBLIC	??_7CUSBAsio@@6BIASIO@@@			; CUSBAsio::`vftable'
PUBLIC	??_R1BA@?0A@EA@CBaseObject@@8			; CBaseObject::`RTTI Base Class Descriptor at (16,-1,0,64)'
PUBLIC	??_R1A@?0A@EA@ResultException@wil@@8		; wil::ResultException::`RTTI Base Class Descriptor at (0,-1,0,64)'
PUBLIC	??_R0?AVResultException@wil@@@8			; wil::ResultException `RTTI Type Descriptor'
PUBLIC	??_R2IASIO@@8					; IASIO::`RTTI Base Class Array'
PUBLIC	??_R2ResultException@wil@@8			; wil::ResultException::`RTTI Base Class Array'
PUBLIC	?s_szModule@?1??GetCurrentModuleName@details@wil@@YAPEBDXZ@4PADA ; `wil::details::GetCurrentModuleName'::`2'::s_szModule
PUBLIC	??_R2exception@std@@8				; std::exception::`RTTI Base Class Array'
PUBLIC	??_R4CUSBAsio@@6BCUnknown@@@			; CUSBAsio::`RTTI Complete Object Locator'
PUBLIC	KSPROPSETID_LowLatencyAudio
PUBLIC	_CTA2?AVResultException@wil@@
PUBLIC	??_R17?0A@EA@CUnknown@@8			; CUnknown::`RTTI Base Class Descriptor at (8,-1,0,64)'
PUBLIC	??_7exception@std@@6B@				; std::exception::`vftable'
PUBLIC	??_R3exception@std@@8				; std::exception::`RTTI Class Hierarchy Descriptor'
PUBLIC	??_R0?AVCUSBAsio@@@8				; CUSBAsio `RTTI Type Descriptor'
PUBLIC	?IID_ASIO_DRIVER@@3U_GUID@@A			; IID_ASIO_DRIVER
PUBLIC	??_R4ResultException@wil@@6B@			; wil::ResultException::`RTTI Complete Object Locator'
PUBLIC	??_R0?AUIASIO@@@8				; IASIO `RTTI Type Descriptor'
PUBLIC	??_R1A@?0A@EA@CUSBAsio@@8			; CUSBAsio::`RTTI Base Class Descriptor at (0,-1,0,64)'
PUBLIC	??_R4CUSBAsio@@6BIASIO@@@			; CUSBAsio::`RTTI Complete Object Locator'
PUBLIC	??_7ResultException@wil@@6B@			; wil::ResultException::`vftable'
PUBLIC	_CT??_R0?AVexception@std@@@8??0exception@std@@QEAA@AEBV01@@Z24
PUBLIC	_CT??_R0?AVResultException@wil@@@8??0ResultException@wil@@QEAA@AEBV01@@Z208
PUBLIC	??_R0?AVexception@std@@@8			; std::exception `RTTI Type Descriptor'
PUBLIC	_TI2?AVResultException@wil@@
EXTRN	_splitpath_s:PROC
EXTRN	__imp_QueryPerformanceCounter:PROC
EXTRN	__imp_CreateEventA:PROC
EXTRN	__imp_DebugBreak:PROC
EXTRN	__imp_CreateProcessA:PROC
EXTRN	__imp_LoadStringA:PROC
EXTRN	__imp_GetModuleHandleW:PROC
EXTRN	__imp_GetProcessHeap:PROC
EXTRN	__imp_DeleteCriticalSection:PROC
EXTRN	__imp_AvSetMmThreadCharacteristicsA:PROC
EXTRN	__imp_GetProcAddress:PROC
EXTRN	__imp_AvSetMmThreadPriority:PROC
EXTRN	??_U@YAPEAX_K@Z:PROC				; operator new[]
EXTRN	__imp_HeapAlloc:PROC
EXTRN	__imp_ResetEvent:PROC
EXTRN	__imp_CloseHandle:PROC
EXTRN	_errno:PROC
EXTRN	__stdio_common_vswprintf:PROC
EXTRN	__imp_QueryPerformanceFrequency:PROC
EXTRN	__imp_SetEvent:PROC
EXTRN	__imp_K32GetModuleFileNameExA:PROC
EXTRN	__imp_FormatMessageW:PROC
EXTRN	_purecall:PROC
EXTRN	__imp_Sleep:PROC
EXTRN	_invalid_parameter_noinfo:PROC
EXTRN	__imp_MessageBoxA:PROC
EXTRN	__std_exception_copy:PROC
EXTRN	__imp_GetCurrentThreadId:PROC
EXTRN	__imp_WaitForSingleObject:PROC
EXTRN	__imp_InitializeCriticalSectionEx:PROC
EXTRN	_beginthreadex:PROC
EXTRN	__imp_LeaveCriticalSection:PROC
EXTRN	__imp_SetThreadPriority:PROC
EXTRN	__imp_WaitForMultipleObjects:PROC
EXTRN	__imp_GetModuleHandleExW:PROC
EXTRN	__imp_GetCurrentProcess:PROC
EXTRN	__imp_EnterCriticalSection:PROC
EXTRN	__imp_HeapFree:PROC
EXTRN	__imp_timeGetTime:PROC
EXTRN	??_V@YAXPEAX@Z:PROC				; operator delete[]
EXTRN	__std_exception_destroy:PROC
;	COMDAT g_pfnResultLoggingCallback
_BSS	SEGMENT
g_pfnResultLoggingCallback DQ 01H DUP (?)
_BSS	ENDS
;	COMDAT ?g_pfnResultFromCaughtException@wil@@3P6AJX_EEA
_BSS	SEGMENT
?g_pfnResultFromCaughtException@wil@@3P6AJX_EEA DQ 01H DUP (?) ; wil::g_pfnResultFromCaughtException
_BSS	ENDS
;	COMDAT ?g_resultMessageCallbackSet@details@wil@@3_NA
_BSS	SEGMENT
?g_resultMessageCallbackSet@details@wil@@3_NA DB 01H DUP (?) ; wil::details::g_resultMessageCallbackSet
_BSS	ENDS
;	COMDAT ?g_pfnFormatNtStatusMsg@details@wil@@3P6AXJPEA_WK@ZEA
_BSS	SEGMENT
?g_pfnFormatNtStatusMsg@details@wil@@3P6AXJPEA_WK@ZEA DQ 01H DUP (?) ; wil::details::g_pfnFormatNtStatusMsg
_BSS	ENDS
;	COMDAT g_pfnResultFromCaughtException_CppWinRt
_BSS	SEGMENT
g_pfnResultFromCaughtException_CppWinRt DQ 01H DUP (?)
_BSS	ENDS
;	COMDAT g_pfnResultFromCaughtException_WinRt
_BSS	SEGMENT
g_pfnResultFromCaughtException_WinRt DQ 01H DUP (?)
_BSS	ENDS
;	COMDAT _Avx2WmemEnabledWeakValue
_BSS	SEGMENT
_Avx2WmemEnabledWeakValue DD 01H DUP (?)
_BSS	ENDS
;	COMDAT ?s_fModuleValid@?1??GetCurrentModuleName@details@wil@@YAPEBDXZ@4_NC
_BSS	SEGMENT
?s_fModuleValid@?1??GetCurrentModuleName@details@wil@@YAPEBDXZ@4_NC DB 01H DUP (?) ; `wil::details::GetCurrentModuleName'::`2'::s_fModuleValid
_BSS	ENDS
;	COMDAT ?s_hrErrorLast@?1??RecordFailFast@details@wil@@YAHJ@Z@4JC
_BSS	SEGMENT
?s_hrErrorLast@?1??RecordFailFast@details@wil@@YAHJ@Z@4JC DD 01H DUP (?) ; `wil::details::RecordFailFast'::`2'::s_hrErrorLast
_BSS	ENDS
;	COMDAT ?s_szModule@?1??GetCurrentModuleName@details@wil@@YAPEBDXZ@4PADA
_BSS	SEGMENT
?s_szModule@?1??GetCurrentModuleName@details@wil@@YAPEBDXZ@4PADA DB 040H DUP (?) ; `wil::details::GetCurrentModuleName'::`2'::s_szModule
_BSS	ENDS
;	COMDAT _TI2?AVResultException@wil@@
xdata$x	SEGMENT
_TI2?AVResultException@wil@@ DD 00H
	DD	imagerel ??1ResultException@wil@@UEAA@XZ
	DD	00H
	DD	imagerel _CTA2?AVResultException@wil@@
xdata$x	ENDS
;	COMDAT ??_R0?AVexception@std@@@8
data$r	SEGMENT
??_R0?AVexception@std@@@8 DQ FLAT:??_7type_info@@6B@	; std::exception `RTTI Type Descriptor'
	DQ	0000000000000000H
	DB	'.?AVexception@std@@', 00H
data$r	ENDS
;	COMDAT _CT??_R0?AVResultException@wil@@@8??0ResultException@wil@@QEAA@AEBV01@@Z208
xdata$x	SEGMENT
_CT??_R0?AVResultException@wil@@@8??0ResultException@wil@@QEAA@AEBV01@@Z208 DD 00H
	DD	imagerel ??_R0?AVResultException@wil@@@8
	DD	00H
	DD	0ffffffffH
	ORG $+4
	DD	0d0H
	DD	imagerel ??0ResultException@wil@@QEAA@AEBV01@@Z
xdata$x	ENDS
;	COMDAT _CT??_R0?AVexception@std@@@8??0exception@std@@QEAA@AEBV01@@Z24
xdata$x	SEGMENT
_CT??_R0?AVexception@std@@@8??0exception@std@@QEAA@AEBV01@@Z24 DD 00H
	DD	imagerel ??_R0?AVexception@std@@@8
	DD	00H
	DD	0ffffffffH
	ORG $+4
	DD	018H
	DD	imagerel ??0exception@std@@QEAA@AEBV01@@Z
xdata$x	ENDS
;	COMDAT ??_7ResultException@wil@@6B@
CONST	SEGMENT
??_7ResultException@wil@@6B@ DQ FLAT:??_R4ResultException@wil@@6B@ ; wil::ResultException::`vftable'
	DQ	FLAT:??_EResultException@wil@@UEAAPEAXI@Z
	DQ	FLAT:?what@ResultException@wil@@UEBAPEBDXZ
CONST	ENDS
;	COMDAT ??_R4CUSBAsio@@6BIASIO@@@
rdata$r	SEGMENT
??_R4CUSBAsio@@6BIASIO@@@ DD 01H			; CUSBAsio::`RTTI Complete Object Locator'
	DD	00H
	DD	00H
	DD	imagerel ??_R0?AVCUSBAsio@@@8
	DD	imagerel ??_R3CUSBAsio@@8
	DD	imagerel ??_R4CUSBAsio@@6BIASIO@@@
rdata$r	ENDS
;	COMDAT ??_R1A@?0A@EA@CUSBAsio@@8
rdata$r	SEGMENT
??_R1A@?0A@EA@CUSBAsio@@8 DD imagerel ??_R0?AVCUSBAsio@@@8 ; CUSBAsio::`RTTI Base Class Descriptor at (0,-1,0,64)'
	DD	05H
	DD	00H
	DD	0ffffffffH
	DD	00H
	DD	040H
	DD	imagerel ??_R3CUSBAsio@@8
rdata$r	ENDS
;	COMDAT ??_R0?AUIASIO@@@8
data$rs	SEGMENT
??_R0?AUIASIO@@@8 DQ FLAT:??_7type_info@@6B@		; IASIO `RTTI Type Descriptor'
	DQ	0000000000000000H
	DB	'.?AUIASIO@@', 00H
data$rs	ENDS
;	COMDAT ??_R4ResultException@wil@@6B@
rdata$r	SEGMENT
??_R4ResultException@wil@@6B@ DD 01H			; wil::ResultException::`RTTI Complete Object Locator'
	DD	00H
	DD	00H
	DD	imagerel ??_R0?AVResultException@wil@@@8
	DD	imagerel ??_R3ResultException@wil@@8
	DD	imagerel ??_R4ResultException@wil@@6B@
rdata$r	ENDS
;	COMDAT ??_R0?AVCUSBAsio@@@8
data$rs	SEGMENT
??_R0?AVCUSBAsio@@@8 DQ FLAT:??_7type_info@@6B@		; CUSBAsio `RTTI Type Descriptor'
	DQ	0000000000000000H
	DB	'.?AVCUSBAsio@@', 00H
data$rs	ENDS
;	COMDAT ??_R3exception@std@@8
rdata$r	SEGMENT
??_R3exception@std@@8 DD 00H				; std::exception::`RTTI Class Hierarchy Descriptor'
	DD	00H
	DD	01H
	DD	imagerel ??_R2exception@std@@8
rdata$r	ENDS
;	COMDAT ??_7exception@std@@6B@
CONST	SEGMENT
??_7exception@std@@6B@ DQ FLAT:??_R4exception@std@@6B@	; std::exception::`vftable'
	DQ	FLAT:??_Eexception@std@@UEAAPEAXI@Z
	DQ	FLAT:?what@exception@std@@UEBAPEBDXZ
CONST	ENDS
;	COMDAT ??_R17?0A@EA@CUnknown@@8
rdata$r	SEGMENT
??_R17?0A@EA@CUnknown@@8 DD imagerel ??_R0?AVCUnknown@@@8 ; CUnknown::`RTTI Base Class Descriptor at (8,-1,0,64)'
	DD	02H
	DD	08H
	DD	0ffffffffH
	DD	00H
	DD	040H
	DD	imagerel ??_R3CUnknown@@8
rdata$r	ENDS
;	COMDAT _CTA2?AVResultException@wil@@
xdata$x	SEGMENT
_CTA2?AVResultException@wil@@ DD 02H
	DD	imagerel _CT??_R0?AVResultException@wil@@@8??0ResultException@wil@@QEAA@AEBV01@@Z208
	DD	imagerel _CT??_R0?AVexception@std@@@8??0exception@std@@QEAA@AEBV01@@Z24
xdata$x	ENDS
;	COMDAT KSPROPSETID_LowLatencyAudio
CONST	SEGMENT
KSPROPSETID_LowLatencyAudio DD 016af08fH
	DW	0f499H
	DW	04637H
	DB	0b7H
	DB	0a5H
	DB	0afH
	DB	0c0H
	DB	01cH
	DB	086H
	DB	027H
	DB	06fH
CONST	ENDS
;	COMDAT ??_R4CUSBAsio@@6BCUnknown@@@
rdata$r	SEGMENT
??_R4CUSBAsio@@6BCUnknown@@@ DD 01H			; CUSBAsio::`RTTI Complete Object Locator'
	DD	08H
	DD	00H
	DD	imagerel ??_R0?AVCUSBAsio@@@8
	DD	imagerel ??_R3CUSBAsio@@8
	DD	imagerel ??_R4CUSBAsio@@6BCUnknown@@@
rdata$r	ENDS
;	COMDAT ??_R2exception@std@@8
rdata$r	SEGMENT
??_R2exception@std@@8 DD imagerel ??_R1A@?0A@EA@exception@std@@8 ; std::exception::`RTTI Base Class Array'
	ORG $+3
rdata$r	ENDS
;	COMDAT ??_R2ResultException@wil@@8
rdata$r	SEGMENT
??_R2ResultException@wil@@8 DD imagerel ??_R1A@?0A@EA@ResultException@wil@@8 ; wil::ResultException::`RTTI Base Class Array'
	DD	imagerel ??_R1A@?0A@EA@exception@std@@8
	ORG $+3
rdata$r	ENDS
;	COMDAT ??_R2IASIO@@8
rdata$r	SEGMENT
??_R2IASIO@@8 DD imagerel ??_R1A@?0A@EA@IASIO@@8	; IASIO::`RTTI Base Class Array'
	DD	imagerel ??_R1A@?0A@EA@IUnknown@@8
	ORG $+3
rdata$r	ENDS
;	COMDAT ??_R0?AVResultException@wil@@@8
data$r	SEGMENT
??_R0?AVResultException@wil@@@8 DQ FLAT:??_7type_info@@6B@ ; wil::ResultException `RTTI Type Descriptor'
	DQ	0000000000000000H
	DB	'.?AVResultException@wil@@', 00H
data$r	ENDS
;	COMDAT ??_R1A@?0A@EA@ResultException@wil@@8
rdata$r	SEGMENT
??_R1A@?0A@EA@ResultException@wil@@8 DD imagerel ??_R0?AVResultException@wil@@@8 ; wil::ResultException::`RTTI Base Class Descriptor at (0,-1,0,64)'
	DD	01H
	DD	00H
	DD	0ffffffffH
	DD	00H
	DD	040H
	DD	imagerel ??_R3ResultException@wil@@8
rdata$r	ENDS
;	COMDAT ??_R1BA@?0A@EA@CBaseObject@@8
rdata$r	SEGMENT
??_R1BA@?0A@EA@CBaseObject@@8 DD imagerel ??_R0?AVCBaseObject@@@8 ; CBaseObject::`RTTI Base Class Descriptor at (16,-1,0,64)'
	DD	00H
	DD	010H
	DD	0ffffffffH
	DD	00H
	DD	040H
	DD	imagerel ??_R3CBaseObject@@8
rdata$r	ENDS
;	COMDAT ??_7CUSBAsio@@6BIASIO@@@
CONST	SEGMENT
??_7CUSBAsio@@6BIASIO@@@ DQ FLAT:??_R4CUSBAsio@@6BIASIO@@@ ; CUSBAsio::`vftable'
	DQ	FLAT:?QueryInterface@CUSBAsio@@UEAAJAEBU_GUID@@PEAPEAX@Z
	DQ	FLAT:?AddRef@CUSBAsio@@UEAAKXZ
	DQ	FLAT:?Release@CUSBAsio@@UEAAKXZ
	DQ	FLAT:?init@CUSBAsio@@UEAAJPEAX@Z
	DQ	FLAT:?getDriverName@CUSBAsio@@UEAAXPEAD@Z
	DQ	FLAT:?getDriverVersion@CUSBAsio@@UEAAJXZ
	DQ	FLAT:?getErrorMessage@CUSBAsio@@UEAAXPEAD@Z
	DQ	FLAT:?start@CUSBAsio@@UEAAJXZ
	DQ	FLAT:?stop@CUSBAsio@@UEAAJXZ
	DQ	FLAT:?getChannels@CUSBAsio@@UEAAJPEAJ0@Z
	DQ	FLAT:?getLatencies@CUSBAsio@@UEAAJPEAJ0@Z
	DQ	FLAT:?getBufferSize@CUSBAsio@@UEAAJPEAJ000@Z
	DQ	FLAT:?canSampleRate@CUSBAsio@@UEAAJN@Z
	DQ	FLAT:?getSampleRate@CUSBAsio@@UEAAJPEAN@Z
	DQ	FLAT:?setSampleRate@CUSBAsio@@UEAAJN@Z
	DQ	FLAT:?getClockSources@CUSBAsio@@UEAAJPEAUASIOClockSource@@PEAJ@Z
	DQ	FLAT:?setClockSource@CUSBAsio@@UEAAJJ@Z
	DQ	FLAT:?getSamplePosition@CUSBAsio@@UEAAJPEAUASIOSamples@@PEAUASIOTimeStamp@@@Z
	DQ	FLAT:?getChannelInfo@CUSBAsio@@UEAAJPEAUASIOChannelInfo@@@Z
	DQ	FLAT:?createBuffers@CUSBAsio@@UEAAJPEAUASIOBufferInfo@@JJPEAUASIOCallbacks@@@Z
	DQ	FLAT:?disposeBuffers@CUSBAsio@@UEAAJXZ
	DQ	FLAT:?controlPanel@CUSBAsio@@UEAAJXZ
	DQ	FLAT:?future@CUSBAsio@@UEAAJJPEAX@Z
	DQ	FLAT:?outputReady@CUSBAsio@@UEAAJXZ
CONST	ENDS
;	COMDAT ??_R1A@?0A@EA@exception@std@@8
rdata$r	SEGMENT
??_R1A@?0A@EA@exception@std@@8 DD imagerel ??_R0?AVexception@std@@@8 ; std::exception::`RTTI Base Class Descriptor at (0,-1,0,64)'
	DD	00H
	DD	00H
	DD	0ffffffffH
	DD	00H
	DD	040H
	DD	imagerel ??_R3exception@std@@8
rdata$r	ENDS
;	COMDAT ??_7IASIO@@6B@
CONST	SEGMENT
??_7IASIO@@6B@ DQ FLAT:??_R4IASIO@@6B@			; IASIO::`vftable'
	DQ	FLAT:_purecall
	DQ	FLAT:_purecall
	DQ	FLAT:_purecall
	DQ	FLAT:_purecall
	DQ	FLAT:_purecall
	DQ	FLAT:_purecall
	DQ	FLAT:_purecall
	DQ	FLAT:_purecall
	DQ	FLAT:_purecall
	DQ	FLAT:_purecall
	DQ	FLAT:_purecall
	DQ	FLAT:_purecall
	DQ	FLAT:_purecall
	DQ	FLAT:_purecall
	DQ	FLAT:_purecall
	DQ	FLAT:_purecall
	DQ	FLAT:_purecall
	DQ	FLAT:_purecall
	DQ	FLAT:_purecall
	DQ	FLAT:_purecall
	DQ	FLAT:_purecall
	DQ	FLAT:_purecall
	DQ	FLAT:_purecall
	DQ	FLAT:_purecall
CONST	ENDS
;	COMDAT ??_7CUSBAsio@@6BCUnknown@@@
CONST	SEGMENT
??_7CUSBAsio@@6BCUnknown@@@ DQ FLAT:??_R4CUSBAsio@@6BCUnknown@@@ ; CUSBAsio::`vftable'
	DQ	FLAT:?NonDelegatingQueryInterface@CUSBAsio@@UEAAJAEBU_GUID@@PEAPEAX@Z
	DQ	FLAT:?NonDelegatingAddRef@CUnknown@@UEAAKXZ
	DQ	FLAT:?NonDelegatingRelease@CUnknown@@UEAAKXZ
	DQ	FLAT:??_ECUSBAsio@@W7EAAPEAXI@Z
CONST	ENDS
;	COMDAT ??_R2CUSBAsio@@8
rdata$r	SEGMENT
??_R2CUSBAsio@@8 DD imagerel ??_R1A@?0A@EA@CUSBAsio@@8	; CUSBAsio::`RTTI Base Class Array'
	DD	imagerel ??_R1A@?0A@EA@IASIO@@8
	DD	imagerel ??_R1A@?0A@EA@IUnknown@@8
	DD	imagerel ??_R17?0A@EA@CUnknown@@8
	DD	imagerel ??_R17?0A@EA@INonDelegatingUnknown@@8
	DD	imagerel ??_R1BA@?0A@EA@CBaseObject@@8
	ORG $+3
rdata$r	ENDS
interprocess	SEGMENT
?g_WorkerThread@@3JA DD 00H				; g_WorkerThread
?g_AsioResetThread@@3JA DD 00H				; g_AsioResetThread
?g_Instance@@3JA DD 00H					; g_Instance
interprocess	ENDS
;	COMDAT ??_R1A@?0A@EA@IASIO@@8
rdata$r	SEGMENT
??_R1A@?0A@EA@IASIO@@8 DD imagerel ??_R0?AUIASIO@@@8	; IASIO::`RTTI Base Class Descriptor at (0,-1,0,64)'
	DD	01H
	DD	00H
	DD	0ffffffffH
	DD	00H
	DD	040H
	DD	imagerel ??_R3IASIO@@8
rdata$r	ENDS
;	COMDAT ??_R3ResultException@wil@@8
rdata$r	SEGMENT
??_R3ResultException@wil@@8 DD 00H			; wil::ResultException::`RTTI Class Hierarchy Descriptor'
	DD	00H
	DD	02H
	DD	imagerel ??_R2ResultException@wil@@8
rdata$r	ENDS
;	COMDAT ??_R17?0A@EA@INonDelegatingUnknown@@8
rdata$r	SEGMENT
??_R17?0A@EA@INonDelegatingUnknown@@8 DD imagerel ??_R0?AUINonDelegatingUnknown@@@8 ; INonDelegatingUnknown::`RTTI Base Class Descriptor at (8,-1,0,64)'
	DD	00H
	DD	08H
	DD	0ffffffffH
	DD	00H
	DD	040H
	DD	imagerel ??_R3INonDelegatingUnknown@@8
rdata$r	ENDS
;	COMDAT ??_R0?AVbad_alloc@std@@@8
data$r	SEGMENT
??_R0?AVbad_alloc@std@@@8 DQ FLAT:??_7type_info@@6B@	; std::bad_alloc `RTTI Type Descriptor'
	DQ	0000000000000000H
	DB	'.?AVbad_alloc@std@@', 00H
data$r	ENDS
;	COMDAT ??_R3CUSBAsio@@8
rdata$r	SEGMENT
??_R3CUSBAsio@@8 DD 00H					; CUSBAsio::`RTTI Class Hierarchy Descriptor'
	DD	01H
	DD	06H
	DD	imagerel ??_R2CUSBAsio@@8
rdata$r	ENDS
;	COMDAT ??_R3IASIO@@8
rdata$r	SEGMENT
??_R3IASIO@@8 DD 00H					; IASIO::`RTTI Class Hierarchy Descriptor'
	DD	00H
	DD	02H
	DD	imagerel ??_R2IASIO@@8
rdata$r	ENDS
;	COMDAT ??_R4exception@std@@6B@
rdata$r	SEGMENT
??_R4exception@std@@6B@ DD 01H				; std::exception::`RTTI Complete Object Locator'
	DD	00H
	DD	00H
	DD	imagerel ??_R0?AVexception@std@@@8
	DD	imagerel ??_R3exception@std@@8
	DD	imagerel ??_R4exception@std@@6B@
rdata$r	ENDS
;	COMDAT ??_R4IASIO@@6B@
rdata$r	SEGMENT
??_R4IASIO@@6B@ DD 01H					; IASIO::`RTTI Complete Object Locator'
	DD	00H
	DD	00H
	DD	imagerel ??_R0?AUIASIO@@@8
	DD	imagerel ??_R3IASIO@@8
	DD	imagerel ??_R4IASIO@@6B@
rdata$r	ENDS
;	COMDAT _GUID_6994ad04_93ef_11d0_a3cc_00a0c9223196
CONST	SEGMENT
_GUID_6994ad04_93ef_11d0_a3cc_00a0c9223196 DD 06994ad04H
	DW	093efH
	DW	011d0H
	DB	0a3H
	DB	0ccH
	DB	00H
	DB	0a0H
	DB	0c9H
	DB	022H
	DB	031H
	DB	096H
CONST	ENDS
;	COMDAT ??_C@_09FJFDCAPM@Pro?5Audio@
CONST	SEGMENT
??_C@_09FJFDCAPM@Pro?5Audio@ DB 'Pro Audio', 00H	; `string'
CONST	ENDS
;	COMDAT ??_C@_06DIJPEION@?$CFs?$CFs?$CFs@
CONST	SEGMENT
??_C@_06DIJPEION@?$CFs?$CFs?$CFs@ DB '%s%s%s', 00H	; `string'
CONST	ENDS
;	COMDAT ??_C@_0BI@EKCPACDK@USBAsioControlPanel?4exe@
CONST	SEGMENT
??_C@_0BI@EKCPACDK@USBAsioControlPanel?4exe@ DB 'USBAsioControlPanel.exe', 00H ; `string'
CONST	ENDS
;	COMDAT ??_C@_0L@CIJEIFL@channel?5?$CFu@
CONST	SEGMENT
??_C@_0L@CIJEIFL@channel?5?$CFu@ DB 'channel %u', 00H	; `string'
CONST	ENDS
;	COMDAT ??_C@_02KPKOKMHB@?$CFS@
CONST	SEGMENT
??_C@_02KPKOKMHB@?$CFS@ DB '%S', 00H			; `string'
CONST	ENDS
;	COMDAT ??_C@_08KPIIIDA@CUSBAsio@
CONST	SEGMENT
??_C@_08KPIIIDA@CUSBAsio@ DB 'CUSBAsio', 00H		; `string'
CONST	ENDS
;	COMDAT ??_C@_0CA@OPFFDHMA@Unregister?5Server?5failed?5?$CB?5?$CI?$CFd?$CJ@
CONST	SEGMENT
??_C@_0CA@OPFFDHMA@Unregister?5Server?5failed?5?$CB?5?$CI?$CFd?$CJ@ DB 'U'
	DB	'nregister Server failed ! (%d)', 00H	; `string'
CONST	ENDS
;	COMDAT ??_C@_0BO@KGBEPONM@Register?5Server?5failed?5?$CB?5?$CI?$CFd?$CJ@
CONST	SEGMENT
??_C@_0BO@KGBEPONM@Register?5Server?5failed?5?$CB?5?$CI?$CFd?$CJ@ DB 'Reg'
	DB	'ister Server failed ! (%d)', 00H		; `string'
CONST	ENDS
;	COMDAT ??_C@_0M@BFGLKKGE@USBAsio?4dll@
CONST	SEGMENT
??_C@_0M@BFGLKKGE@USBAsio?4dll@ DB 'USBAsio.dll', 00H	; `string'
CONST	ENDS
;	COMDAT ??_C@_08JKCDEOBL@USB?5ASIO@
CONST	SEGMENT
??_C@_08JKCDEOBL@USB?5ASIO@ DB 'USB ASIO', 00H		; `string'
CONST	ENDS
;	COMDAT ??_C@_09OOLPICH@Apartment@
CONST	SEGMENT
??_C@_09OOLPICH@Apartment@ DB 'Apartment', 00H		; `string'
CONST	ENDS
;	COMDAT ??_C@_1BG@NOBPGPPM@?$AAY?$AAS?$AAU?$AAS?$AAB?$AA_?$AAA?$AAS?$AAI?$AAO@
CONST	SEGMENT
??_C@_1BG@NOBPGPPM@?$AAY?$AAS?$AAU?$AAS?$AAB?$AA_?$AAA?$AAS?$AAI?$AAO@ DB 'Y'
	DB	00H, 'S', 00H, 'U', 00H, 'S', 00H, 'B', 00H, '_', 00H, 'A', 00H
	DB	'S', 00H, 'I', 00H, 'O', 00H, 00H, 00H	; `string'
CONST	ENDS
;	COMDAT ??_C@_0O@LGMBKNOO@RenderDevice0@
CONST	SEGMENT
??_C@_0O@LGMBKNOO@RenderDevice0@ DB 'RenderDevice0', 00H ; `string'
CONST	ENDS
;	COMDAT ??_C@_0O@CHCBIFB@USBAudio2?9ACX@
CONST	SEGMENT
??_C@_0O@CHCBIFB@USBAudio2?9ACX@ DB 'USBAudio2-ACX', 00H ; `string'
CONST	ENDS
;	COMDAT ??_C@_0BH@ECDADGG@OutBulkOperationOffset@
CONST	SEGMENT
??_C@_0BH@ECDADGG@OutBulkOperationOffset@ DB 'OutBulkOperationOffset', 00H ; `string'
CONST	ENDS
;	COMDAT ??_C@_0BB@GLAIOBJJ@DropoutDetection@
CONST	SEGMENT
??_C@_0BB@GLAIOBJJ@DropoutDetection@ DB 'DropoutDetection', 00H ; `string'
CONST	ENDS
;	COMDAT ??_C@_0BF@BAAHAIB@BufferThreadPriority@
CONST	SEGMENT
??_C@_0BF@BAAHAIB@BufferThreadPriority@ DB 'BufferThreadPriority', 00H ; `string'
CONST	ENDS
;	COMDAT ??_C@_0M@IIIMLOLG@InHubOffset@
CONST	SEGMENT
??_C@_0M@IIIMLOLG@InHubOffset@ DB 'InHubOffset', 00H	; `string'
CONST	ENDS
;	COMDAT ??_C@_0BI@IIKKMOIC@InBufferOperationOffset@
CONST	SEGMENT
??_C@_0BI@IIKKMOIC@InBufferOperationOffset@ DB 'InBufferOperationOffset', 00H ; `string'
CONST	ENDS
;	COMDAT ??_C@_0N@DLKKJNAP@OutHubOffset@
CONST	SEGMENT
??_C@_0N@DLKKJNAP@OutHubOffset@ DB 'OutHubOffset', 00H	; `string'
CONST	ENDS
;	COMDAT ??_C@_0BJ@ENDJMLOO@OutBufferOperationOffset@
CONST	SEGMENT
??_C@_0BJ@ENDJMLOO@OutBufferOperationOffset@ DB 'OutBufferOperationOffset'
	DB	00H						; `string'
CONST	ENDS
;	COMDAT ??_C@_0L@ONBBLLLB@AsioDevice@
CONST	SEGMENT
??_C@_0L@ONBBLLLB@AsioDevice@ DB 'AsioDevice', 00H	; `string'
CONST	ENDS
;	COMDAT ??_C@_0BK@JNKNPGNG@DelayedOutputBufferSwitch@
CONST	SEGMENT
??_C@_0BK@JNKNPGNG@DelayedOutputBufferSwitch@ DB 'DelayedOutputBufferSwit'
	DB	'ch', 00H					; `string'
CONST	ENDS
;	COMDAT ??_C@_0BB@PIAJBBGI@OutputFrameDelay@
CONST	SEGMENT
??_C@_0BB@PIAJBBGI@OutputFrameDelay@ DB 'OutputFrameDelay', 00H ; `string'
CONST	ENDS
;	COMDAT ??_C@_0O@DDKFKBEA@PreSendFrames@
CONST	SEGMENT
??_C@_0O@DDKFKBEA@PreSendFrames@ DB 'PreSendFrames', 00H ; `string'
CONST	ENDS
;	COMDAT ??_C@_0BD@JPDMMNEG@FirstPacketLatency@
CONST	SEGMENT
??_C@_0BD@JPDMMNEG@FirstPacketLatency@ DB 'FirstPacketLatency', 00H ; `string'
CONST	ENDS
;	COMDAT ??_C@_0N@BNFIBEN@MaxIrpNumber@
CONST	SEGMENT
??_C@_0N@BNFIBEN@MaxIrpNumber@ DB 'MaxIrpNumber', 00H	; `string'
CONST	ENDS
;	COMDAT ??_C@_0BF@IAHDLOFO@ClassicFramesPerIrp2@
CONST	SEGMENT
??_C@_0BF@IAHDLOFO@ClassicFramesPerIrp2@ DB 'ClassicFramesPerIrp2', 00H ; `string'
CONST	ENDS
;	COMDAT ??_C@_0BE@NOAOMEBF@ClassicFramesPerIrp@
CONST	SEGMENT
??_C@_0BE@NOAOMEBF@ClassicFramesPerIrp@ DB 'ClassicFramesPerIrp', 00H ; `string'
CONST	ENDS
;	COMDAT ??_C@_0N@FDBGAPPM@PeriodFrames@
CONST	SEGMENT
??_C@_0N@FDBGAPPM@PeriodFrames@ DB 'PeriodFrames', 00H	; `string'
CONST	ENDS
;	COMDAT ??_C@_0BC@CNPFEPCO@FixedSamplingRate@
CONST	SEGMENT
??_C@_0BC@CNPFEPCO@FixedSamplingRate@ DB 'FixedSamplingRate', 00H ; `string'
CONST	ENDS
;	COMDAT ??_C@_0CE@FGCAAGLA@Software?2Microsoft?2Windows?5USB?5@
CONST	SEGMENT
??_C@_0CE@FGCAAGLA@Software?2Microsoft?2Windows?5USB?5@ DB 'Software\Micr'
	DB	'osoft\Windows USB ASIO', 00H		; `string'
CONST	ENDS
;	COMDAT ??_C@_1CI@KEGLKJIE@?$AAs?$AAt?$AAd?$AA?3?$AA?3?$AAe?$AAx?$AAc?$AAe?$AAp?$AAt?$AAi?$AAo?$AAn?$AA?3@
CONST	SEGMENT
??_C@_1CI@KEGLKJIE@?$AAs?$AAt?$AAd?$AA?3?$AA?3?$AAe?$AAx?$AAc?$AAe?$AAp?$AAt?$AAi?$AAo?$AAn?$AA?3@ DB 's'
	DB	00H, 't', 00H, 'd', 00H, ':', 00H, ':', 00H, 'e', 00H, 'x', 00H
	DB	'c', 00H, 'e', 00H, 'p', 00H, 't', 00H, 'i', 00H, 'o', 00H, 'n'
	DB	00H, ':', 00H, ' ', 00H, '%', 00H, 'h', 00H, 's', 00H, 00H, 00H ; `string'
CONST	ENDS
;	COMDAT ??_C@_0O@KIMGFJMA@WIL?5Exception@
CONST	SEGMENT
??_C@_0O@KIMGFJMA@WIL?5Exception@ DB 'WIL Exception', 00H ; `string'
CONST	ENDS
;	COMDAT ??_C@_0BH@EEDPADAA@RaiseFailFastException@
CONST	SEGMENT
??_C@_0BH@EEDPADAA@RaiseFailFastException@ DB 'RaiseFailFastException', 00H ; `string'
CONST	ENDS
;	COMDAT ??_C@_1BO@MFOKJHPK@?$AAk?$AAe?$AAr?$AAn?$AAe?$AAl?$AAb?$AAa?$AAs?$AAe?$AA?4?$AAd?$AAl?$AAl@
CONST	SEGMENT
??_C@_1BO@MFOKJHPK@?$AAk?$AAe?$AAr?$AAn?$AAe?$AAl?$AAb?$AAa?$AAs?$AAe?$AA?4?$AAd?$AAl?$AAl@ DB 'k'
	DB	00H, 'e', 00H, 'r', 00H, 'n', 00H, 'e', 00H, 'l', 00H, 'b', 00H
	DB	'a', 00H, 's', 00H, 'e', 00H, '.', 00H, 'd', 00H, 'l', 00H, 'l'
	DB	00H, 00H, 00H				; `string'
CONST	ENDS
;	COMDAT ??_C@_13LBAGMAIH@?$AA?6@
CONST	SEGMENT
??_C@_13LBAGMAIH@?$AA?6@ DB 0aH, 00H, 00H, 00H		; `string'
CONST	ENDS
;	COMDAT ??_C@_1O@PJKHPDBK@?$AA?$FL?$AA?$CF?$AAh?$AAs?$AA?$FN?$AA?6@
CONST	SEGMENT
??_C@_1O@PJKHPDBK@?$AA?$FL?$AA?$CF?$AAh?$AAs?$AA?$FN?$AA?6@ DB '[', 00H, '%'
	DB	00H, 'h', 00H, 's', 00H, ']', 00H, 0aH, 00H, 00H, 00H ; `string'
CONST	ENDS
;	COMDAT ??_C@_1BI@PKOCHLJN@?$AA?$FL?$AA?$CF?$AAh?$AAs?$AA?$CI?$AA?$CF?$AAh?$AAs?$AA?$CJ?$AA?$FN?$AA?6@
CONST	SEGMENT
??_C@_1BI@PKOCHLJN@?$AA?$FL?$AA?$CF?$AAh?$AAs?$AA?$CI?$AA?$CF?$AAh?$AAs?$AA?$CJ?$AA?$FN?$AA?6@ DB '['
	DB	00H, '%', 00H, 'h', 00H, 's', 00H, '(', 00H, '%', 00H, 'h', 00H
	DB	's', 00H, ')', 00H, ']', 00H, 0aH, 00H, 00H, 00H ; `string'
CONST	ENDS
;	COMDAT ??_C@_1CG@CGJKEFKG@?$AAC?$AAa?$AAl?$AAl?$AAC?$AAo?$AAn?$AAt?$AAe?$AAx?$AAt?$AA?3?$AA?$FL?$AA?$CF?$AAh@
CONST	SEGMENT
??_C@_1CG@CGJKEFKG@?$AAC?$AAa?$AAl?$AAl?$AAC?$AAo?$AAn?$AAt?$AAe?$AAx?$AAt?$AA?3?$AA?$FL?$AA?$CF?$AAh@ DB 'C'
	DB	00H, 'a', 00H, 'l', 00H, 'l', 00H, 'C', 00H, 'o', 00H, 'n', 00H
	DB	't', 00H, 'e', 00H, 'x', 00H, 't', 00H, ':', 00H, '[', 00H, '%'
	DB	00H, 'h', 00H, 's', 00H, ']', 00H, ' ', 00H, 00H, 00H ; `string'
CONST	ENDS
;	COMDAT ??_C@_1BG@MCLOHHAM@?$AAM?$AAs?$AAg?$AA?3?$AA?$FL?$AA?$CF?$AAw?$AAs?$AA?$FN?$AA?5@
CONST	SEGMENT
??_C@_1BG@MCLOHHAM@?$AAM?$AAs?$AAg?$AA?3?$AA?$FL?$AA?$CF?$AAw?$AAs?$AA?$FN?$AA?5@ DB 'M'
	DB	00H, 's', 00H, 'g', 00H, ':', 00H, '[', 00H, '%', 00H, 'w', 00H
	DB	's', 00H, ']', 00H, ' ', 00H, 00H, 00H	; `string'
CONST	ENDS
;	COMDAT ??_C@_19NMAFMAH@?$AA?5?$AA?5?$AA?5?$AA?5@
CONST	SEGMENT
??_C@_19NMAFMAH@?$AA?5?$AA?5?$AA?5?$AA?5@ DB ' ', 00H, ' ', 00H, ' ', 00H
	DB	' ', 00H, 00H, 00H				; `string'
CONST	ENDS
;	COMDAT ??_C@_1DC@MFHOKFOG@?$AA?$CF?$AAh?$AAs?$AA?$CI?$AA?$CF?$AAd?$AA?$CJ?$AA?5?$AAt?$AAi?$AAd?$AA?$CI?$AA?$CF?$AAx?$AA?$CJ@
CONST	SEGMENT
??_C@_1DC@MFHOKFOG@?$AA?$CF?$AAh?$AAs?$AA?$CI?$AA?$CF?$AAd?$AA?$CJ?$AA?5?$AAt?$AAi?$AAd?$AA?$CI?$AA?$CF?$AAx?$AA?$CJ@ DB '%'
	DB	00H, 'h', 00H, 's', 00H, '(', 00H, '%', 00H, 'd', 00H, ')', 00H
	DB	' ', 00H, 't', 00H, 'i', 00H, 'd', 00H, '(', 00H, '%', 00H, 'x'
	DB	00H, ')', 00H, ' ', 00H, '%', 00H, '0', 00H, '8', 00H, 'X', 00H
	DB	' ', 00H, '%', 00H, 'w', 00H, 's', 00H, 00H, 00H ; `string'
CONST	ENDS
;	COMDAT ??_C@_1BM@EAHLIJPA@?$AA?$CI?$AAc?$AAa?$AAl?$AAl?$AAe?$AAr?$AA?3?$AA?5?$AA?$CF?$AAp?$AA?$CJ?$AA?5@
CONST	SEGMENT
??_C@_1BM@EAHLIJPA@?$AA?$CI?$AAc?$AAa?$AAl?$AAl?$AAe?$AAr?$AA?3?$AA?5?$AA?$CF?$AAp?$AA?$CJ?$AA?5@ DB '('
	DB	00H, 'c', 00H, 'a', 00H, 'l', 00H, 'l', 00H, 'e', 00H, 'r', 00H
	DB	':', 00H, ' ', 00H, '%', 00H, 'p', 00H, ')', 00H, ' ', 00H, 00H
	DB	00H						; `string'
CONST	ENDS
;	COMDAT ??_C@_1BC@HOGHCIFF@?$AA?$CF?$AAh?$AAs?$AA?$CB?$AA?$CF?$AAp?$AA?3?$AA?5@
CONST	SEGMENT
??_C@_1BC@HOGHCIFF@?$AA?$CF?$AAh?$AAs?$AA?$CB?$AA?$CF?$AAp?$AA?3?$AA?5@ DB '%'
	DB	00H, 'h', 00H, 's', 00H, '!', 00H, '%', 00H, 'p', 00H, ':', 00H
	DB	' ', 00H, 00H, 00H				; `string'
CONST	ENDS
;	COMDAT ??_C@_1CC@NCIPMFAO@?$AA?$CF?$AAh?$AAs?$AA?$CI?$AA?$CF?$AAu?$AA?$CJ?$AA?2?$AA?$CF?$AAh?$AAs?$AA?$CB?$AA?$CF?$AAp?$AA?3@
CONST	SEGMENT
??_C@_1CC@NCIPMFAO@?$AA?$CF?$AAh?$AAs?$AA?$CI?$AA?$CF?$AAu?$AA?$CJ?$AA?2?$AA?$CF?$AAh?$AAs?$AA?$CB?$AA?$CF?$AAp?$AA?3@ DB '%'
	DB	00H, 'h', 00H, 's', 00H, '(', 00H, '%', 00H, 'u', 00H, ')', 00H
	DB	'\', 00H, '%', 00H, 'h', 00H, 's', 00H, '!', 00H, '%', 00H, 'p'
	DB	00H, ':', 00H, ' ', 00H, 00H, 00H		; `string'
CONST	ENDS
;	COMDAT ??_C@_08IAOKKAJK@FailFast@
CONST	SEGMENT
??_C@_08IAOKKAJK@FailFast@ DB 'FailFast', 00H		; `string'
CONST	ENDS
;	COMDAT ??_C@_05OILEHMGB@LogHr@
CONST	SEGMENT
??_C@_05OILEHMGB@LogHr@ DB 'LogHr', 00H			; `string'
CONST	ENDS
;	COMDAT ??_C@_05LKGDKHFF@LogNt@
CONST	SEGMENT
??_C@_05LKGDKHFF@LogNt@ DB 'LogNt', 00H			; `string'
CONST	ENDS
;	COMDAT ??_C@_08KFPKLAKH@ReturnHr@
CONST	SEGMENT
??_C@_08KFPKLAKH@ReturnHr@ DB 'ReturnHr', 00H		; `string'
CONST	ENDS
;	COMDAT ??_C@_08PHCNGLJD@ReturnNt@
CONST	SEGMENT
??_C@_08PHCNGLJD@ReturnNt@ DB 'ReturnNt', 00H		; `string'
CONST	ENDS
;	COMDAT ??_C@_09FBNMMHMJ@Exception@
CONST	SEGMENT
??_C@_09FBNMMHMJ@Exception@ DB 'Exception', 00H		; `string'
CONST	ENDS
;	COMDAT ??_C@_0BC@EOODALEL@Unknown?5exception@
CONST	SEGMENT
??_C@_0BC@EOODALEL@Unknown?5exception@ DB 'Unknown exception', 00H ; `string'
CONST	ENDS
;	COMDAT ??_C@_00CNPNBAHC@@
CONST	SEGMENT
??_C@_00CNPNBAHC@@ DB 00H				; `string'
?g_NumOfTemplates@@3HA DD 01H				; g_NumOfTemplates
	ORG $+4
?c_PeriodFramesValueName@@3PEBDEB DQ FLAT:??_C@_0N@FDBGAPPM@PeriodFrames@ ; c_PeriodFramesValueName
?c_RegistryKeyName@@3PEBDEB DQ FLAT:??_C@_0CE@FGCAAGLA@Software?2Microsoft?2Windows?5USB?5@ ; c_RegistryKeyName
?c_DropoutDetectionName@@3PEBDEB DQ FLAT:??_C@_0BB@GLAIOBJJ@DropoutDetection@ ; c_DropoutDetectionName
?c_FirstPacketLatencyValueName@@3PEBDEB DQ FLAT:??_C@_0BD@JPDMMNEG@FirstPacketLatency@ ; c_FirstPacketLatencyValueName
?c_OutputHubOffsetName@@3PEBDEB DQ FLAT:??_C@_0N@DLKKJNAP@OutHubOffset@ ; c_OutputHubOffsetName
?c_FrameRateList@@3QBKB DD 02b11H			; c_FrameRateList
	DD	05622H
	DD	07d00H
	DD	0ac44H
	DD	0bb80H
	DD	015888H
	DD	017700H
	DD	02b110H
	DD	02ee00H
	DD	056220H
	DD	05dc00H
	DD	0ac440H
	DD	0bb800H
	ORG $+4
?c_BufferThreadPriorityName@@3PEBDEB DQ FLAT:??_C@_0BF@BAAHAIB@BufferThreadPriority@ ; c_BufferThreadPriorityName
?c_OutputFrameDelayValueName@@3PEBDEB DQ FLAT:??_C@_0BB@PIAJBBGI@OutputFrameDelay@ ; c_OutputFrameDelayValueName
?c_ClassicFramesPerIrp2ValueName@@3PEBDEB DQ FLAT:??_C@_0BF@IAHDLOFO@ClassicFramesPerIrp2@ ; c_ClassicFramesPerIrp2ValueName
?c_ReferenceName@@3PEBDEB DQ FLAT:??_C@_0O@LGMBKNOO@RenderDevice0@ ; c_ReferenceName
?c_DelayedOutputBufferSwitchName@@3PEBDEB DQ FLAT:??_C@_0BK@JNKNPGNG@DelayedOutputBufferSwitch@ ; c_DelayedOutputBufferSwitchName
?c_AsioDeviceValueName@@3PEBDEB DQ FLAT:??_C@_0L@ONBBLLLB@AsioDevice@ ; c_AsioDeviceValueName
?c_ClassicFramesPerIrpValueName@@3PEBDEB DQ FLAT:??_C@_0BE@NOAOMEBF@ClassicFramesPerIrp@ ; c_ClassicFramesPerIrpValueName
?c_ServiceName@@3PEBDEB DQ FLAT:??_C@_0O@CHCBIFB@USBAudio2?9ACX@ ; c_ServiceName
?c_PreSendFramesValueName@@3PEBDEB DQ FLAT:??_C@_0O@DDKFKBEA@PreSendFrames@ ; c_PreSendFramesValueName
?c_MaxIrpNumberValueName@@3PEBDEB DQ FLAT:??_C@_0N@BNFIBEN@MaxIrpNumber@ ; c_MaxIrpNumberValueName
?c_FixedSamplingRateValueName@@3PEBDEB DQ FLAT:??_C@_0BC@CNPFEPCO@FixedSamplingRate@ ; c_FixedSamplingRateValueName
?c_InputBufferOperationOffsetName@@3PEBDEB DQ FLAT:??_C@_0BI@IIKKMOIC@InBufferOperationOffset@ ; c_InputBufferOperationOffsetName
?c_OutputBufferOperationOffsetName@@3PEBDEB DQ FLAT:??_C@_0BJ@ENDJMLOO@OutBufferOperationOffset@ ; c_OutputBufferOperationOffsetName
?c_InputHubOffsetName@@3PEBDEB DQ FLAT:??_C@_0M@IIIMLOLG@InHubOffset@ ; c_InputHubOffsetName
?g_Templates@@3PAVCFactoryTemplate@@A DQ FLAT:??_C@_1BG@NOBPGPPM@?$AAY?$AAS?$AAU?$AAS?$AAB?$AA_?$AAA?$AAS?$AAI?$AAO@ ; g_Templates
	DQ	FLAT:?IID_ASIO_DRIVER@@3U_GUID@@A
	DQ	FLAT:?CreateInstance@CUSBAsio@@SAPEAVCUnknown@@PEAUIUnknown@@PEAJ@Z
	ORG $+8
?IID_ASIO_DRIVER@@3U_GUID@@A DD 0327468a4H		; IID_ASIO_DRIVER
	DW	01351H
	DW	04930H
	DB	0bbH
	DB	06bH
	DB	0fH
	DB	0ebH
	DB	069H
	DB	0bfH
	DB	05dH
	DB	070H
PUBLIC	??_ECUSBAsio@@W7EAAPEAXI@Z			; [thunk]:CUSBAsio::`vector deleting destructor'
PUBLIC	?is_valid@?$resource_policy@PEAU_RTL_CRITICAL_SECTION@@P6AXPEAU1@@Z$1?LeaveCriticalSection@@YAX0@ZU?$integral_constant@_K$00@wistd@@PEAU1@PEAU1@$0A@$$T@details@wil@@SA_NPEAU_RTL_CRITICAL_SECTION@@@Z ; wil::details::resource_policy<_RTL_CRITICAL_SECTION *,void (__cdecl*)(_RTL_CRITICAL_SECTION *),&LeaveCriticalSection,wistd::integral_constant<unsigned __int64,1>,_RTL_CRITICAL_SECTION *,_RTL_CRITICAL_SECTION *,0,std::nullptr_t>::is_valid
PUBLIC	??0?$unique_storage@U?$resource_policy@PEAU_RTL_CRITICAL_SECTION@@P6AXPEAU1@@Z$1?LeaveCriticalSection@@YAX0@ZU?$integral_constant@_K$00@wistd@@PEAU1@PEAU1@$0A@$$T@details@wil@@@details@wil@@QEAA@PEAU_RTL_CRITICAL_SECTION@@@Z ; wil::details::unique_storage<wil::details::resource_policy<_RTL_CRITICAL_SECTION *,void (__cdecl*)(_RTL_CRITICAL_SECTION *),&LeaveCriticalSection,wistd::integral_constant<unsigned __int64,1>,_RTL_CRITICAL_SECTION *,_RTL_CRITICAL_SECTION *,0,std::nullptr_t> >::unique_storage<wil::details::resource_policy<_RTL_CRITICAL_SECTION *,void (__cdecl*)(_RTL_CRITICAL_SECTION *),&LeaveCriticalSection,wistd::integral_constant<unsigned __int64,1>,_RTL_CRITICAL_SECTION *,_RTL_CRITICAL_SECTION *,0,std::nullptr_t> >
PUBLIC	?close@?$close_invoke_helper@$00P6AXPEAU_RTL_CRITICAL_SECTION@@@Z$1?LeaveCriticalSection@@YAX0@ZPEAU1@@details@wil@@SAXPEAU_RTL_CRITICAL_SECTION@@@Z ; wil::details::close_invoke_helper<1,void (__cdecl*)(_RTL_CRITICAL_SECTION *),&LeaveCriticalSection,_RTL_CRITICAL_SECTION *>::close
PUBLIC	??$forward@AEAPEAU_RTL_CRITICAL_SECTION@@@wistd@@YAAEAPEAU_RTL_CRITICAL_SECTION@@AEAPEAU1@@Z ; wistd::forward<_RTL_CRITICAL_SECTION * &>
PUBLIC	??$assign_to_opt_param@PEBD@wil@@YAXPEAPEBDPEBD@Z ; wil::assign_to_opt_param<char const *>
PUBLIC	??$assign_null_to_opt_param@PEBD@wil@@YAXPEAPEBD@Z ; wil::assign_null_to_opt_param<char const *>
PUBLIC	??$assign_to_opt_param@PEB_W@wil@@YAXPEAPEB_WPEB_W@Z ; wil::assign_to_opt_param<wchar_t const *>
PUBLIC	??$assign_null_to_opt_param@PEB_W@wil@@YAXPEAPEB_W@Z ; wil::assign_null_to_opt_param<wchar_t const *>
PUBLIC	??1?$unique_storage@U?$resource_policy@PEAU_RTL_CRITICAL_SECTION@@P6AXPEAU1@@Z$1?LeaveCriticalSection@@YAX0@ZU?$integral_constant@_K$00@wistd@@PEAU1@PEAU1@$0A@$$T@details@wil@@@details@wil@@QEAA@XZ ; wil::details::unique_storage<wil::details::resource_policy<_RTL_CRITICAL_SECTION *,void (__cdecl*)(_RTL_CRITICAL_SECTION *),&LeaveCriticalSection,wistd::integral_constant<unsigned __int64,1>,_RTL_CRITICAL_SECTION *,_RTL_CRITICAL_SECTION *,0,std::nullptr_t> >::~unique_storage<wil::details::resource_policy<_RTL_CRITICAL_SECTION *,void (__cdecl*)(_RTL_CRITICAL_SECTION *),&LeaveCriticalSection,wistd::integral_constant<unsigned __int64,1>,_RTL_CRITICAL_SECTION *,_RTL_CRITICAL_SECTION *,0,std::nullptr_t> >
PUBLIC	??$?0AEAPEAU_RTL_CRITICAL_SECTION@@$$V@?$unique_any_t@V?$unique_storage@U?$resource_policy@PEAU_RTL_CRITICAL_SECTION@@P6AXPEAU1@@Z$1?LeaveCriticalSection@@YAX0@ZU?$integral_constant@_K$00@wistd@@PEAU1@PEAU1@$0A@$$T@details@wil@@@details@wil@@@wil@@QEAA@AEAPEAU_RTL_CRITICAL_SECTION@@@Z ; wil::unique_any_t<wil::details::unique_storage<wil::details::resource_policy<_RTL_CRITICAL_SECTION *,void (__cdecl*)(_RTL_CRITICAL_SECTION *),&LeaveCriticalSection,wistd::integral_constant<unsigned __int64,1>,_RTL_CRITICAL_SECTION *,_RTL_CRITICAL_SECTION *,0,std::nullptr_t> > >::unique_any_t<wil::details::unique_storage<wil::details::resource_policy<_RTL_CRITICAL_SECTION *,void (__cdecl*)(_RTL_CRITICAL_SECTION *),&LeaveCriticalSection,wistd::integral_constant<unsigned __int64,1>,_RTL_CRITICAL_SECTION *,_RTL_CRITICAL_SECTION *,0,std::nullptr_t> > ><_RTL_CRITICAL_SECTION * &>
PUBLIC	??$WriteResultString@PEBD@details@wil@@YAPEAEPEAE0PEBDPEAPEBD@Z ; wil::details::WriteResultString<char const *>
PUBLIC	??$WriteResultString@PEB_W@details@wil@@YAPEAEPEAE0PEB_WPEAPEB_W@Z ; wil::details::WriteResultString<wchar_t const *>
PUBLIC	??$GetProcAddress@P6AXPEAU_EXCEPTION_RECORD@@PEAU_CONTEXT@@K@Z@details@wil@@YAP6AXPEAU_EXCEPTION_RECORD@@PEAU_CONTEXT@@K@ZPEAUHINSTANCE__@@PEBD@Z ; wil::details::GetProcAddress<void (__cdecl*)(_EXCEPTION_RECORD *,_CONTEXT *,unsigned long)>
PUBLIC	??$assign_to_opt_param@I@wil@@YAXPEAII@Z	; wil::assign_to_opt_param<unsigned int>
PUBLIC	?WorkerThread@CUSBAsio@@CAIPEAX@Z		; CUSBAsio::WorkerThread
PUBLIC	?ThreadStop@CUSBAsio@@AEAAXXZ			; CUSBAsio::ThreadStop
PUBLIC	?ThreadStart@CUSBAsio@@AEAAXXZ			; CUSBAsio::ThreadStart
PUBLIC	?AsioResetThread@CUSBAsio@@CAIPEAX@Z		; CUSBAsio::AsioResetThread
PUBLIC	?RequestClockInfoChange@CUSBAsio@@AEAA_NXZ	; CUSBAsio::RequestClockInfoChange
PUBLIC	?ObtainDeviceParameter@CUSBAsio@@AEAA_NXZ	; CUSBAsio::ObtainDeviceParameter
PUBLIC	?GetDesiredPath@CUSBAsio@@AEAA_NXZ		; CUSBAsio::GetDesiredPath
PUBLIC	?ExecuteControlPanel@CUSBAsio@@AEAA_NXZ		; CUSBAsio::ExecuteControlPanel
PUBLIC	?ApplySettings@CUSBAsio@@AEAA_NXZ		; CUSBAsio::ApplySettings
PUBLIC	?MeasureLatency@CUSBAsio@@AEAA_NXZ		; CUSBAsio::MeasureLatency
PUBLIC	?outputReady@CUSBAsio@@UEAAJXZ			; CUSBAsio::outputReady
PUBLIC	?GetSupportedSampleFormats@CUSBAsio@@CAKXZ	; CUSBAsio::GetSupportedSampleFormats
PUBLIC	?BufferSwitchX@CUSBAsio@@AEAAXXZ		; CUSBAsio::BufferSwitchX
PUBLIC	?BufferSwitch@CUSBAsio@@QEAAXXZ			; CUSBAsio::BufferSwitch
PUBLIC	?future@CUSBAsio@@UEAAJJPEAX@Z			; CUSBAsio::future
PUBLIC	?controlPanel@CUSBAsio@@UEAAJXZ			; CUSBAsio::controlPanel
PUBLIC	?disposeBuffers@CUSBAsio@@UEAAJXZ		; CUSBAsio::disposeBuffers
PUBLIC	?createBuffers@CUSBAsio@@UEAAJPEAUASIOBufferInfo@@JJPEAUASIOCallbacks@@@Z ; CUSBAsio::createBuffers
PUBLIC	?getChannelInfo@CUSBAsio@@UEAAJPEAUASIOChannelInfo@@@Z ; CUSBAsio::getChannelInfo
PUBLIC	?getSamplePosition@CUSBAsio@@UEAAJPEAUASIOSamples@@PEAUASIOTimeStamp@@@Z ; CUSBAsio::getSamplePosition
PUBLIC	?setClockSource@CUSBAsio@@UEAAJJ@Z		; CUSBAsio::setClockSource
PUBLIC	?getClockSources@CUSBAsio@@UEAAJPEAUASIOClockSource@@PEAJ@Z ; CUSBAsio::getClockSources
PUBLIC	?setSampleRate@CUSBAsio@@UEAAJN@Z		; CUSBAsio::setSampleRate
PUBLIC	?getSampleRate@CUSBAsio@@UEAAJPEAN@Z		; CUSBAsio::getSampleRate
PUBLIC	?canSampleRate@CUSBAsio@@UEAAJN@Z		; CUSBAsio::canSampleRate
PUBLIC	?getBufferSize@CUSBAsio@@UEAAJPEAJ000@Z		; CUSBAsio::getBufferSize
PUBLIC	?getLatencies@CUSBAsio@@UEAAJPEAJ0@Z		; CUSBAsio::getLatencies
PUBLIC	?__autoclassinit2@?$unique_any_t@V?$unique_storage@U?$resource_policy@PEAU_RTL_CRITICAL_SECTION@@P6AXPEAU1@@Z$1?LeaveCriticalSection@@YAX0@ZU?$integral_constant@_K$00@wistd@@PEAU1@PEAU1@$0A@$$T@details@wil@@@details@wil@@@wil@@QEAAX_K@Z ; wil::unique_any_t<wil::details::unique_storage<wil::details::resource_policy<_RTL_CRITICAL_SECTION *,void (__cdecl*)(_RTL_CRITICAL_SECTION *),&LeaveCriticalSection,wistd::integral_constant<unsigned __int64,1>,_RTL_CRITICAL_SECTION *,_RTL_CRITICAL_SECTION *,0,std::nullptr_t> > >::__autoclassinit2
PUBLIC	?getChannels@CUSBAsio@@UEAAJPEAJ0@Z		; CUSBAsio::getChannels
PUBLIC	?stop@CUSBAsio@@UEAAJXZ				; CUSBAsio::stop
PUBLIC	?start@CUSBAsio@@UEAAJXZ			; CUSBAsio::start
PUBLIC	?init@CUSBAsio@@UEAAJPEAX@Z			; CUSBAsio::init
PUBLIC	?getErrorMessage@CUSBAsio@@UEAAXPEAD@Z		; CUSBAsio::getErrorMessage
PUBLIC	?getDriverVersion@CUSBAsio@@UEAAJXZ		; CUSBAsio::getDriverVersion
PUBLIC	?getDriverName@CUSBAsio@@UEAAXPEAD@Z		; CUSBAsio::getDriverName
PUBLIC	??1CUSBAsio@@UEAA@XZ				; CUSBAsio::~CUSBAsio
PUBLIC	??0IASIO@@QEAA@XZ				; IASIO::IASIO
PUBLIC	??_GCUSBAsio@@UEAAPEAXI@Z			; CUSBAsio::`scalar deleting destructor'
PUBLIC	??0CUSBAsio@@QEAA@PEAUIUnknown@@PEAJ@Z		; CUSBAsio::CUSBAsio
PUBLIC	?NonDelegatingQueryInterface@CUSBAsio@@UEAAJAEBU_GUID@@PEAPEAX@Z ; CUSBAsio::NonDelegatingQueryInterface
PUBLIC	?__autoclassinit2@CUSBAsio@@QEAAX_K@Z		; CUSBAsio::__autoclassinit2
PUBLIC	?CreateInstance@CUSBAsio@@SAPEAVCUnknown@@PEAUIUnknown@@PEAJ@Z ; CUSBAsio::CreateInstance
PUBLIC	?Release@CUSBAsio@@UEAAKXZ			; CUSBAsio::Release
PUBLIC	?AddRef@CUSBAsio@@UEAAKXZ			; CUSBAsio::AddRef
PUBLIC	?QueryInterface@CUSBAsio@@UEAAJAEBU_GUID@@PEAPEAX@Z ; CUSBAsio::QueryInterface
PUBLIC	?toInt@@YAHW4UACSampleType@@@Z			; toInt
PUBLIC	?toInt@@YAHW4UserThreadStatuses@@@Z		; toInt
PUBLIC	?toInt@@YAHW4DeviceStatuses@@@Z			; toInt
PUBLIC	?toULong@@YAKW4UACSampleFormat@@@Z		; toULong
PUBLIC	?GetOwner@CUnknown@@QEBAPEAUIUnknown@@XZ	; CUnknown::GetOwner
PUBLIC	?lock@critical_section@wil@@QEAA?AV?$unique_any_t@V?$unique_storage@U?$resource_policy@PEAU_RTL_CRITICAL_SECTION@@P6AXPEAU1@@Z$1?LeaveCriticalSection@@YAX0@ZU?$integral_constant@_K$00@wistd@@PEAU1@PEAU1@$0A@$$T@details@wil@@@details@wil@@@2@XZ ; wil::critical_section::lock
PUBLIC	??1critical_section@wil@@QEAA@XZ		; wil::critical_section::~critical_section
PUBLIC	??0critical_section@wil@@QEAA@K@Z		; wil::critical_section::critical_section
PUBLIC	??1?$unique_any_t@V?$unique_storage@U?$resource_policy@PEAU_RTL_CRITICAL_SECTION@@P6AXPEAU1@@Z$1?LeaveCriticalSection@@YAX0@ZU?$integral_constant@_K$00@wistd@@PEAU1@PEAU1@$0A@$$T@details@wil@@@details@wil@@@wil@@QEAA@XZ ; wil::unique_any_t<wil::details::unique_storage<wil::details::resource_policy<_RTL_CRITICAL_SECTION *,void (__cdecl*)(_RTL_CRITICAL_SECTION *),&LeaveCriticalSection,wistd::integral_constant<unsigned __int64,1>,_RTL_CRITICAL_SECTION *,_RTL_CRITICAL_SECTION *,0,std::nullptr_t> > >::~unique_any_t<wil::details::unique_storage<wil::details::resource_policy<_RTL_CRITICAL_SECTION *,void (__cdecl*)(_RTL_CRITICAL_SECTION *),&LeaveCriticalSection,wistd::integral_constant<unsigned __int64,1>,_RTL_CRITICAL_SECTION *,_RTL_CRITICAL_SECTION *,0,std::nullptr_t> > >
PUBLIC	?EnterCriticalSection@wil@@YA?AV?$unique_any_t@V?$unique_storage@U?$resource_policy@PEAU_RTL_CRITICAL_SECTION@@P6AXPEAU1@@Z$1?LeaveCriticalSection@@YAX0@ZU?$integral_constant@_K$00@wistd@@PEAU1@PEAU1@$0A@$$T@details@wil@@@details@wil@@@1@PEAU_RTL_CRITICAL_SECTION@@@Z ; wil::EnterCriticalSection
PUBLIC	?RunFunctorWithExceptionFilter@details@wil@@YAJAEAUIFunctor@12@AEAUIFunctorHost@12@PEAX@Z ; wil::details::RunFunctorWithExceptionFilter
PUBLIC	?ResultFromCaughtExceptionInternal@details@wil@@YA?AUResultStatus@12@PEA_W_KPEA_N@Z ; wil::details::ResultFromCaughtExceptionInternal
PUBLIC	??0StoredFailureInfo@wil@@QEAA@AEBV01@@Z	; wil::StoredFailureInfo::StoredFailureInfo
PUBLIC	??0ResultException@wil@@QEAA@AEBV01@@Z		; wil::ResultException::ResultException
PUBLIC	?ThrowResultExceptionInternal@details@wil@@YAXAEBUFailureInfo@2@@Z ; wil::details::ThrowResultExceptionInternal
PUBLIC	?Rethrow@details@wil@@YAXXZ			; wil::details::Rethrow
PUBLIC	?RecognizeCaughtExceptionFromCallback@details@wil@@YAJPEA_W_K@Z ; wil::details::RecognizeCaughtExceptionFromCallback
PUBLIC	?MaybeGetExceptionString@details@wil@@YAXAEBVexception@std@@PEA_W_K@Z ; wil::details::MaybeGetExceptionString
PUBLIC	?MaybeGetExceptionString@details@wil@@YAXAEBVResultException@2@PEA_W_K@Z ; wil::details::MaybeGetExceptionString
PUBLIC	??1StoredFailureInfo@wil@@QEAA@XZ		; wil::StoredFailureInfo::~StoredFailureInfo
PUBLIC	??1ResultException@wil@@UEAA@XZ			; wil::ResultException::~ResultException
PUBLIC	??_GResultException@wil@@UEAAPEAXI@Z		; wil::ResultException::`scalar deleting destructor'
PUBLIC	?what@ResultException@wil@@UEBAPEBDXZ		; wil::ResultException::what
PUBLIC	?GetFailureInfo@ResultException@wil@@QEBAAEBUFailureInfo@2@XZ ; wil::ResultException::GetFailureInfo
PUBLIC	??0ResultException@wil@@QEAA@AEBUFailureInfo@1@@Z ; wil::ResultException::ResultException
PUBLIC	?SetFailureInfo@StoredFailureInfo@wil@@QEAAXAEBUFailureInfo@2@@Z ; wil::StoredFailureInfo::SetFailureInfo
PUBLIC	?GetFailureInfo@StoredFailureInfo@wil@@QEBAAEBUFailureInfo@2@XZ ; wil::StoredFailureInfo::GetFailureInfo
PUBLIC	??0StoredFailureInfo@wil@@QEAA@AEBUFailureInfo@1@@Z ; wil::StoredFailureInfo::StoredFailureInfo
PUBLIC	?WilInitialize_ResultMacros_DesktopOrSystem_SuppressPrivateApiUse@wil@@YAXXZ ; wil::WilInitialize_ResultMacros_DesktopOrSystem_SuppressPrivateApiUse
PUBLIC	?ResultStringSize@details@wil@@YA_KPEB_W@Z	; wil::details::ResultStringSize
PUBLIC	?ResultStringSize@details@wil@@YA_KPEBD@Z	; wil::details::ResultStringSize
PUBLIC	?HrToNtStatus@details@wil@@YAJJ@Z		; wil::details::HrToNtStatus
PUBLIC	?WilDynamicLoadRaiseFailFastException@details@wil@@YAXPEAU_EXCEPTION_RECORD@@PEAU_CONTEXT@@K@Z ; wil::details::WilDynamicLoadRaiseFailFastException
PUBLIC	?DebugBreak@details@wil@@YAXXZ			; wil::details::DebugBreak
PUBLIC	?GetCurrentModuleName@details@wil@@YAPEBDXZ	; wil::details::GetCurrentModuleName
PUBLIC	?K32GetModuleInformation@details@wil@@YA_NPEAXPEAIPEAD_K@Z ; wil::details::K32GetModuleInformation
PUBLIC	?RecordFailFast@details@wil@@YAHJ@Z		; wil::details::RecordFailFast
PUBLIC	?assign@shared_buffer@details@wil@@AEAAXPEAJ_K@Z ; wil::details::shared_buffer::assign
PUBLIC	?unique@shared_buffer@details@wil@@QEBA_NXZ	; wil::details::shared_buffer::unique
PUBLIC	??Bshared_buffer@details@wil@@QEBA_NXZ		; wil::details::shared_buffer::operator bool
PUBLIC	?size@shared_buffer@details@wil@@QEBA_KXZ	; wil::details::shared_buffer::size
PUBLIC	?get@shared_buffer@details@wil@@QEBAPEAXPEA_K@Z	; wil::details::shared_buffer::get
PUBLIC	?create@shared_buffer@details@wil@@QEAA_N_K@Z	; wil::details::shared_buffer::create
PUBLIC	?create@shared_buffer@details@wil@@QEAA_NPEBX_K@Z ; wil::details::shared_buffer::create
PUBLIC	?reset@shared_buffer@details@wil@@QEAAXXZ	; wil::details::shared_buffer::reset
PUBLIC	??1shared_buffer@details@wil@@QEAA@XZ		; wil::details::shared_buffer::~shared_buffer
PUBLIC	??0shared_buffer@details@wil@@QEAA@AEBV012@@Z	; wil::details::shared_buffer::shared_buffer
PUBLIC	??0shared_buffer@details@wil@@QEAA@XZ		; wil::details::shared_buffer::shared_buffer
PUBLIC	?FromFailureInfo@ResultStatus@details@wil@@SA?AU123@AEBUFailureInfo@3@@Z ; wil::details::ResultStatus::FromFailureInfo
PUBLIC	?FromResult@ResultStatus@details@wil@@SA?AU123@J@Z ; wil::details::ResultStatus::FromResult
PUBLIC	?GetFailureLogString@wil@@YAJPEA_W_KAEBUFailureInfo@1@@Z ; wil::GetFailureLogString
PUBLIC	?LogStringPrintf@details@wil@@YAPEA_WPEA_WPEB_W1ZZ ; wil::details::LogStringPrintf
PUBLIC	??_Gexception@std@@UEAAPEAXI@Z			; std::exception::`scalar deleting destructor'
PUBLIC	?what@exception@std@@UEBAPEBDXZ			; std::exception::what
PUBLIC	??1exception@std@@UEAA@XZ			; std::exception::~exception
PUBLIC	??0exception@std@@QEAA@AEBV01@@Z		; std::exception::exception
PUBLIC	??0exception@std@@QEAA@XZ			; std::exception::exception
PUBLIC	?StringCchPrintfW@@YAJPEA_W_KPEB_WZZ		; StringCchPrintfW
PUBLIC	?StringCchVPrintfW@@YAJPEA_W_KPEB_WPEAD@Z	; StringCchVPrintfW
PUBLIC	?StringCchCopyA@@YAJPEAD_KPEBD@Z		; StringCchCopyA
PUBLIC	_vsnwprintf
PUBLIC	_vsnwprintf_l
PUBLIC	?RegisterAsioDriver@@YAJXZ			; RegisterAsioDriver
PUBLIC	?UnregisterAsioDriver@@YAJXZ			; UnregisterAsioDriver
PUBLIC	g_header_init_WilInitialize_ResultMacros_DesktopOrSystem_SuppressPrivateApiUse
PUBLIC	g_header_init_InitializeResultExceptions
EXTRN	??_Eexception@std@@UEAAPEAXI@Z:PROC		; std::exception::`vector deleting destructor'
EXTRN	??_ECUSBAsio@@UEAAPEAXI@Z:PROC			; CUSBAsio::`vector deleting destructor'
EXTRN	??_EResultException@wil@@UEAAPEAXI@Z:PROC	; wil::ResultException::`vector deleting destructor'
;	COMDAT pdata
pdata	SEGMENT
$pdata$?reset@?$lambda_call@V<lambda_1>@?1??createBuffers@CUSBAsio@@UEAAJPEAUASIOBufferInfo@@JJPEAUASIOCallbacks@@@Z@@details@wil@@QEAAXXZ DD imagerel ?reset@?$lambda_call@V<lambda_1>@?1??createBuffers@CUSBAsio@@UEAAJPEAUASIOBufferInfo@@JJPEAUASIOCallbacks@@@Z@@details@wil@@QEAAXXZ
	DD	imagerel ?reset@?$lambda_call@V<lambda_1>@?1??createBuffers@CUSBAsio@@UEAAJPEAUASIOBufferInfo@@JJPEAUASIOCallbacks@@@Z@@details@wil@@QEAAXXZ+50
	DD	imagerel $unwind$?reset@?$lambda_call@V<lambda_1>@?1??createBuffers@CUSBAsio@@UEAAJPEAUASIOBufferInfo@@JJPEAUASIOCallbacks@@@Z@@details@wil@@QEAAXXZ
pdata	ENDS
;	COMDAT pdata
pdata	SEGMENT
$pdata$??1?$lambda_call@V<lambda_1>@?1??createBuffers@CUSBAsio@@UEAAJPEAUASIOBufferInfo@@JJPEAUASIOCallbacks@@@Z@@details@wil@@QEAA@XZ DD imagerel ??1?$lambda_call@V<lambda_1>@?1??createBuffers@CUSBAsio@@UEAAJPEAUASIOBufferInfo@@JJPEAUASIOCallbacks@@@Z@@details@wil@@QEAA@XZ
	DD	imagerel ??1?$lambda_call@V<lambda_1>@?1??createBuffers@CUSBAsio@@UEAAJPEAUASIOBufferInfo@@JJPEAUASIOCallbacks@@@Z@@details@wil@@QEAA@XZ+50
	DD	imagerel $unwind$??1?$lambda_call@V<lambda_1>@?1??createBuffers@CUSBAsio@@UEAAJPEAUASIOBufferInfo@@JJPEAUASIOCallbacks@@@Z@@details@wil@@QEAA@XZ
pdata	ENDS
;	COMDAT pdata
pdata	SEGMENT
$pdata$??$WriteResultString@PEBD@details@wil@@YAPEAEPEAE0PEBDPEAPEBD@Z DD imagerel $LN40
	DD	imagerel $LN40+170
	DD	imagerel $unwind$??$WriteResultString@PEBD@details@wil@@YAPEAEPEAE0PEBDPEAPEBD@Z
pdata	ENDS
;	COMDAT pdata
pdata	SEGMENT
$pdata$??$WriteResultString@PEB_W@details@wil@@YAPEAEPEAE0PEB_WPEAPEB_W@Z DD imagerel $LN40
	DD	imagerel $LN40+175
	DD	imagerel $unwind$??$WriteResultString@PEB_W@details@wil@@YAPEAEPEAE0PEB_WPEAPEB_W@Z
pdata	ENDS
;	COMDAT pdata
pdata	SEGMENT
$pdata$?WorkerThread@CUSBAsio@@CAIPEAX@Z DD imagerel $LN229
	DD	imagerel $LN229+335
	DD	imagerel $unwind$?WorkerThread@CUSBAsio@@CAIPEAX@Z
pdata	ENDS
;	COMDAT pdata
pdata	SEGMENT
$pdata$5$?WorkerThread@CUSBAsio@@CAIPEAX@Z DD imagerel $LN229+335
	DD	imagerel $LN229+1390
	DD	imagerel $chain$5$?WorkerThread@CUSBAsio@@CAIPEAX@Z
pdata	ENDS
;	COMDAT pdata
pdata	SEGMENT
$pdata$?ThreadStop@CUSBAsio@@AEAAXXZ DD imagerel $LN14
	DD	imagerel $LN14+123
	DD	imagerel $unwind$?ThreadStop@CUSBAsio@@AEAAXXZ
pdata	ENDS
;	COMDAT pdata
pdata	SEGMENT
$pdata$?ThreadStart@CUSBAsio@@AEAAXXZ DD imagerel $LN7
	DD	imagerel $LN7+99
	DD	imagerel $unwind$?ThreadStart@CUSBAsio@@AEAAXXZ
pdata	ENDS
;	COMDAT pdata
pdata	SEGMENT
$pdata$?AsioResetThread@CUSBAsio@@CAIPEAX@Z DD imagerel $LN107
	DD	imagerel $LN107+470
	DD	imagerel $unwind$?AsioResetThread@CUSBAsio@@CAIPEAX@Z
pdata	ENDS
;	COMDAT pdata
pdata	SEGMENT
$pdata$?RequestClockInfoChange@CUSBAsio@@AEAA_NXZ DD imagerel $LN105
	DD	imagerel $LN105+254
	DD	imagerel $unwind$?RequestClockInfoChange@CUSBAsio@@AEAA_NXZ
pdata	ENDS
;	COMDAT pdata
pdata	SEGMENT
$pdata$?ObtainDeviceParameter@CUSBAsio@@AEAA_NXZ DD imagerel $LN174
	DD	imagerel $LN174+1308
	DD	imagerel $unwind$?ObtainDeviceParameter@CUSBAsio@@AEAA_NXZ
pdata	ENDS
;	COMDAT pdata
pdata	SEGMENT
$pdata$?GetDesiredPath@CUSBAsio@@AEAA_NXZ DD imagerel $LN15
	DD	imagerel $LN15+310
	DD	imagerel $unwind$?GetDesiredPath@CUSBAsio@@AEAA_NXZ
pdata	ENDS
;	COMDAT pdata
pdata	SEGMENT
$pdata$?ExecuteControlPanel@CUSBAsio@@AEAA_NXZ DD imagerel $LN4
	DD	imagerel $LN4+405
	DD	imagerel $unwind$?ExecuteControlPanel@CUSBAsio@@AEAA_NXZ
pdata	ENDS
;	COMDAT pdata
pdata	SEGMENT
$pdata$?ApplySettings@CUSBAsio@@AEAA_NXZ DD imagerel $LN39
	DD	imagerel $LN39+1341
	DD	imagerel $unwind$?ApplySettings@CUSBAsio@@AEAA_NXZ
pdata	ENDS
;	COMDAT pdata
pdata	SEGMENT
$pdata$?outputReady@CUSBAsio@@UEAAJXZ DD imagerel $LN50
	DD	imagerel $LN50+18
	DD	imagerel $unwind$?outputReady@CUSBAsio@@UEAAJXZ
pdata	ENDS
;	COMDAT pdata
pdata	SEGMENT
$pdata$0$?outputReady@CUSBAsio@@UEAAJXZ DD imagerel $LN50+18
	DD	imagerel $LN50+128
	DD	imagerel $chain$0$?outputReady@CUSBAsio@@UEAAJXZ
pdata	ENDS
;	COMDAT pdata
pdata	SEGMENT
$pdata$1$?outputReady@CUSBAsio@@UEAAJXZ DD imagerel $LN50+128
	DD	imagerel $LN50+136
	DD	imagerel $chain$1$?outputReady@CUSBAsio@@UEAAJXZ
pdata	ENDS
;	COMDAT pdata
pdata	SEGMENT
$pdata$?BufferSwitchX@CUSBAsio@@AEAAXXZ DD imagerel $LN4
	DD	imagerel $LN4+72
	DD	imagerel $unwind$?BufferSwitchX@CUSBAsio@@AEAAXXZ
pdata	ENDS
;	COMDAT pdata
pdata	SEGMENT
$pdata$?BufferSwitch@CUSBAsio@@QEAAXXZ DD imagerel $LN14
	DD	imagerel $LN14+154
	DD	imagerel $unwind$?BufferSwitch@CUSBAsio@@QEAAXXZ
pdata	ENDS
;	COMDAT pdata
pdata	SEGMENT
$pdata$0$?BufferSwitch@CUSBAsio@@QEAAXXZ DD imagerel $LN14+154
	DD	imagerel $LN14+206
	DD	imagerel $chain$0$?BufferSwitch@CUSBAsio@@QEAAXXZ
pdata	ENDS
;	COMDAT pdata
pdata	SEGMENT
$pdata$1$?BufferSwitch@CUSBAsio@@QEAAXXZ DD imagerel $LN14+206
	DD	imagerel $LN14+250
	DD	imagerel $chain$1$?BufferSwitch@CUSBAsio@@QEAAXXZ
pdata	ENDS
;	COMDAT pdata
pdata	SEGMENT
$pdata$?future@CUSBAsio@@UEAAJJPEAX@Z DD imagerel $LN131
	DD	imagerel $LN131+80
	DD	imagerel $unwind$?future@CUSBAsio@@UEAAJJPEAX@Z
pdata	ENDS
;	COMDAT pdata
pdata	SEGMENT
$pdata$0$?future@CUSBAsio@@UEAAJJPEAX@Z DD imagerel $LN131+80
	DD	imagerel $LN131+169
	DD	imagerel $chain$0$?future@CUSBAsio@@UEAAJJPEAX@Z
pdata	ENDS
;	COMDAT pdata
pdata	SEGMENT
$pdata$1$?future@CUSBAsio@@UEAAJJPEAX@Z DD imagerel $LN131+169
	DD	imagerel $LN131+417
	DD	imagerel $chain$1$?future@CUSBAsio@@UEAAJJPEAX@Z
pdata	ENDS
;	COMDAT pdata
pdata	SEGMENT
$pdata$?controlPanel@CUSBAsio@@UEAAJXZ DD imagerel $LN7
	DD	imagerel $LN7+405
	DD	imagerel $unwind$?controlPanel@CUSBAsio@@UEAAJXZ
pdata	ENDS
;	COMDAT pdata
pdata	SEGMENT
$pdata$?disposeBuffers@CUSBAsio@@UEAAJXZ DD imagerel $LN139
	DD	imagerel $LN139+395
	DD	imagerel $unwind$?disposeBuffers@CUSBAsio@@UEAAJXZ
pdata	ENDS
;	COMDAT pdata
pdata	SEGMENT
$pdata$?createBuffers@CUSBAsio@@UEAAJPEAUASIOBufferInfo@@JJPEAUASIOCallbacks@@@Z DD imagerel $LN801
	DD	imagerel $LN801+1852
	DD	imagerel $unwind$?createBuffers@CUSBAsio@@UEAAJPEAUASIOBufferInfo@@JJPEAUASIOCallbacks@@@Z
pdata	ENDS
;	COMDAT pdata
pdata	SEGMENT
$pdata$?getChannelInfo@CUSBAsio@@UEAAJPEAUASIOChannelInfo@@@Z DD imagerel $LN123
	DD	imagerel $LN123+448
	DD	imagerel $unwind$?getChannelInfo@CUSBAsio@@UEAAJPEAUASIOChannelInfo@@@Z
pdata	ENDS
;	COMDAT pdata
pdata	SEGMENT
$pdata$?setClockSource@CUSBAsio@@UEAAJJ@Z DD imagerel $LN148
	DD	imagerel $LN148+412
	DD	imagerel $unwind$?setClockSource@CUSBAsio@@UEAAJJ@Z
pdata	ENDS
;	COMDAT pdata
pdata	SEGMENT
$pdata$?getClockSources@CUSBAsio@@UEAAJPEAUASIOClockSource@@PEAJ@Z DD imagerel $LN84
	DD	imagerel $LN84+97
	DD	imagerel $unwind$?getClockSources@CUSBAsio@@UEAAJPEAUASIOClockSource@@PEAJ@Z
pdata	ENDS
;	COMDAT pdata
pdata	SEGMENT
$pdata$1$?getClockSources@CUSBAsio@@UEAAJPEAUASIOClockSource@@PEAJ@Z DD imagerel $LN84+97
	DD	imagerel $LN84+173
	DD	imagerel $chain$1$?getClockSources@CUSBAsio@@UEAAJPEAUASIOClockSource@@PEAJ@Z
pdata	ENDS
;	COMDAT pdata
pdata	SEGMENT
$pdata$3$?getClockSources@CUSBAsio@@UEAAJPEAUASIOClockSource@@PEAJ@Z DD imagerel $LN84+173
	DD	imagerel $LN84+176
	DD	imagerel $chain$3$?getClockSources@CUSBAsio@@UEAAJPEAUASIOClockSource@@PEAJ@Z
pdata	ENDS
;	COMDAT pdata
pdata	SEGMENT
$pdata$5$?getClockSources@CUSBAsio@@UEAAJPEAUASIOClockSource@@PEAJ@Z DD imagerel $LN84+176
	DD	imagerel $LN84+202
	DD	imagerel $chain$5$?getClockSources@CUSBAsio@@UEAAJPEAUASIOClockSource@@PEAJ@Z
pdata	ENDS
;	COMDAT pdata
pdata	SEGMENT
$pdata$6$?getClockSources@CUSBAsio@@UEAAJPEAUASIOClockSource@@PEAJ@Z DD imagerel $LN84+202
	DD	imagerel $LN84+315
	DD	imagerel $chain$6$?getClockSources@CUSBAsio@@UEAAJPEAUASIOClockSource@@PEAJ@Z
pdata	ENDS
;	COMDAT pdata
pdata	SEGMENT
$pdata$7$?getClockSources@CUSBAsio@@UEAAJPEAUASIOClockSource@@PEAJ@Z DD imagerel $LN84+315
	DD	imagerel $LN84+336
	DD	imagerel $chain$7$?getClockSources@CUSBAsio@@UEAAJPEAUASIOClockSource@@PEAJ@Z
pdata	ENDS
;	COMDAT pdata
pdata	SEGMENT
$pdata$8$?getClockSources@CUSBAsio@@UEAAJPEAUASIOClockSource@@PEAJ@Z DD imagerel $LN84+336
	DD	imagerel $LN84+352
	DD	imagerel $chain$8$?getClockSources@CUSBAsio@@UEAAJPEAUASIOClockSource@@PEAJ@Z
pdata	ENDS
;	COMDAT pdata
pdata	SEGMENT
$pdata$9$?getClockSources@CUSBAsio@@UEAAJPEAUASIOClockSource@@PEAJ@Z DD imagerel $LN84+352
	DD	imagerel $LN84+380
	DD	imagerel $chain$9$?getClockSources@CUSBAsio@@UEAAJPEAUASIOClockSource@@PEAJ@Z
pdata	ENDS
;	COMDAT pdata
pdata	SEGMENT
$pdata$?setSampleRate@CUSBAsio@@UEAAJN@Z DD imagerel $LN231
	DD	imagerel $LN231+618
	DD	imagerel $unwind$?setSampleRate@CUSBAsio@@UEAAJN@Z
pdata	ENDS
;	COMDAT pdata
pdata	SEGMENT
$pdata$?getSampleRate@CUSBAsio@@UEAAJPEAN@Z DD imagerel $LN49
	DD	imagerel $LN49+72
	DD	imagerel $unwind$?getSampleRate@CUSBAsio@@UEAAJPEAN@Z
pdata	ENDS
;	COMDAT pdata
pdata	SEGMENT
$pdata$0$?getSampleRate@CUSBAsio@@UEAAJPEAN@Z DD imagerel $LN49+72
	DD	imagerel $LN49+132
	DD	imagerel $chain$0$?getSampleRate@CUSBAsio@@UEAAJPEAN@Z
pdata	ENDS
;	COMDAT pdata
pdata	SEGMENT
$pdata$1$?getSampleRate@CUSBAsio@@UEAAJPEAN@Z DD imagerel $LN49+132
	DD	imagerel $LN49+148
	DD	imagerel $chain$1$?getSampleRate@CUSBAsio@@UEAAJPEAN@Z
pdata	ENDS
;	COMDAT pdata
pdata	SEGMENT
$pdata$?canSampleRate@CUSBAsio@@UEAAJN@Z DD imagerel $LN86
	DD	imagerel $LN86+55
	DD	imagerel $unwind$?canSampleRate@CUSBAsio@@UEAAJN@Z
pdata	ENDS
;	COMDAT pdata
pdata	SEGMENT
$pdata$1$?canSampleRate@CUSBAsio@@UEAAJN@Z DD imagerel $LN86+55
	DD	imagerel $LN86+99
	DD	imagerel $chain$1$?canSampleRate@CUSBAsio@@UEAAJN@Z
pdata	ENDS
;	COMDAT pdata
pdata	SEGMENT
$pdata$3$?canSampleRate@CUSBAsio@@UEAAJN@Z DD imagerel $LN86+99
	DD	imagerel $LN86+215
	DD	imagerel $chain$3$?canSampleRate@CUSBAsio@@UEAAJN@Z
pdata	ENDS
;	COMDAT pdata
pdata	SEGMENT
$pdata$4$?canSampleRate@CUSBAsio@@UEAAJN@Z DD imagerel $LN86+215
	DD	imagerel $LN86+226
	DD	imagerel $chain$4$?canSampleRate@CUSBAsio@@UEAAJN@Z
pdata	ENDS
;	COMDAT pdata
pdata	SEGMENT
$pdata$?getLatencies@CUSBAsio@@UEAAJPEAJ0@Z DD imagerel $LN14
	DD	imagerel $LN14+215
	DD	imagerel $unwind$?getLatencies@CUSBAsio@@UEAAJPEAJ0@Z
pdata	ENDS
;	COMDAT pdata
pdata	SEGMENT
$pdata$?getChannels@CUSBAsio@@UEAAJPEAJ0@Z DD imagerel $LN51
	DD	imagerel $LN51+55
	DD	imagerel $unwind$?getChannels@CUSBAsio@@UEAAJPEAJ0@Z
pdata	ENDS
;	COMDAT pdata
pdata	SEGMENT
$pdata$0$?getChannels@CUSBAsio@@UEAAJPEAJ0@Z DD imagerel $LN51+55
	DD	imagerel $LN51+121
	DD	imagerel $chain$0$?getChannels@CUSBAsio@@UEAAJPEAJ0@Z
pdata	ENDS
;	COMDAT pdata
pdata	SEGMENT
$pdata$1$?getChannels@CUSBAsio@@UEAAJPEAJ0@Z DD imagerel $LN51+121
	DD	imagerel $LN51+154
	DD	imagerel $chain$1$?getChannels@CUSBAsio@@UEAAJPEAJ0@Z
pdata	ENDS
;	COMDAT pdata
pdata	SEGMENT
$pdata$?stop@CUSBAsio@@UEAAJXZ DD imagerel $LN22
	DD	imagerel $LN22+189
	DD	imagerel $unwind$?stop@CUSBAsio@@UEAAJXZ
pdata	ENDS
;	COMDAT pdata
pdata	SEGMENT
$pdata$?start@CUSBAsio@@UEAAJXZ DD imagerel $LN19
	DD	imagerel $LN19+80
	DD	imagerel $unwind$?start@CUSBAsio@@UEAAJXZ
pdata	ENDS
;	COMDAT pdata
pdata	SEGMENT
$pdata$0$?start@CUSBAsio@@UEAAJXZ DD imagerel $LN19+80
	DD	imagerel $LN19+176
	DD	imagerel $chain$0$?start@CUSBAsio@@UEAAJXZ
pdata	ENDS
;	COMDAT pdata
pdata	SEGMENT
$pdata$1$?start@CUSBAsio@@UEAAJXZ DD imagerel $LN19+176
	DD	imagerel $LN19+218
	DD	imagerel $chain$1$?start@CUSBAsio@@UEAAJXZ
pdata	ENDS
;	COMDAT pdata
pdata	SEGMENT
$pdata$??1CUSBAsio@@UEAA@XZ DD imagerel $LN33
	DD	imagerel $LN33+328
	DD	imagerel $unwind$??1CUSBAsio@@UEAA@XZ
pdata	ENDS
;	COMDAT pdata
pdata	SEGMENT
$pdata$??_GCUSBAsio@@UEAAPEAXI@Z DD imagerel $LN40
	DD	imagerel $LN40+361
	DD	imagerel $unwind$??_GCUSBAsio@@UEAAPEAXI@Z
pdata	ENDS
;	COMDAT pdata
pdata	SEGMENT
$pdata$??0CUSBAsio@@QEAA@PEAUIUnknown@@PEAJ@Z DD imagerel $LN209
	DD	imagerel $LN209+3393
	DD	imagerel $unwind$??0CUSBAsio@@QEAA@PEAUIUnknown@@PEAJ@Z
pdata	ENDS
;	COMDAT pdata
pdata	SEGMENT
$pdata$?NonDelegatingQueryInterface@CUSBAsio@@UEAAJAEBU_GUID@@PEAPEAX@Z DD imagerel $LN25
	DD	imagerel $LN25+119
	DD	imagerel $unwind$?NonDelegatingQueryInterface@CUSBAsio@@UEAAJAEBU_GUID@@PEAPEAX@Z
pdata	ENDS
;	COMDAT pdata
pdata	SEGMENT
$pdata$?CreateInstance@CUSBAsio@@SAPEAVCUnknown@@PEAUIUnknown@@PEAJ@Z DD imagerel $LN13
	DD	imagerel $LN13+85
	DD	imagerel $unwind$?CreateInstance@CUSBAsio@@SAPEAVCUnknown@@PEAUIUnknown@@PEAJ@Z
pdata	ENDS
;	COMDAT pdata
pdata	SEGMENT
$pdata$?dtor$0@?0??CreateInstance@CUSBAsio@@SAPEAVCUnknown@@PEAUIUnknown@@PEAJ@Z@4HA DD imagerel ?dtor$0@?0??CreateInstance@CUSBAsio@@SAPEAVCUnknown@@PEAUIUnknown@@PEAJ@Z@4HA
	DD	imagerel ?dtor$0@?0??CreateInstance@CUSBAsio@@SAPEAVCUnknown@@PEAUIUnknown@@PEAJ@Z@4HA+29
	DD	imagerel $unwind$?dtor$0@?0??CreateInstance@CUSBAsio@@SAPEAVCUnknown@@PEAUIUnknown@@PEAJ@Z@4HA
pdata	ENDS
;	COMDAT pdata
pdata	SEGMENT
$pdata$?getNanoSeconds@@YAXPEAUASIOTimeStamp@@@Z DD imagerel ?getNanoSeconds@@YAXPEAUASIOTimeStamp@@@Z
	DD	imagerel ?getNanoSeconds@@YAXPEAUASIOTimeStamp@@@Z+87
	DD	imagerel $unwind$?getNanoSeconds@@YAXPEAUASIOTimeStamp@@@Z
pdata	ENDS
;	COMDAT pdata
pdata	SEGMENT
$pdata$?lock@critical_section@wil@@QEAA?AV?$unique_any_t@V?$unique_storage@U?$resource_policy@PEAU_RTL_CRITICAL_SECTION@@P6AXPEAU1@@Z$1?LeaveCriticalSection@@YAX0@ZU?$integral_constant@_K$00@wistd@@PEAU1@PEAU1@$0A@$$T@details@wil@@@details@wil@@@2@XZ DD imagerel $LN19
	DD	imagerel $LN19+39
	DD	imagerel $unwind$?lock@critical_section@wil@@QEAA?AV?$unique_any_t@V?$unique_storage@U?$resource_policy@PEAU_RTL_CRITICAL_SECTION@@P6AXPEAU1@@Z$1?LeaveCriticalSection@@YAX0@ZU?$integral_constant@_K$00@wistd@@PEAU1@PEAU1@$0A@$$T@details@wil@@@details@wil@@@2@XZ
pdata	ENDS
;	COMDAT pdata
pdata	SEGMENT
$pdata$??0critical_section@wil@@QEAA@K@Z DD imagerel $LN6
	DD	imagerel $LN6+29
	DD	imagerel $unwind$??0critical_section@wil@@QEAA@K@Z
pdata	ENDS
;	COMDAT pdata
pdata	SEGMENT
$pdata$?EnterCriticalSection@wil@@YA?AV?$unique_any_t@V?$unique_storage@U?$resource_policy@PEAU_RTL_CRITICAL_SECTION@@P6AXPEAU1@@Z$1?LeaveCriticalSection@@YAX0@ZU?$integral_constant@_K$00@wistd@@PEAU1@PEAU1@$0A@$$T@details@wil@@@details@wil@@@1@PEAU_RTL_CRITICAL_SECTION@@@Z DD imagerel $LN14
	DD	imagerel $LN14+42
	DD	imagerel $unwind$?EnterCriticalSection@wil@@YA?AV?$unique_any_t@V?$unique_storage@U?$resource_policy@PEAU_RTL_CRITICAL_SECTION@@P6AXPEAU1@@Z$1?LeaveCriticalSection@@YAX0@ZU?$integral_constant@_K$00@wistd@@PEAU1@PEAU1@$0A@$$T@details@wil@@@details@wil@@@1@PEAU_RTL_CRITICAL_SECTION@@@Z
pdata	ENDS
;	COMDAT pdata
pdata	SEGMENT
$pdata$?RunFunctorWithExceptionFilter@details@wil@@YAJAEAUIFunctor@12@AEAUIFunctorHost@12@PEAX@Z DD imagerel $LN10
	DD	imagerel $LN10+40
	DD	imagerel $unwind$?RunFunctorWithExceptionFilter@details@wil@@YAJAEAUIFunctor@12@AEAUIFunctorHost@12@PEAX@Z
pdata	ENDS
;	COMDAT pdata
pdata	SEGMENT
$pdata$?catch$0@?0??RunFunctorWithExceptionFilter@details@wil@@YAJAEAUIFunctor@12@AEAUIFunctorHost@12@PEAX@Z@4HA DD imagerel ?catch$0@?0??RunFunctorWithExceptionFilter@details@wil@@YAJAEAUIFunctor@12@AEAUIFunctorHost@12@PEAX@Z@4HA
	DD	imagerel ?catch$0@?0??RunFunctorWithExceptionFilter@details@wil@@YAJAEAUIFunctor@12@AEAUIFunctorHost@12@PEAX@Z@4HA+47
	DD	imagerel $unwind$?catch$0@?0??RunFunctorWithExceptionFilter@details@wil@@YAJAEAUIFunctor@12@AEAUIFunctorHost@12@PEAX@Z@4HA
pdata	ENDS
;	COMDAT pdata
pdata	SEGMENT
$pdata$?ResultFromCaughtExceptionInternal@details@wil@@YA?AUResultStatus@12@PEA_W_KPEA_N@Z DD imagerel $LN85
	DD	imagerel $LN85+250
	DD	imagerel $unwind$?ResultFromCaughtExceptionInternal@details@wil@@YA?AUResultStatus@12@PEA_W_KPEA_N@Z
pdata	ENDS
;	COMDAT pdata
pdata	SEGMENT
$pdata$?catch$0@?0??ResultFromCaughtExceptionInternal@details@wil@@YA?AUResultStatus@12@PEA_W_KPEA_N@Z@4HA DD imagerel ?catch$0@?0??ResultFromCaughtExceptionInternal@details@wil@@YA?AUResultStatus@12@PEA_W_KPEA_N@Z@4HA
	DD	imagerel ?catch$0@?0??ResultFromCaughtExceptionInternal@details@wil@@YA?AUResultStatus@12@PEA_W_KPEA_N@Z@4HA+98
	DD	imagerel $unwind$?catch$0@?0??ResultFromCaughtExceptionInternal@details@wil@@YA?AUResultStatus@12@PEA_W_KPEA_N@Z@4HA
pdata	ENDS
;	COMDAT pdata
pdata	SEGMENT
$pdata$?catch$1@?0??ResultFromCaughtExceptionInternal@details@wil@@YA?AUResultStatus@12@PEA_W_KPEA_N@Z@4HA DD imagerel ?catch$1@?0??ResultFromCaughtExceptionInternal@details@wil@@YA?AUResultStatus@12@PEA_W_KPEA_N@Z@4HA
	DD	imagerel ?catch$1@?0??ResultFromCaughtExceptionInternal@details@wil@@YA?AUResultStatus@12@PEA_W_KPEA_N@Z@4HA+106
	DD	imagerel $unwind$?catch$1@?0??ResultFromCaughtExceptionInternal@details@wil@@YA?AUResultStatus@12@PEA_W_KPEA_N@Z@4HA
pdata	ENDS
;	COMDAT pdata
pdata	SEGMENT
$pdata$?catch$2@?0??ResultFromCaughtExceptionInternal@details@wil@@YA?AUResultStatus@12@PEA_W_KPEA_N@Z@4HA DD imagerel ?catch$2@?0??ResultFromCaughtExceptionInternal@details@wil@@YA?AUResultStatus@12@PEA_W_KPEA_N@Z@4HA
	DD	imagerel ?catch$2@?0??ResultFromCaughtExceptionInternal@details@wil@@YA?AUResultStatus@12@PEA_W_KPEA_N@Z@4HA+85
	DD	imagerel $unwind$?catch$2@?0??ResultFromCaughtExceptionInternal@details@wil@@YA?AUResultStatus@12@PEA_W_KPEA_N@Z@4HA
pdata	ENDS
;	COMDAT pdata
pdata	SEGMENT
$pdata$?catch$3@?0??ResultFromCaughtExceptionInternal@details@wil@@YA?AUResultStatus@12@PEA_W_KPEA_N@Z@4HA DD imagerel ?catch$3@?0??ResultFromCaughtExceptionInternal@details@wil@@YA?AUResultStatus@12@PEA_W_KPEA_N@Z@4HA
	DD	imagerel ?catch$3@?0??ResultFromCaughtExceptionInternal@details@wil@@YA?AUResultStatus@12@PEA_W_KPEA_N@Z@4HA+98
	DD	imagerel $unwind$?catch$3@?0??ResultFromCaughtExceptionInternal@details@wil@@YA?AUResultStatus@12@PEA_W_KPEA_N@Z@4HA
pdata	ENDS
;	COMDAT pdata
pdata	SEGMENT
$pdata$?catch$4@?0??ResultFromCaughtExceptionInternal@details@wil@@YA?AUResultStatus@12@PEA_W_KPEA_N@Z@4HA DD imagerel ?catch$4@?0??ResultFromCaughtExceptionInternal@details@wil@@YA?AUResultStatus@12@PEA_W_KPEA_N@Z@4HA
	DD	imagerel ?catch$4@?0??ResultFromCaughtExceptionInternal@details@wil@@YA?AUResultStatus@12@PEA_W_KPEA_N@Z@4HA+106
	DD	imagerel $unwind$?catch$4@?0??ResultFromCaughtExceptionInternal@details@wil@@YA?AUResultStatus@12@PEA_W_KPEA_N@Z@4HA
pdata	ENDS
;	COMDAT pdata
pdata	SEGMENT
$pdata$?catch$5@?0??ResultFromCaughtExceptionInternal@details@wil@@YA?AUResultStatus@12@PEA_W_KPEA_N@Z@4HA DD imagerel ?catch$5@?0??ResultFromCaughtExceptionInternal@details@wil@@YA?AUResultStatus@12@PEA_W_KPEA_N@Z@4HA
	DD	imagerel ?catch$5@?0??ResultFromCaughtExceptionInternal@details@wil@@YA?AUResultStatus@12@PEA_W_KPEA_N@Z@4HA+106
	DD	imagerel $unwind$?catch$5@?0??ResultFromCaughtExceptionInternal@details@wil@@YA?AUResultStatus@12@PEA_W_KPEA_N@Z@4HA
pdata	ENDS
;	COMDAT pdata
pdata	SEGMENT
$pdata$?catch$6@?0??ResultFromCaughtExceptionInternal@details@wil@@YA?AUResultStatus@12@PEA_W_KPEA_N@Z@4HA DD imagerel ?catch$6@?0??ResultFromCaughtExceptionInternal@details@wil@@YA?AUResultStatus@12@PEA_W_KPEA_N@Z@4HA
	DD	imagerel ?catch$6@?0??ResultFromCaughtExceptionInternal@details@wil@@YA?AUResultStatus@12@PEA_W_KPEA_N@Z@4HA+30
	DD	imagerel $unwind$?catch$6@?0??ResultFromCaughtExceptionInternal@details@wil@@YA?AUResultStatus@12@PEA_W_KPEA_N@Z@4HA
pdata	ENDS
;	COMDAT pdata
pdata	SEGMENT
$pdata$??0ResultException@wil@@QEAA@AEBV01@@Z DD imagerel $LN41
	DD	imagerel $LN41+271
	DD	imagerel $unwind$??0ResultException@wil@@QEAA@AEBV01@@Z
pdata	ENDS
;	COMDAT pdata
pdata	SEGMENT
$pdata$?ThrowResultExceptionInternal@details@wil@@YAXAEBUFailureInfo@2@@Z DD imagerel $LN4
	DD	imagerel $LN4+38
	DD	imagerel $unwind$?ThrowResultExceptionInternal@details@wil@@YAXAEBUFailureInfo@2@@Z
pdata	ENDS
;	COMDAT pdata
pdata	SEGMENT
$pdata$?Rethrow@details@wil@@YAXXZ DD imagerel $LN4
	DD	imagerel $LN4+14
	DD	imagerel $unwind$?Rethrow@details@wil@@YAXXZ
pdata	ENDS
;	COMDAT pdata
pdata	SEGMENT
$pdata$?RecognizeCaughtExceptionFromCallback@details@wil@@YAJPEA_W_K@Z DD imagerel $LN21
	DD	imagerel $LN21+60
	DD	imagerel $unwind$?RecognizeCaughtExceptionFromCallback@details@wil@@YAJPEA_W_K@Z
pdata	ENDS
;	COMDAT pdata
pdata	SEGMENT
$pdata$?catch$0@?0??RecognizeCaughtExceptionFromCallback@details@wil@@YAJPEA_W_K@Z@4HA DD imagerel ?catch$0@?0??RecognizeCaughtExceptionFromCallback@details@wil@@YAJPEA_W_K@Z@4HA
	DD	imagerel ?catch$0@?0??RecognizeCaughtExceptionFromCallback@details@wil@@YAJPEA_W_K@Z@4HA+89
	DD	imagerel $unwind$?catch$0@?0??RecognizeCaughtExceptionFromCallback@details@wil@@YAJPEA_W_K@Z@4HA
pdata	ENDS
;	COMDAT pdata
pdata	SEGMENT
$pdata$?catch$1@?0??RecognizeCaughtExceptionFromCallback@details@wil@@YAJPEA_W_K@Z@4HA DD imagerel ?catch$1@?0??RecognizeCaughtExceptionFromCallback@details@wil@@YAJPEA_W_K@Z@4HA
	DD	imagerel ?catch$1@?0??RecognizeCaughtExceptionFromCallback@details@wil@@YAJPEA_W_K@Z@4HA+30
	DD	imagerel $unwind$?catch$1@?0??RecognizeCaughtExceptionFromCallback@details@wil@@YAJPEA_W_K@Z@4HA
pdata	ENDS
;	COMDAT pdata
pdata	SEGMENT
$pdata$?MaybeGetExceptionString@details@wil@@YAXAEBVexception@std@@PEA_W_K@Z DD imagerel $LN7
	DD	imagerel $LN7+59
	DD	imagerel $unwind$?MaybeGetExceptionString@details@wil@@YAXAEBVexception@std@@PEA_W_K@Z
pdata	ENDS
;	COMDAT pdata
pdata	SEGMENT
$pdata$??1StoredFailureInfo@wil@@QEAA@XZ DD imagerel $LN16
	DD	imagerel $LN16+35
	DD	imagerel $unwind$??1StoredFailureInfo@wil@@QEAA@XZ
pdata	ENDS
;	COMDAT pdata
pdata	SEGMENT
$pdata$0$??1StoredFailureInfo@wil@@QEAA@XZ DD imagerel $LN16+35
	DD	imagerel $LN16+72
	DD	imagerel $chain$0$??1StoredFailureInfo@wil@@QEAA@XZ
pdata	ENDS
;	COMDAT pdata
pdata	SEGMENT
$pdata$1$??1StoredFailureInfo@wil@@QEAA@XZ DD imagerel $LN16+72
	DD	imagerel $LN16+94
	DD	imagerel $chain$1$??1StoredFailureInfo@wil@@QEAA@XZ
pdata	ENDS
;	COMDAT pdata
pdata	SEGMENT
$pdata$??1ResultException@wil@@UEAA@XZ DD imagerel $LN34
	DD	imagerel $LN34+195
	DD	imagerel $unwind$??1ResultException@wil@@UEAA@XZ
pdata	ENDS
;	COMDAT pdata
pdata	SEGMENT
$pdata$??_GResultException@wil@@UEAAPEAXI@Z DD imagerel $LN42
	DD	imagerel $LN42+6
	DD	imagerel $unwind$??_GResultException@wil@@UEAAPEAXI@Z
pdata	ENDS
;	COMDAT pdata
pdata	SEGMENT
$pdata$3$??_GResultException@wil@@UEAAPEAXI@Z DD imagerel $LN42+6
	DD	imagerel $LN42+210
	DD	imagerel $chain$3$??_GResultException@wil@@UEAAPEAXI@Z
pdata	ENDS
;	COMDAT pdata
pdata	SEGMENT
$pdata$4$??_GResultException@wil@@UEAAPEAXI@Z DD imagerel $LN42+210
	DD	imagerel $LN42+232
	DD	imagerel $chain$4$??_GResultException@wil@@UEAAPEAXI@Z
pdata	ENDS
;	COMDAT pdata
pdata	SEGMENT
$pdata$?what@ResultException@wil@@UEBAPEBDXZ DD imagerel $LN25
	DD	imagerel $LN25+257
	DD	imagerel $unwind$?what@ResultException@wil@@UEBAPEBDXZ
pdata	ENDS
;	COMDAT pdata
pdata	SEGMENT
$pdata$??0ResultException@wil@@QEAA@AEBUFailureInfo@1@@Z DD imagerel $LN20
	DD	imagerel $LN20+83
	DD	imagerel $unwind$??0ResultException@wil@@QEAA@AEBUFailureInfo@1@@Z
pdata	ENDS
;	COMDAT pdata
pdata	SEGMENT
$pdata$?SetFailureInfo@StoredFailureInfo@wil@@QEAAXAEBUFailureInfo@2@@Z DD imagerel $LN480
	DD	imagerel $LN480+2008
	DD	imagerel $unwind$?SetFailureInfo@StoredFailureInfo@wil@@QEAAXAEBUFailureInfo@2@@Z
pdata	ENDS
;	COMDAT pdata
pdata	SEGMENT
$pdata$??0StoredFailureInfo@wil@@QEAA@AEBUFailureInfo@1@@Z DD imagerel $LN9
	DD	imagerel $LN9+39
	DD	imagerel $unwind$??0StoredFailureInfo@wil@@QEAA@AEBUFailureInfo@1@@Z
pdata	ENDS
;	COMDAT pdata
pdata	SEGMENT
$pdata$?WilDynamicLoadRaiseFailFastException@details@wil@@YAXPEAU_EXCEPTION_RECORD@@PEAU_CONTEXT@@K@Z DD imagerel $LN10
	DD	imagerel $LN10+85
	DD	imagerel $unwind$?WilDynamicLoadRaiseFailFastException@details@wil@@YAXPEAU_EXCEPTION_RECORD@@PEAU_CONTEXT@@K@Z
pdata	ENDS
;	COMDAT pdata
pdata	SEGMENT
$pdata$?GetCurrentModuleName@details@wil@@YAPEBDXZ DD imagerel $LN58
	DD	imagerel $LN58+281
	DD	imagerel $unwind$?GetCurrentModuleName@details@wil@@YAPEBDXZ
pdata	ENDS
;	COMDAT pdata
pdata	SEGMENT
$pdata$?K32GetModuleInformation@details@wil@@YA_NPEAXPEAIPEAD_K@Z DD imagerel $LN61
	DD	imagerel $LN61+315
	DD	imagerel $unwind$?K32GetModuleInformation@details@wil@@YA_NPEAXPEAIPEAD_K@Z
pdata	ENDS
;	COMDAT pdata
pdata	SEGMENT
$pdata$?assign@shared_buffer@details@wil@@AEAAXPEAJ_K@Z DD imagerel $LN16
	DD	imagerel $LN16+46
	DD	imagerel $unwind$?assign@shared_buffer@details@wil@@AEAAXPEAJ_K@Z
pdata	ENDS
;	COMDAT pdata
pdata	SEGMENT
$pdata$0$?assign@shared_buffer@details@wil@@AEAAXPEAJ_K@Z DD imagerel $LN16+46
	DD	imagerel $LN16+79
	DD	imagerel $chain$0$?assign@shared_buffer@details@wil@@AEAAXPEAJ_K@Z
pdata	ENDS
;	COMDAT pdata
pdata	SEGMENT
$pdata$1$?assign@shared_buffer@details@wil@@AEAAXPEAJ_K@Z DD imagerel $LN16+79
	DD	imagerel $LN16+119
	DD	imagerel $chain$1$?assign@shared_buffer@details@wil@@AEAAXPEAJ_K@Z
pdata	ENDS
;	COMDAT pdata
pdata	SEGMENT
$pdata$?create@shared_buffer@details@wil@@QEAA_N_K@Z DD imagerel $LN42
	DD	imagerel $LN42+231
	DD	imagerel $unwind$?create@shared_buffer@details@wil@@QEAA_N_K@Z
pdata	ENDS
;	COMDAT pdata
pdata	SEGMENT
$pdata$?create@shared_buffer@details@wil@@QEAA_NPEBX_K@Z DD imagerel $LN39
	DD	imagerel $LN39+231
	DD	imagerel $unwind$?create@shared_buffer@details@wil@@QEAA_NPEBX_K@Z
pdata	ENDS
;	COMDAT pdata
pdata	SEGMENT
$pdata$?reset@shared_buffer@details@wil@@QEAAXXZ DD imagerel $LN10
	DD	imagerel $LN10+31
	DD	imagerel $unwind$?reset@shared_buffer@details@wil@@QEAAXXZ
pdata	ENDS
;	COMDAT pdata
pdata	SEGMENT
$pdata$0$?reset@shared_buffer@details@wil@@QEAAXXZ DD imagerel $LN10+31
	DD	imagerel $LN10+64
	DD	imagerel $chain$0$?reset@shared_buffer@details@wil@@QEAAXXZ
pdata	ENDS
;	COMDAT pdata
pdata	SEGMENT
$pdata$1$?reset@shared_buffer@details@wil@@QEAAXXZ DD imagerel $LN10+64
	DD	imagerel $LN10+79
	DD	imagerel $chain$1$?reset@shared_buffer@details@wil@@QEAAXXZ
pdata	ENDS
;	COMDAT pdata
pdata	SEGMENT
$pdata$??1shared_buffer@details@wil@@QEAA@XZ DD imagerel $LN13
	DD	imagerel $LN13+31
	DD	imagerel $unwind$??1shared_buffer@details@wil@@QEAA@XZ
pdata	ENDS
;	COMDAT pdata
pdata	SEGMENT
$pdata$0$??1shared_buffer@details@wil@@QEAA@XZ DD imagerel $LN13+31
	DD	imagerel $LN13+64
	DD	imagerel $chain$0$??1shared_buffer@details@wil@@QEAA@XZ
pdata	ENDS
;	COMDAT pdata
pdata	SEGMENT
$pdata$1$??1shared_buffer@details@wil@@QEAA@XZ DD imagerel $LN13+64
	DD	imagerel $LN13+79
	DD	imagerel $chain$1$??1shared_buffer@details@wil@@QEAA@XZ
pdata	ENDS
;	COMDAT pdata
pdata	SEGMENT
$pdata$?FromResult@ResultStatus@details@wil@@SA?AU123@J@Z DD imagerel $LN4
	DD	imagerel $LN4+36
	DD	imagerel $unwind$?FromResult@ResultStatus@details@wil@@SA?AU123@J@Z
pdata	ENDS
;	COMDAT pdata
pdata	SEGMENT
$pdata$?GetFailureLogString@wil@@YAJPEA_W_KAEBUFailureInfo@1@@Z DD imagerel $LN40
	DD	imagerel $LN40+691
	DD	imagerel $unwind$?GetFailureLogString@wil@@YAJPEA_W_KAEBUFailureInfo@1@@Z
pdata	ENDS
;	COMDAT pdata
pdata	SEGMENT
$pdata$?LogStringPrintf@details@wil@@YAPEA_WPEA_WPEB_W1ZZ DD imagerel $LN38
	DD	imagerel $LN38+189
	DD	imagerel $unwind$?LogStringPrintf@details@wil@@YAPEA_WPEA_WPEB_W1ZZ
pdata	ENDS
;	COMDAT pdata
pdata	SEGMENT
$pdata$??_Gexception@std@@UEAAPEAXI@Z DD imagerel $LN12
	DD	imagerel $LN12+66
	DD	imagerel $unwind$??_Gexception@std@@UEAAPEAXI@Z
pdata	ENDS
;	COMDAT pdata
pdata	SEGMENT
$pdata$??0exception@std@@QEAA@AEBV01@@Z DD imagerel $LN6
	DD	imagerel $LN6+50
	DD	imagerel $unwind$??0exception@std@@QEAA@AEBV01@@Z
pdata	ENDS
;	COMDAT pdata
pdata	SEGMENT
$pdata$?StringVPrintfWorkerW@@YAJPEA_W_KPEA_KPEB_WPEAD@Z DD imagerel ?StringVPrintfWorkerW@@YAJPEA_W_KPEA_KPEB_WPEAD@Z
	DD	imagerel ?StringVPrintfWorkerW@@YAJPEA_W_KPEA_KPEB_WPEAD@Z+131
	DD	imagerel $unwind$?StringVPrintfWorkerW@@YAJPEA_W_KPEA_KPEB_WPEAD@Z
pdata	ENDS
;	COMDAT pdata
pdata	SEGMENT
$pdata$?StringCchPrintfW@@YAJPEA_W_KPEB_WZZ DD imagerel $LN30
	DD	imagerel $LN30+62
	DD	imagerel $unwind$?StringCchPrintfW@@YAJPEA_W_KPEB_WZZ
pdata	ENDS
;	COMDAT pdata
pdata	SEGMENT
$pdata$0$?StringCchPrintfW@@YAJPEA_W_KPEB_WZZ DD imagerel $LN30+62
	DD	imagerel $LN30+69
	DD	imagerel $chain$0$?StringCchPrintfW@@YAJPEA_W_KPEB_WZZ
pdata	ENDS
;	COMDAT pdata
pdata	SEGMENT
$pdata$1$?StringCchPrintfW@@YAJPEA_W_KPEB_WZZ DD imagerel $LN30+69
	DD	imagerel $LN30+138
	DD	imagerel $chain$1$?StringCchPrintfW@@YAJPEA_W_KPEB_WZZ
pdata	ENDS
;	COMDAT pdata
pdata	SEGMENT
$pdata$2$?StringCchPrintfW@@YAJPEA_W_KPEB_WZZ DD imagerel $LN30+138
	DD	imagerel $LN30+166
	DD	imagerel $chain$2$?StringCchPrintfW@@YAJPEA_W_KPEB_WZZ
pdata	ENDS
;	COMDAT pdata
pdata	SEGMENT
$pdata$4$?StringCchPrintfW@@YAJPEA_W_KPEB_WZZ DD imagerel $LN30+166
	DD	imagerel $LN30+182
	DD	imagerel $chain$4$?StringCchPrintfW@@YAJPEA_W_KPEB_WZZ
pdata	ENDS
;	COMDAT pdata
pdata	SEGMENT
$pdata$5$?StringCchPrintfW@@YAJPEA_W_KPEB_WZZ DD imagerel $LN30+182
	DD	imagerel $LN30+190
	DD	imagerel $chain$5$?StringCchPrintfW@@YAJPEA_W_KPEB_WZZ
pdata	ENDS
;	COMDAT pdata
pdata	SEGMENT
$pdata$?StringCchVPrintfW@@YAJPEA_W_KPEB_WPEAD@Z DD imagerel $LN30
	DD	imagerel $LN30+59
	DD	imagerel $unwind$?StringCchVPrintfW@@YAJPEA_W_KPEB_WPEAD@Z
pdata	ENDS
;	COMDAT pdata
pdata	SEGMENT
$pdata$0$?StringCchVPrintfW@@YAJPEA_W_KPEB_WPEAD@Z DD imagerel $LN30+59
	DD	imagerel $LN30+151
	DD	imagerel $chain$0$?StringCchVPrintfW@@YAJPEA_W_KPEB_WPEAD@Z
pdata	ENDS
;	COMDAT pdata
pdata	SEGMENT
$pdata$1$?StringCchVPrintfW@@YAJPEA_W_KPEB_WPEAD@Z DD imagerel $LN30+151
	DD	imagerel $LN30+173
	DD	imagerel $chain$1$?StringCchVPrintfW@@YAJPEA_W_KPEB_WPEAD@Z
pdata	ENDS
;	COMDAT pdata
pdata	SEGMENT
$pdata$_vsnwprintf DD imagerel $LN6
	DD	imagerel $LN6+103
	DD	imagerel $unwind$_vsnwprintf
pdata	ENDS
;	COMDAT pdata
pdata	SEGMENT
$pdata$_vsnwprintf_l DD imagerel $LN4
	DD	imagerel $LN4+95
	DD	imagerel $unwind$_vsnwprintf_l
pdata	ENDS
;	COMDAT pdata
pdata	SEGMENT
$pdata$memcpy_s DD imagerel memcpy_s
	DD	imagerel memcpy_s+167
	DD	imagerel $unwind$memcpy_s
pdata	ENDS
;	COMDAT pdata
pdata	SEGMENT
$pdata$?RegisterAsioDriver@@YAJXZ DD imagerel $LN7
	DD	imagerel $LN7+185
	DD	imagerel $unwind$?RegisterAsioDriver@@YAJXZ
pdata	ENDS
;	COMDAT pdata
pdata	SEGMENT
$pdata$?UnregisterAsioDriver@@YAJXZ DD imagerel $LN7
	DD	imagerel $LN7+182
	DD	imagerel $unwind$?UnregisterAsioDriver@@YAJXZ
;	COMDAT g_header_init_InitializeResultExceptions
_DATA	SEGMENT
g_header_init_InitializeResultExceptions DB 01H
_DATA	ENDS
;	COMDAT g_header_init_WilInitialize_ResultMacros_DesktopOrSystem_SuppressPrivateApiUse
_DATA	SEGMENT
g_header_init_WilInitialize_ResultMacros_DesktopOrSystem_SuppressPrivateApiUse DB 01H
_DATA	ENDS
;	COMDAT xdata
xdata	SEGMENT
$unwind$?UnregisterAsioDriver@@YAJXZ DD 031b19H
	DD	0180109H
	DD	03002H
	DD	imagerel __GSHandlerCheck
	DD	0b0H
xdata	ENDS
;	COMDAT xdata
xdata	SEGMENT
$unwind$?RegisterAsioDriver@@YAJXZ DD 031b19H
	DD	01a0109H
	DD	03002H
	DD	imagerel __GSHandlerCheck
	DD	0c0H
xdata	ENDS
;	COMDAT xdata
xdata	SEGMENT
$unwind$memcpy_s DD 060f01H
	DD	07640fH
	DD	06340fH
	DD	0700b320fH
xdata	ENDS
;	COMDAT xdata
xdata	SEGMENT
$unwind$_vsnwprintf_l DD 060f01H
	DD	09640fH
	DD	08340fH
	DD	0700b520fH
xdata	ENDS
;	COMDAT xdata
xdata	SEGMENT
$unwind$_vsnwprintf DD 081401H
	DD	0a6414H
	DD	095414H
	DD	083414H
	DD	070105214H
xdata	ENDS
;	COMDAT xdata
xdata	SEGMENT
$chain$1$?StringCchVPrintfW@@YAJPEA_W_KPEB_WPEAD@Z DD 021H
	DD	imagerel $LN30
	DD	imagerel $LN30+59
	DD	imagerel $unwind$?StringCchVPrintfW@@YAJPEA_W_KPEB_WPEAD@Z
xdata	ENDS
;	COMDAT xdata
xdata	SEGMENT
$chain$0$?StringCchVPrintfW@@YAJPEA_W_KPEB_WPEAD@Z DD 020521H
	DD	087405H
	DD	imagerel $LN30
	DD	imagerel $LN30+59
	DD	imagerel $unwind$?StringCchVPrintfW@@YAJPEA_W_KPEB_WPEAD@Z
xdata	ENDS
;	COMDAT xdata
xdata	SEGMENT
$unwind$?StringCchVPrintfW@@YAJPEA_W_KPEB_WPEAD@Z DD 081501H
	DD	0b6415H
	DD	0a5415H
	DD	093415H
	DD	0e0115215H
xdata	ENDS
;	COMDAT xdata
xdata	SEGMENT
$chain$5$?StringCchPrintfW@@YAJPEA_W_KPEB_WZZ DD 021H
	DD	imagerel $LN30
	DD	imagerel $LN30+62
	DD	imagerel $unwind$?StringCchPrintfW@@YAJPEA_W_KPEB_WZZ
xdata	ENDS
;	COMDAT xdata
xdata	SEGMENT
$chain$4$?StringCchPrintfW@@YAJPEA_W_KPEB_WZZ DD 020021H
	DD	077400H
	DD	imagerel $LN30
	DD	imagerel $LN30+62
	DD	imagerel $unwind$?StringCchPrintfW@@YAJPEA_W_KPEB_WZZ
xdata	ENDS
;	COMDAT xdata
xdata	SEGMENT
$chain$2$?StringCchPrintfW@@YAJPEA_W_KPEB_WZZ DD 021H
	DD	imagerel $LN30+62
	DD	imagerel $LN30+69
	DD	imagerel $chain$0$?StringCchPrintfW@@YAJPEA_W_KPEB_WZZ
xdata	ENDS
;	COMDAT xdata
xdata	SEGMENT
$chain$1$?StringCchPrintfW@@YAJPEA_W_KPEB_WZZ DD 020521H
	DD	06e405H
	DD	imagerel $LN30+62
	DD	imagerel $LN30+69
	DD	imagerel $chain$0$?StringCchPrintfW@@YAJPEA_W_KPEB_WZZ
xdata	ENDS
;	COMDAT xdata
xdata	SEGMENT
$chain$0$?StringCchPrintfW@@YAJPEA_W_KPEB_WZZ DD 020521H
	DD	077405H
	DD	imagerel $LN30
	DD	imagerel $LN30+62
	DD	imagerel $unwind$?StringCchPrintfW@@YAJPEA_W_KPEB_WZZ
xdata	ENDS
;	COMDAT xdata
xdata	SEGMENT
$unwind$?StringCchPrintfW@@YAJPEA_W_KPEB_WZZ DD 041101H
	DD	0600d7211H
	DD	0300b500cH
xdata	ENDS
;	COMDAT xdata
xdata	SEGMENT
$unwind$?StringVPrintfWorkerW@@YAJPEA_W_KPEA_KPEB_WPEAD@Z DD 081401H
	DD	0a6414H
	DD	095414H
	DD	083414H
	DD	070105214H
xdata	ENDS
;	COMDAT xdata
xdata	SEGMENT
$unwind$??0exception@std@@QEAA@AEBV01@@Z DD 020601H
	DD	030023206H
xdata	ENDS
;	COMDAT xdata
xdata	SEGMENT
$unwind$??_Gexception@std@@UEAAPEAXI@Z DD 040a01H
	DD	06340aH
	DD	07006320aH
xdata	ENDS
;	COMDAT xdata
xdata	SEGMENT
$unwind$?LogStringPrintf@details@wil@@YAPEA_WPEA_WPEB_W1ZZ DD 071601H
	DD	0f0126216H
	DD	0700ee010H
	DD	0500c600dH
	DD	0300bH
xdata	ENDS
;	COMDAT xdata
xdata	SEGMENT
$ip2state$?GetFailureLogString@wil@@YAJPEA_W_KAEBUFailureInfo@1@@Z DB 02H
	DB	0caH
	DB	00H
xdata	ENDS
;	COMDAT xdata
xdata	SEGMENT
$cppxdata$?GetFailureLogString@wil@@YAJPEA_W_KAEBUFailureInfo@1@@Z DB 060H
	DD	imagerel $ip2state$?GetFailureLogString@wil@@YAJPEA_W_KAEBUFailureInfo@1@@Z
xdata	ENDS
;	COMDAT xdata
xdata	SEGMENT
$unwind$?GetFailureLogString@wil@@YAJPEA_W_KAEBUFailureInfo@1@@Z DD 092519H
	DD	0533413H
	DD	04a0113H
	DD	0e00af00cH
	DD	060077008H
	DD	05006H
	DD	imagerel __GSHandlerCheck_EH4
	DD	imagerel $cppxdata$?GetFailureLogString@wil@@YAJPEA_W_KAEBUFailureInfo@1@@Z
	DD	0243H
xdata	ENDS
;	COMDAT xdata
xdata	SEGMENT
$unwind$?FromResult@ResultStatus@details@wil@@SA?AU123@J@Z DD 010401H
	DD	04204H
xdata	ENDS
;	COMDAT xdata
xdata	SEGMENT
$chain$1$??1shared_buffer@details@wil@@QEAA@XZ DD 021H
	DD	imagerel $LN13
	DD	imagerel $LN13+31
	DD	imagerel $unwind$??1shared_buffer@details@wil@@QEAA@XZ
xdata	ENDS
;	COMDAT xdata
xdata	SEGMENT
$chain$0$??1shared_buffer@details@wil@@QEAA@XZ DD 020521H
	DD	063405H
	DD	imagerel $LN13
	DD	imagerel $LN13+31
	DD	imagerel $unwind$??1shared_buffer@details@wil@@QEAA@XZ
xdata	ENDS
;	COMDAT xdata
xdata	SEGMENT
$unwind$??1shared_buffer@details@wil@@QEAA@XZ DD 020601H
	DD	070023206H
xdata	ENDS
;	COMDAT xdata
xdata	SEGMENT
$chain$1$?reset@shared_buffer@details@wil@@QEAAXXZ DD 021H
	DD	imagerel $LN10
	DD	imagerel $LN10+31
	DD	imagerel $unwind$?reset@shared_buffer@details@wil@@QEAAXXZ
xdata	ENDS
;	COMDAT xdata
xdata	SEGMENT
$chain$0$?reset@shared_buffer@details@wil@@QEAAXXZ DD 020521H
	DD	063405H
	DD	imagerel $LN10
	DD	imagerel $LN10+31
	DD	imagerel $unwind$?reset@shared_buffer@details@wil@@QEAAXXZ
xdata	ENDS
;	COMDAT xdata
xdata	SEGMENT
$unwind$?reset@shared_buffer@details@wil@@QEAAXXZ DD 020601H
	DD	070023206H
xdata	ENDS
;	COMDAT xdata
xdata	SEGMENT
$unwind$?create@shared_buffer@details@wil@@QEAA_NPEBX_K@Z DD 086d01H
	DD	06e46dH
	DD	08540fH
	DD	07340fH
	DD	0700b320fH
xdata	ENDS
;	COMDAT xdata
xdata	SEGMENT
$unwind$?create@shared_buffer@details@wil@@QEAA_N_K@Z DD 086d01H
	DD	06e46dH
	DD	08540fH
	DD	07340fH
	DD	0700b320fH
xdata	ENDS
;	COMDAT xdata
xdata	SEGMENT
$chain$1$?assign@shared_buffer@details@wil@@AEAAXPEAJ_K@Z DD 021H
	DD	imagerel $LN16
	DD	imagerel $LN16+46
	DD	imagerel $unwind$?assign@shared_buffer@details@wil@@AEAAXPEAJ_K@Z
xdata	ENDS
;	COMDAT xdata
xdata	SEGMENT
$chain$0$?assign@shared_buffer@details@wil@@AEAAXPEAJ_K@Z DD 020521H
	DD	063405H
	DD	imagerel $LN16
	DD	imagerel $LN16+46
	DD	imagerel $unwind$?assign@shared_buffer@details@wil@@AEAAXPEAJ_K@Z
xdata	ENDS
;	COMDAT xdata
xdata	SEGMENT
$unwind$?assign@shared_buffer@details@wil@@AEAAXPEAJ_K@Z DD 060f01H
	DD	08640fH
	DD	07540fH
	DD	0700b320fH
xdata	ENDS
;	COMDAT xdata
xdata	SEGMENT
$unwind$?K32GetModuleInformation@details@wil@@YA_NPEAXPEAIPEAD_K@Z DD 072019H
	DD	02a010eH
	DD	07005e007H
	DD	050036004H
	DD	03002H
	DD	imagerel __GSHandlerCheck
	DD	0140H
xdata	ENDS
;	COMDAT xdata
xdata	SEGMENT
$unwind$?GetCurrentModuleName@details@wil@@YAPEBDXZ DD 031b19H
	DD	02a0109H
	DD	03002H
	DD	imagerel __GSHandlerCheck
	DD	0140H
xdata	ENDS
;	COMDAT xdata
xdata	SEGMENT
$unwind$?WilDynamicLoadRaiseFailFastException@details@wil@@YAXPEAU_EXCEPTION_RECORD@@PEAU_CONTEXT@@K@Z DD 060f01H
	DD	07640fH
	DD	06340fH
	DD	0700b320fH
xdata	ENDS
;	COMDAT xdata
xdata	SEGMENT
$unwind$??0StoredFailureInfo@wil@@QEAA@AEBUFailureInfo@1@@Z DD 020601H
	DD	030023206H
xdata	ENDS
;	COMDAT xdata
xdata	SEGMENT
$unwind$?SetFailureInfo@StoredFailureInfo@wil@@QEAAXAEBUFailureInfo@2@@Z DD 0c1c01H
	DD	0d641cH
	DD	0c541cH
	DD	0b341cH
	DD	0f018321cH
	DD	0d014e016H
	DD	07010c012H
xdata	ENDS
;	COMDAT xdata
xdata	SEGMENT
$unwind$??0ResultException@wil@@QEAA@AEBUFailureInfo@1@@Z DD 040a01H
	DD	06340aH
	DD	07006320aH
xdata	ENDS
;	COMDAT xdata
xdata	SEGMENT
$unwind$?what@ResultException@wil@@UEBAPEBDXZ DD 072a19H
	DD	020e6418H
	DD	020d3418H
	DD	020a0118H
	DD	0700bH
	DD	imagerel __GSHandlerCheck
	DD	01040H
xdata	ENDS
;	COMDAT xdata
xdata	SEGMENT
$chain$4$??_GResultException@wil@@UEAAPEAXI@Z DD 021H
	DD	imagerel $LN42
	DD	imagerel $LN42+6
	DD	imagerel $unwind$??_GResultException@wil@@UEAAPEAXI@Z
xdata	ENDS
;	COMDAT xdata
xdata	SEGMENT
$chain$3$??_GResultException@wil@@UEAAPEAXI@Z DD 082521H
	DD	09e425H
	DD	08641bH
	DD	075414H
	DD	063405H
	DD	imagerel $LN42
	DD	imagerel $LN42+6
	DD	imagerel $unwind$??_GResultException@wil@@UEAAPEAXI@Z
xdata	ENDS
;	COMDAT xdata
xdata	SEGMENT
$unwind$??_GResultException@wil@@UEAAPEAXI@Z DD 020601H
	DD	070023206H
xdata	ENDS
;	COMDAT xdata
xdata	SEGMENT
$unwind$??1ResultException@wil@@UEAA@XZ DD 081401H
	DD	086414H
	DD	075414H
	DD	063414H
	DD	070103214H
xdata	ENDS
;	COMDAT xdata
xdata	SEGMENT
$chain$1$??1StoredFailureInfo@wil@@QEAA@XZ DD 021H
	DD	imagerel $LN16
	DD	imagerel $LN16+35
	DD	imagerel $unwind$??1StoredFailureInfo@wil@@QEAA@XZ
xdata	ENDS
;	COMDAT xdata
xdata	SEGMENT
$chain$0$??1StoredFailureInfo@wil@@QEAA@XZ DD 020521H
	DD	063405H
	DD	imagerel $LN16
	DD	imagerel $LN16+35
	DD	imagerel $unwind$??1StoredFailureInfo@wil@@QEAA@XZ
xdata	ENDS
;	COMDAT xdata
xdata	SEGMENT
$unwind$??1StoredFailureInfo@wil@@QEAA@XZ DD 020601H
	DD	070023206H
xdata	ENDS
;	COMDAT xdata
xdata	SEGMENT
$unwind$?MaybeGetExceptionString@details@wil@@YAXAEBVexception@std@@PEA_W_K@Z DD 040f01H
	DD	06340fH
	DD	0700b320fH
xdata	ENDS
;	COMDAT xdata
xdata	SEGMENT
$unwind$?catch$1@?0??RecognizeCaughtExceptionFromCallback@details@wil@@YAJPEA_W_K@Z@4HA DD 020a01H
	DD	05006320aH
xdata	ENDS
;	COMDAT xdata
xdata	SEGMENT
$unwind$?catch$0@?0??RecognizeCaughtExceptionFromCallback@details@wil@@YAJPEA_W_K@Z@4HA DD 030b01H
	DD	05007420bH
	DD	03006H
xdata	ENDS
;	COMDAT xdata
xdata	SEGMENT
$ip2state$?RecognizeCaughtExceptionFromCallback@details@wil@@YAJPEA_W_K@Z DB 04H
	DB	'$'
	DB	00H
	DB	'F'
	DB	02H
xdata	ENDS
;	COMDAT xdata
xdata	SEGMENT
$handlerMap$?RecognizeCaughtExceptionFromCallback@details@wil@@YAJPEA_W_K@Z DB 04H
	DB	017H
	DB	010H
	DD	imagerel ??_R0?AVexception@std@@@8
	DB	'@'
	DD	imagerel ?catch$0@?0??RecognizeCaughtExceptionFromCallback@details@wil@@YAJPEA_W_K@Z@4HA
	DB	'N'
	DB	011H
	DB	080H
	DD	imagerel ?catch$1@?0??RecognizeCaughtExceptionFromCallback@details@wil@@YAJPEA_W_K@Z@4HA
	DB	'N'
xdata	ENDS
;	COMDAT xdata
xdata	SEGMENT
$tryMap$?RecognizeCaughtExceptionFromCallback@details@wil@@YAJPEA_W_K@Z DB 02H
	DB	00H
	DB	00H
	DB	02H
	DD	imagerel $handlerMap$?RecognizeCaughtExceptionFromCallback@details@wil@@YAJPEA_W_K@Z
xdata	ENDS
;	COMDAT xdata
xdata	SEGMENT
$stateUnwindMap$?RecognizeCaughtExceptionFromCallback@details@wil@@YAJPEA_W_K@Z DB 04H
	DB	08H
	DB	010H
xdata	ENDS
;	COMDAT xdata
xdata	SEGMENT
$cppxdata$?RecognizeCaughtExceptionFromCallback@details@wil@@YAJPEA_W_K@Z DB 038H
	DD	imagerel $stateUnwindMap$?RecognizeCaughtExceptionFromCallback@details@wil@@YAJPEA_W_K@Z
	DD	imagerel $tryMap$?RecognizeCaughtExceptionFromCallback@details@wil@@YAJPEA_W_K@Z
	DD	imagerel $ip2state$?RecognizeCaughtExceptionFromCallback@details@wil@@YAJPEA_W_K@Z
xdata	ENDS
;	COMDAT xdata
xdata	SEGMENT
$unwind$?RecognizeCaughtExceptionFromCallback@details@wil@@YAJPEA_W_K@Z DD 020f19H
	DD	0300b520fH
	DD	imagerel __CxxFrameHandler4
	DD	imagerel $cppxdata$?RecognizeCaughtExceptionFromCallback@details@wil@@YAJPEA_W_K@Z
xdata	ENDS
;	COMDAT xdata
xdata	SEGMENT
$unwind$?Rethrow@details@wil@@YAXXZ DD 010401H
	DD	04204H
xdata	ENDS
;	COMDAT xdata
xdata	SEGMENT
$unwind$?ThrowResultExceptionInternal@details@wil@@YAXAEBUFailureInfo@2@@Z DD 020701H
	DD	01f0107H
xdata	ENDS
;	COMDAT xdata
xdata	SEGMENT
$unwind$??0ResultException@wil@@QEAA@AEBV01@@Z DD 040a01H
	DD	06340aH
	DD	07006320aH
xdata	ENDS
;	COMDAT xdata
xdata	SEGMENT
$ip2state$?catch$6@?0??ResultFromCaughtExceptionInternal@details@wil@@YA?AUResultStatus@12@PEA_W_KPEA_N@Z@4HA DB 00H
xdata	ENDS
;	COMDAT xdata
xdata	SEGMENT
$stateUnwindMap$?catch$6@?0??ResultFromCaughtExceptionInternal@details@wil@@YA?AUResultStatus@12@PEA_W_KPEA_N@Z@4HA DB 02H
	DB	08H
xdata	ENDS
;	COMDAT xdata
xdata	SEGMENT
$cppxdata$?catch$6@?0??ResultFromCaughtExceptionInternal@details@wil@@YA?AUResultStatus@12@PEA_W_KPEA_N@Z@4HA DB 069H
	DD	imagerel $stateUnwindMap$?catch$6@?0??ResultFromCaughtExceptionInternal@details@wil@@YA?AUResultStatus@12@PEA_W_KPEA_N@Z@4HA
	DD	imagerel $ip2state$?catch$6@?0??ResultFromCaughtExceptionInternal@details@wil@@YA?AUResultStatus@12@PEA_W_KPEA_N@Z@4HA
	DB	'p'
xdata	ENDS
;	COMDAT xdata
xdata	SEGMENT
$unwind$?catch$6@?0??ResultFromCaughtExceptionInternal@details@wil@@YA?AUResultStatus@12@PEA_W_KPEA_N@Z@4HA DD 020a19H
	DD	05006320aH
	DD	imagerel __CxxFrameHandler4
	DD	imagerel $cppxdata$?catch$6@?0??ResultFromCaughtExceptionInternal@details@wil@@YA?AUResultStatus@12@PEA_W_KPEA_N@Z@4HA
xdata	ENDS
;	COMDAT xdata
xdata	SEGMENT
$ip2state$?catch$5@?0??ResultFromCaughtExceptionInternal@details@wil@@YA?AUResultStatus@12@PEA_W_KPEA_N@Z@4HA DB 02H
	DB	'B'
	DB	02H
xdata	ENDS
;	COMDAT xdata
xdata	SEGMENT
$stateUnwindMap$?catch$5@?0??ResultFromCaughtExceptionInternal@details@wil@@YA?AUResultStatus@12@PEA_W_KPEA_N@Z@4HA DB 02H
	DB	08H
xdata	ENDS
;	COMDAT xdata
xdata	SEGMENT
$cppxdata$?catch$5@?0??ResultFromCaughtExceptionInternal@details@wil@@YA?AUResultStatus@12@PEA_W_KPEA_N@Z@4HA DB 069H
	DD	imagerel $stateUnwindMap$?catch$5@?0??ResultFromCaughtExceptionInternal@details@wil@@YA?AUResultStatus@12@PEA_W_KPEA_N@Z@4HA
	DD	imagerel $ip2state$?catch$5@?0??ResultFromCaughtExceptionInternal@details@wil@@YA?AUResultStatus@12@PEA_W_KPEA_N@Z@4HA
	DB	090H
xdata	ENDS
;	COMDAT xdata
xdata	SEGMENT
$unwind$?catch$5@?0??ResultFromCaughtExceptionInternal@details@wil@@YA?AUResultStatus@12@PEA_W_KPEA_N@Z@4HA DD 030b19H
	DD	05007420bH
	DD	03006H
	DD	imagerel __CxxFrameHandler4
	DD	imagerel $cppxdata$?catch$5@?0??ResultFromCaughtExceptionInternal@details@wil@@YA?AUResultStatus@12@PEA_W_KPEA_N@Z@4HA
xdata	ENDS
;	COMDAT xdata
xdata	SEGMENT
$ip2state$?catch$4@?0??ResultFromCaughtExceptionInternal@details@wil@@YA?AUResultStatus@12@PEA_W_KPEA_N@Z@4HA DB 02H
	DB	'B'
	DB	02H
xdata	ENDS
;	COMDAT xdata
xdata	SEGMENT
$stateUnwindMap$?catch$4@?0??ResultFromCaughtExceptionInternal@details@wil@@YA?AUResultStatus@12@PEA_W_KPEA_N@Z@4HA DB 02H
	DB	08H
xdata	ENDS
;	COMDAT xdata
xdata	SEGMENT
$cppxdata$?catch$4@?0??ResultFromCaughtExceptionInternal@details@wil@@YA?AUResultStatus@12@PEA_W_KPEA_N@Z@4HA DB 069H
	DD	imagerel $stateUnwindMap$?catch$4@?0??ResultFromCaughtExceptionInternal@details@wil@@YA?AUResultStatus@12@PEA_W_KPEA_N@Z@4HA
	DD	imagerel $ip2state$?catch$4@?0??ResultFromCaughtExceptionInternal@details@wil@@YA?AUResultStatus@12@PEA_W_KPEA_N@Z@4HA
	DB	090H
xdata	ENDS
;	COMDAT xdata
xdata	SEGMENT
$unwind$?catch$4@?0??ResultFromCaughtExceptionInternal@details@wil@@YA?AUResultStatus@12@PEA_W_KPEA_N@Z@4HA DD 030b19H
	DD	05007420bH
	DD	03006H
	DD	imagerel __CxxFrameHandler4
	DD	imagerel $cppxdata$?catch$4@?0??ResultFromCaughtExceptionInternal@details@wil@@YA?AUResultStatus@12@PEA_W_KPEA_N@Z@4HA
xdata	ENDS
;	COMDAT xdata
xdata	SEGMENT
$ip2state$?catch$3@?0??ResultFromCaughtExceptionInternal@details@wil@@YA?AUResultStatus@12@PEA_W_KPEA_N@Z@4HA DB 00H
xdata	ENDS
;	COMDAT xdata
xdata	SEGMENT
$stateUnwindMap$?catch$3@?0??ResultFromCaughtExceptionInternal@details@wil@@YA?AUResultStatus@12@PEA_W_KPEA_N@Z@4HA DB 02H
	DB	08H
xdata	ENDS
;	COMDAT xdata
xdata	SEGMENT
$cppxdata$?catch$3@?0??ResultFromCaughtExceptionInternal@details@wil@@YA?AUResultStatus@12@PEA_W_KPEA_N@Z@4HA DB 069H
	DD	imagerel $stateUnwindMap$?catch$3@?0??ResultFromCaughtExceptionInternal@details@wil@@YA?AUResultStatus@12@PEA_W_KPEA_N@Z@4HA
	DD	imagerel $ip2state$?catch$3@?0??ResultFromCaughtExceptionInternal@details@wil@@YA?AUResultStatus@12@PEA_W_KPEA_N@Z@4HA
	DB	090H
xdata	ENDS
;	COMDAT xdata
xdata	SEGMENT
$unwind$?catch$3@?0??ResultFromCaughtExceptionInternal@details@wil@@YA?AUResultStatus@12@PEA_W_KPEA_N@Z@4HA DD 030b19H
	DD	05007420bH
	DD	03006H
	DD	imagerel __CxxFrameHandler4
	DD	imagerel $cppxdata$?catch$3@?0??ResultFromCaughtExceptionInternal@details@wil@@YA?AUResultStatus@12@PEA_W_KPEA_N@Z@4HA
xdata	ENDS
;	COMDAT xdata
xdata	SEGMENT
$ip2state$?catch$2@?0??ResultFromCaughtExceptionInternal@details@wil@@YA?AUResultStatus@12@PEA_W_KPEA_N@Z@4HA DB 02H
	DB	'6'
	DB	02H
xdata	ENDS
;	COMDAT xdata
xdata	SEGMENT
$stateUnwindMap$?catch$2@?0??ResultFromCaughtExceptionInternal@details@wil@@YA?AUResultStatus@12@PEA_W_KPEA_N@Z@4HA DB 02H
	DB	08H
xdata	ENDS
;	COMDAT xdata
xdata	SEGMENT
$cppxdata$?catch$2@?0??ResultFromCaughtExceptionInternal@details@wil@@YA?AUResultStatus@12@PEA_W_KPEA_N@Z@4HA DB 069H
	DD	imagerel $stateUnwindMap$?catch$2@?0??ResultFromCaughtExceptionInternal@details@wil@@YA?AUResultStatus@12@PEA_W_KPEA_N@Z@4HA
	DD	imagerel $ip2state$?catch$2@?0??ResultFromCaughtExceptionInternal@details@wil@@YA?AUResultStatus@12@PEA_W_KPEA_N@Z@4HA
	DB	'p'
xdata	ENDS
;	COMDAT xdata
xdata	SEGMENT
$unwind$?catch$2@?0??ResultFromCaughtExceptionInternal@details@wil@@YA?AUResultStatus@12@PEA_W_KPEA_N@Z@4HA DD 020a19H
	DD	05006320aH
	DD	imagerel __CxxFrameHandler4
	DD	imagerel $cppxdata$?catch$2@?0??ResultFromCaughtExceptionInternal@details@wil@@YA?AUResultStatus@12@PEA_W_KPEA_N@Z@4HA
xdata	ENDS
;	COMDAT xdata
xdata	SEGMENT
$ip2state$?catch$1@?0??ResultFromCaughtExceptionInternal@details@wil@@YA?AUResultStatus@12@PEA_W_KPEA_N@Z@4HA DB 02H
	DB	'B'
	DB	02H
xdata	ENDS
;	COMDAT xdata
xdata	SEGMENT
$stateUnwindMap$?catch$1@?0??ResultFromCaughtExceptionInternal@details@wil@@YA?AUResultStatus@12@PEA_W_KPEA_N@Z@4HA DB 02H
	DB	08H
xdata	ENDS
;	COMDAT xdata
xdata	SEGMENT
$cppxdata$?catch$1@?0??ResultFromCaughtExceptionInternal@details@wil@@YA?AUResultStatus@12@PEA_W_KPEA_N@Z@4HA DB 069H
	DD	imagerel $stateUnwindMap$?catch$1@?0??ResultFromCaughtExceptionInternal@details@wil@@YA?AUResultStatus@12@PEA_W_KPEA_N@Z@4HA
	DD	imagerel $ip2state$?catch$1@?0??ResultFromCaughtExceptionInternal@details@wil@@YA?AUResultStatus@12@PEA_W_KPEA_N@Z@4HA
	DB	090H
xdata	ENDS
;	COMDAT xdata
xdata	SEGMENT
$unwind$?catch$1@?0??ResultFromCaughtExceptionInternal@details@wil@@YA?AUResultStatus@12@PEA_W_KPEA_N@Z@4HA DD 030b19H
	DD	05007420bH
	DD	03006H
	DD	imagerel __CxxFrameHandler4
	DD	imagerel $cppxdata$?catch$1@?0??ResultFromCaughtExceptionInternal@details@wil@@YA?AUResultStatus@12@PEA_W_KPEA_N@Z@4HA
xdata	ENDS
;	COMDAT xdata
xdata	SEGMENT
$ip2state$?catch$0@?0??ResultFromCaughtExceptionInternal@details@wil@@YA?AUResultStatus@12@PEA_W_KPEA_N@Z@4HA DB 00H
xdata	ENDS
;	COMDAT xdata
xdata	SEGMENT
$stateUnwindMap$?catch$0@?0??ResultFromCaughtExceptionInternal@details@wil@@YA?AUResultStatus@12@PEA_W_KPEA_N@Z@4HA DB 02H
	DB	08H
xdata	ENDS
;	COMDAT xdata
xdata	SEGMENT
$cppxdata$?catch$0@?0??ResultFromCaughtExceptionInternal@details@wil@@YA?AUResultStatus@12@PEA_W_KPEA_N@Z@4HA DB 069H
	DD	imagerel $stateUnwindMap$?catch$0@?0??ResultFromCaughtExceptionInternal@details@wil@@YA?AUResultStatus@12@PEA_W_KPEA_N@Z@4HA
	DD	imagerel $ip2state$?catch$0@?0??ResultFromCaughtExceptionInternal@details@wil@@YA?AUResultStatus@12@PEA_W_KPEA_N@Z@4HA
	DB	090H
xdata	ENDS
;	COMDAT xdata
xdata	SEGMENT
$unwind$?catch$0@?0??ResultFromCaughtExceptionInternal@details@wil@@YA?AUResultStatus@12@PEA_W_KPEA_N@Z@4HA DD 030b19H
	DD	05007420bH
	DD	03006H
	DD	imagerel __CxxFrameHandler4
	DD	imagerel $cppxdata$?catch$0@?0??ResultFromCaughtExceptionInternal@details@wil@@YA?AUResultStatus@12@PEA_W_KPEA_N@Z@4HA
xdata	ENDS
;	COMDAT xdata
xdata	SEGMENT
$ip2state$?ResultFromCaughtExceptionInternal@details@wil@@YA?AUResultStatus@12@PEA_W_KPEA_N@Z DB 08H
	DB	09cH
	DB	00H
	DB	08aH
	DB	02H
	DB	0acH
	DB	06H
	DB	014H
	DB	02H
xdata	ENDS
;	COMDAT xdata
xdata	SEGMENT
$handlerMap$0$?ResultFromCaughtExceptionInternal@details@wil@@YA?AUResultStatus@12@PEA_W_KPEA_N@Z DB 08H
	DB	017H
	DB	012H
	DD	imagerel ??_R0?AVResultException@wil@@@8
	DB	'P'
	DD	imagerel ?catch$3@?0??ResultFromCaughtExceptionInternal@details@wil@@YA?AUResultStatus@12@PEA_W_KPEA_N@Z@4HA
	DB	'U', 02H
	DB	017H
	DB	012H
	DD	imagerel ??_R0?AVbad_alloc@std@@@8
	DB	'p'
	DD	imagerel ?catch$4@?0??ResultFromCaughtExceptionInternal@details@wil@@YA?AUResultStatus@12@PEA_W_KPEA_N@Z@4HA
	DB	'U', 02H
	DB	017H
	DB	010H
	DD	imagerel ??_R0?AVexception@std@@@8
	DB	080H
	DD	imagerel ?catch$5@?0??ResultFromCaughtExceptionInternal@details@wil@@YA?AUResultStatus@12@PEA_W_KPEA_N@Z@4HA
	DB	'U', 02H
	DB	011H
	DB	080H
	DD	imagerel ?catch$6@?0??ResultFromCaughtExceptionInternal@details@wil@@YA?AUResultStatus@12@PEA_W_KPEA_N@Z@4HA
	DB	0e9H, 02H
xdata	ENDS
;	COMDAT xdata
xdata	SEGMENT
$handlerMap$?ResultFromCaughtExceptionInternal@details@wil@@YA?AUResultStatus@12@PEA_W_KPEA_N@Z DB 06H
	DB	017H
	DB	012H
	DD	imagerel ??_R0?AVResultException@wil@@@8
	DB	'@'
	DD	imagerel ?catch$0@?0??ResultFromCaughtExceptionInternal@details@wil@@YA?AUResultStatus@12@PEA_W_KPEA_N@Z@4HA
	DB	'U', 02H
	DB	017H
	DB	012H
	DD	imagerel ??_R0?AVbad_alloc@std@@@8
	DB	'`'
	DD	imagerel ?catch$1@?0??ResultFromCaughtExceptionInternal@details@wil@@YA?AUResultStatus@12@PEA_W_KPEA_N@Z@4HA
	DB	'U', 02H
	DB	021H
	DB	080H
	DD	imagerel ?catch$2@?0??ResultFromCaughtExceptionInternal@details@wil@@YA?AUResultStatus@12@PEA_W_KPEA_N@Z@4HA
	DB	'U', 02H
	DB	0e9H, 02H
xdata	ENDS
;	COMDAT xdata
xdata	SEGMENT
$tryMap$?ResultFromCaughtExceptionInternal@details@wil@@YA?AUResultStatus@12@PEA_W_KPEA_N@Z DB 04H
	DB	00H
	DB	00H
	DB	02H
	DD	imagerel $handlerMap$?ResultFromCaughtExceptionInternal@details@wil@@YA?AUResultStatus@12@PEA_W_KPEA_N@Z
	DB	04H
	DB	04H
	DB	06H
	DD	imagerel $handlerMap$0$?ResultFromCaughtExceptionInternal@details@wil@@YA?AUResultStatus@12@PEA_W_KPEA_N@Z
xdata	ENDS
;	COMDAT xdata
xdata	SEGMENT
$stateUnwindMap$?ResultFromCaughtExceptionInternal@details@wil@@YA?AUResultStatus@12@PEA_W_KPEA_N@Z DB 08H
	DB	08H
	DB	010H
	DB	018H
	DB	020H
xdata	ENDS
;	COMDAT xdata
xdata	SEGMENT
$cppxdata$?ResultFromCaughtExceptionInternal@details@wil@@YA?AUResultStatus@12@PEA_W_KPEA_N@Z DB 078H
	DD	imagerel $stateUnwindMap$?ResultFromCaughtExceptionInternal@details@wil@@YA?AUResultStatus@12@PEA_W_KPEA_N@Z
	DD	imagerel $tryMap$?ResultFromCaughtExceptionInternal@details@wil@@YA?AUResultStatus@12@PEA_W_KPEA_N@Z
	DD	imagerel $ip2state$?ResultFromCaughtExceptionInternal@details@wil@@YA?AUResultStatus@12@PEA_W_KPEA_N@Z
xdata	ENDS
;	COMDAT xdata
xdata	SEGMENT
$unwind$?ResultFromCaughtExceptionInternal@details@wil@@YA?AUResultStatus@12@PEA_W_KPEA_N@Z DD 061f19H
	DD	0f01bb21fH
	DD	07017e019H
	DD	030156016H
	DD	imagerel __CxxFrameHandler4
	DD	imagerel $cppxdata$?ResultFromCaughtExceptionInternal@details@wil@@YA?AUResultStatus@12@PEA_W_KPEA_N@Z
xdata	ENDS
;	COMDAT xdata
xdata	SEGMENT
$unwind$?catch$0@?0??RunFunctorWithExceptionFilter@details@wil@@YAJAEAUIFunctor@12@AEAUIFunctorHost@12@PEAX@Z@4HA DD 020a01H
	DD	05006320aH
xdata	ENDS
;	COMDAT xdata
xdata	SEGMENT
$ip2state$?RunFunctorWithExceptionFilter@details@wil@@YAJAEAUIFunctor@12@AEAUIFunctorHost@12@PEAX@Z DB 02H
	DB	'4'
	DB	02H
xdata	ENDS
;	COMDAT xdata
xdata	SEGMENT
$handlerMap$?RunFunctorWithExceptionFilter@details@wil@@YAJAEAUIFunctor@12@AEAUIFunctorHost@12@PEAX@Z DB 02H
	DB	011H
	DB	080H
	DD	imagerel ?catch$0@?0??RunFunctorWithExceptionFilter@details@wil@@YAJAEAUIFunctor@12@AEAUIFunctorHost@12@PEAX@Z@4HA
	DB	'<'
xdata	ENDS
;	COMDAT xdata
xdata	SEGMENT
$tryMap$?RunFunctorWithExceptionFilter@details@wil@@YAJAEAUIFunctor@12@AEAUIFunctorHost@12@PEAX@Z DB 02H
	DB	00H
	DB	00H
	DB	02H
	DD	imagerel $handlerMap$?RunFunctorWithExceptionFilter@details@wil@@YAJAEAUIFunctor@12@AEAUIFunctorHost@12@PEAX@Z
xdata	ENDS
;	COMDAT xdata
xdata	SEGMENT
$stateUnwindMap$?RunFunctorWithExceptionFilter@details@wil@@YAJAEAUIFunctor@12@AEAUIFunctorHost@12@PEAX@Z DB 04H
	DB	08H
	DB	010H
xdata	ENDS
;	COMDAT xdata
xdata	SEGMENT
$cppxdata$?RunFunctorWithExceptionFilter@details@wil@@YAJAEAUIFunctor@12@AEAUIFunctorHost@12@PEAX@Z DB 038H
	DD	imagerel $stateUnwindMap$?RunFunctorWithExceptionFilter@details@wil@@YAJAEAUIFunctor@12@AEAUIFunctorHost@12@PEAX@Z
	DD	imagerel $tryMap$?RunFunctorWithExceptionFilter@details@wil@@YAJAEAUIFunctor@12@AEAUIFunctorHost@12@PEAX@Z
	DD	imagerel $ip2state$?RunFunctorWithExceptionFilter@details@wil@@YAJAEAUIFunctor@12@AEAUIFunctorHost@12@PEAX@Z
xdata	ENDS
;	COMDAT xdata
xdata	SEGMENT
$unwind$?RunFunctorWithExceptionFilter@details@wil@@YAJAEAUIFunctor@12@AEAUIFunctorHost@12@PEAX@Z DD 010e19H
	DD	0420eH
	DD	imagerel __CxxFrameHandler4
	DD	imagerel $cppxdata$?RunFunctorWithExceptionFilter@details@wil@@YAJAEAUIFunctor@12@AEAUIFunctorHost@12@PEAX@Z
xdata	ENDS
;	COMDAT xdata
xdata	SEGMENT
$unwind$?EnterCriticalSection@wil@@YA?AV?$unique_any_t@V?$unique_storage@U?$resource_policy@PEAU_RTL_CRITICAL_SECTION@@P6AXPEAU1@@Z$1?LeaveCriticalSection@@YAX0@ZU?$integral_constant@_K$00@wistd@@PEAU1@PEAU1@$0A@$$T@details@wil@@@details@wil@@@1@PEAU_RTL_CRITICAL_SECTION@@@Z DD 040a01H
	DD	08340aH
	DD	07006320aH
xdata	ENDS
;	COMDAT xdata
xdata	SEGMENT
$unwind$??0critical_section@wil@@QEAA@K@Z DD 020601H
	DD	030023206H
xdata	ENDS
;	COMDAT xdata
xdata	SEGMENT
$unwind$?lock@critical_section@wil@@QEAA?AV?$unique_any_t@V?$unique_storage@U?$resource_policy@PEAU_RTL_CRITICAL_SECTION@@P6AXPEAU1@@Z$1?LeaveCriticalSection@@YAX0@ZU?$integral_constant@_K$00@wistd@@PEAU1@PEAU1@$0A@$$T@details@wil@@@details@wil@@@2@XZ DD 040a01H
	DD	08340aH
	DD	07006320aH
xdata	ENDS
;	COMDAT xdata
xdata	SEGMENT
$unwind$?getNanoSeconds@@YAXPEAUASIOTimeStamp@@@Z DD 020601H
	DD	030023206H
xdata	ENDS
;	COMDAT xdata
xdata	SEGMENT
$unwind$?dtor$0@?0??CreateInstance@CUSBAsio@@SAPEAVCUnknown@@PEAUIUnknown@@PEAJ@Z@4HA DD 020601H
	DD	050023206H
xdata	ENDS
;	COMDAT xdata
xdata	SEGMENT
$ip2state$?CreateInstance@CUSBAsio@@SAPEAVCUnknown@@PEAUIUnknown@@PEAJ@Z DB 04H
	DB	'$'
	DB	00H
	DB	'F'
	DB	02H
xdata	ENDS
;	COMDAT xdata
xdata	SEGMENT
$stateUnwindMap$?CreateInstance@CUSBAsio@@SAPEAVCUnknown@@PEAUIUnknown@@PEAJ@Z DB 02H
	DB	0eH
	DD	imagerel ?dtor$0@?0??CreateInstance@CUSBAsio@@SAPEAVCUnknown@@PEAUIUnknown@@PEAJ@Z@4HA
xdata	ENDS
;	COMDAT xdata
xdata	SEGMENT
$cppxdata$?CreateInstance@CUSBAsio@@SAPEAVCUnknown@@PEAUIUnknown@@PEAJ@Z DB 028H
	DD	imagerel $stateUnwindMap$?CreateInstance@CUSBAsio@@SAPEAVCUnknown@@PEAUIUnknown@@PEAJ@Z
	DD	imagerel $ip2state$?CreateInstance@CUSBAsio@@SAPEAVCUnknown@@PEAUIUnknown@@PEAJ@Z
xdata	ENDS
;	COMDAT xdata
xdata	SEGMENT
$unwind$?CreateInstance@CUSBAsio@@SAPEAVCUnknown@@PEAUIUnknown@@PEAJ@Z DD 040a11H
	DD	06340aH
	DD	07006320aH
	DD	imagerel __CxxFrameHandler4
	DD	imagerel $cppxdata$?CreateInstance@CUSBAsio@@SAPEAVCUnknown@@PEAUIUnknown@@PEAJ@Z
xdata	ENDS
;	COMDAT xdata
xdata	SEGMENT
$unwind$?NonDelegatingQueryInterface@CUSBAsio@@UEAAJAEBU_GUID@@PEAPEAX@Z DD 010401H
	DD	04204H
xdata	ENDS
;	COMDAT xdata
xdata	SEGMENT
$ip2state$??0CUSBAsio@@QEAA@PEAUIUnknown@@PEAJ@Z DB 04H
	DB	'u', 0fH
	DB	08H
	DB	0d5H, '$'
	DB	00H
xdata	ENDS
;	COMDAT xdata
xdata	SEGMENT
$stateUnwindMap$??0CUSBAsio@@QEAA@PEAUIUnknown@@PEAJ@Z DB 08H
	DB	0eH
	DD	imagerel ?dtor$0@?0???0CUSBAsio@@QEAA@PEAUIUnknown@@PEAJ@Z@4HA
	DB	02eH
	DD	imagerel ?dtor$1@?0???0CUSBAsio@@QEAA@PEAUIUnknown@@PEAJ@Z@4HA
	DB	02eH
	DD	imagerel ?dtor$2@?0???0CUSBAsio@@QEAA@PEAUIUnknown@@PEAJ@Z@4HA
	DB	02eH
	DD	imagerel ?dtor$3@?0???0CUSBAsio@@QEAA@PEAUIUnknown@@PEAJ@Z@4HA
xdata	ENDS
;	COMDAT xdata
xdata	SEGMENT
$cppxdata$??0CUSBAsio@@QEAA@PEAUIUnknown@@PEAJ@Z DB 028H
	DD	imagerel $stateUnwindMap$??0CUSBAsio@@QEAA@PEAUIUnknown@@PEAJ@Z
	DD	imagerel $ip2state$??0CUSBAsio@@QEAA@PEAUIUnknown@@PEAJ@Z
xdata	ENDS
;	COMDAT xdata
xdata	SEGMENT
$unwind$??0CUSBAsio@@QEAA@PEAUIUnknown@@PEAJ@Z DD 0b3419H
	DD	05b7423H
	DD	05a6423H
	DD	0593423H
	DD	0540123H
	DD	0e012f014H
	DD	05010H
	DD	imagerel __GSHandlerCheck_EH4
	DD	imagerel $cppxdata$??0CUSBAsio@@QEAA@PEAUIUnknown@@PEAJ@Z
	DD	0292H
xdata	ENDS
;	COMDAT xdata
xdata	SEGMENT
$ip2state$??_GCUSBAsio@@UEAAPEAXI@Z DB 02H
	DB	'H'
	DB	02H
xdata	ENDS
;	COMDAT xdata
xdata	SEGMENT
$stateUnwindMap$??_GCUSBAsio@@UEAAPEAXI@Z DB 02H
	DB	0eH
	DD	imagerel __std_terminate
xdata	ENDS
;	COMDAT xdata
xdata	SEGMENT
$cppxdata$??_GCUSBAsio@@UEAAPEAXI@Z DB 068H
	DD	imagerel $stateUnwindMap$??_GCUSBAsio@@UEAAPEAXI@Z
	DD	imagerel $ip2state$??_GCUSBAsio@@UEAAPEAXI@Z
xdata	ENDS
;	COMDAT xdata
xdata	SEGMENT
$unwind$??_GCUSBAsio@@UEAAPEAXI@Z DD 040a19H
	DD	06340aH
	DD	07006320aH
	DD	imagerel __CxxFrameHandler4
	DD	imagerel $cppxdata$??_GCUSBAsio@@UEAAPEAXI@Z
xdata	ENDS
;	COMDAT xdata
xdata	SEGMENT
$ip2state$??1CUSBAsio@@UEAA@XZ DB 02H
	DB	'<'
	DB	00H
xdata	ENDS
;	COMDAT xdata
xdata	SEGMENT
$cppxdata$??1CUSBAsio@@UEAA@XZ DB 060H
	DD	imagerel $ip2state$??1CUSBAsio@@UEAA@XZ
xdata	ENDS
;	COMDAT xdata
xdata	SEGMENT
$unwind$??1CUSBAsio@@UEAA@XZ DD 020619H
	DD	030023206H
	DD	imagerel __CxxFrameHandler4
	DD	imagerel $cppxdata$??1CUSBAsio@@UEAA@XZ
xdata	ENDS
;	COMDAT xdata
xdata	SEGMENT
$chain$1$?start@CUSBAsio@@UEAAJXZ DD 021H
	DD	imagerel $LN19
	DD	imagerel $LN19+80
	DD	imagerel $unwind$?start@CUSBAsio@@UEAAJXZ
xdata	ENDS
;	COMDAT xdata
xdata	SEGMENT
$chain$0$?start@CUSBAsio@@UEAAJXZ DD 020521H
	DD	087405H
	DD	imagerel $LN19
	DD	imagerel $LN19+80
	DD	imagerel $unwind$?start@CUSBAsio@@UEAAJXZ
xdata	ENDS
;	COMDAT xdata
xdata	SEGMENT
$unwind$?start@CUSBAsio@@UEAAJXZ DD 020601H
	DD	030025206H
xdata	ENDS
;	COMDAT xdata
xdata	SEGMENT
$unwind$?stop@CUSBAsio@@UEAAJXZ DD 020601H
	DD	030023206H
xdata	ENDS
;	COMDAT xdata
xdata	SEGMENT
$chain$1$?getChannels@CUSBAsio@@UEAAJPEAJ0@Z DD 021H
	DD	imagerel $LN51
	DD	imagerel $LN51+55
	DD	imagerel $unwind$?getChannels@CUSBAsio@@UEAAJPEAJ0@Z
xdata	ENDS
;	COMDAT xdata
xdata	SEGMENT
$chain$0$?getChannels@CUSBAsio@@UEAAJPEAJ0@Z DD 020521H
	DD	0b5405H
	DD	imagerel $LN51
	DD	imagerel $LN51+55
	DD	imagerel $unwind$?getChannels@CUSBAsio@@UEAAJPEAJ0@Z
xdata	ENDS
;	COMDAT xdata
xdata	SEGMENT
$unwind$?getChannels@CUSBAsio@@UEAAJPEAJ0@Z DD 040801H
	DD	070043208H
	DD	030026003H
xdata	ENDS
;	COMDAT xdata
xdata	SEGMENT
$unwind$?getLatencies@CUSBAsio@@UEAAJPEAJ0@Z DD 041719H
	DD	07004d208H
	DD	030026003H
	DD	imagerel __GSHandlerCheck
	DD	060H
xdata	ENDS
;	COMDAT xdata
xdata	SEGMENT
$chain$4$?canSampleRate@CUSBAsio@@UEAAJN@Z DD 021H
	DD	imagerel $LN86
	DD	imagerel $LN86+55
	DD	imagerel $unwind$?canSampleRate@CUSBAsio@@UEAAJN@Z
xdata	ENDS
;	COMDAT xdata
xdata	SEGMENT
$chain$3$?canSampleRate@CUSBAsio@@UEAAJN@Z DD 040021H
	DD	086400H
	DD	073400H
	DD	imagerel $LN86
	DD	imagerel $LN86+55
	DD	imagerel $unwind$?canSampleRate@CUSBAsio@@UEAAJN@Z
xdata	ENDS
;	COMDAT xdata
xdata	SEGMENT
$chain$1$?canSampleRate@CUSBAsio@@UEAAJN@Z DD 040a21H
	DD	07340aH
	DD	086405H
	DD	imagerel $LN86
	DD	imagerel $LN86+55
	DD	imagerel $unwind$?canSampleRate@CUSBAsio@@UEAAJN@Z
xdata	ENDS
;	COMDAT xdata
xdata	SEGMENT
$unwind$?canSampleRate@CUSBAsio@@UEAAJN@Z DD 020601H
	DD	070023206H
xdata	ENDS
;	COMDAT xdata
xdata	SEGMENT
$chain$1$?getSampleRate@CUSBAsio@@UEAAJPEAN@Z DD 021H
	DD	imagerel $LN49
	DD	imagerel $LN49+72
	DD	imagerel $unwind$?getSampleRate@CUSBAsio@@UEAAJPEAN@Z
xdata	ENDS
;	COMDAT xdata
xdata	SEGMENT
$chain$0$?getSampleRate@CUSBAsio@@UEAAJPEAN@Z DD 020521H
	DD	087405H
	DD	imagerel $LN49
	DD	imagerel $LN49+72
	DD	imagerel $unwind$?getSampleRate@CUSBAsio@@UEAAJPEAN@Z
xdata	ENDS
;	COMDAT xdata
xdata	SEGMENT
$unwind$?getSampleRate@CUSBAsio@@UEAAJPEAN@Z DD 040a01H
	DD	09340aH
	DD	06006320aH
xdata	ENDS
;	COMDAT xdata
xdata	SEGMENT
$ip2state$?setSampleRate@CUSBAsio@@UEAAJN@Z DB 06H
	DB	0aeH
	DB	00H
	DB	'=', 06H
	DB	04H
	DB	0c8H
	DB	00H
xdata	ENDS
;	COMDAT xdata
xdata	SEGMENT
$stateUnwindMap$?setSampleRate@CUSBAsio@@UEAAJN@Z DB 04H
	DB	0aH
	DD	imagerel ??1?$unique_any_t@V?$unique_storage@U?$resource_policy@PEAU_RTL_CRITICAL_SECTION@@P6AXPEAU1@@Z$1?LeaveCriticalSection@@YAX0@ZU?$integral_constant@_K$00@wistd@@PEAU1@PEAU1@$0A@$$T@details@wil@@@details@wil@@@wil@@QEAA@XZ
	DB	080H
	DB	032H
	DD	imagerel ??1?$unique_any_t@V?$unique_storage@U?$resource_policy@PEAU_RTL_CRITICAL_SECTION@@P6AXPEAU1@@Z$1?LeaveCriticalSection@@YAX0@ZU?$integral_constant@_K$00@wistd@@PEAU1@PEAU1@$0A@$$T@details@wil@@@details@wil@@@wil@@QEAA@XZ
	DB	090H
xdata	ENDS
;	COMDAT xdata
xdata	SEGMENT
$cppxdata$?setSampleRate@CUSBAsio@@UEAAJN@Z DB 028H
	DD	imagerel $stateUnwindMap$?setSampleRate@CUSBAsio@@UEAAJN@Z
	DD	imagerel $ip2state$?setSampleRate@CUSBAsio@@UEAAJN@Z
xdata	ENDS
;	COMDAT xdata
xdata	SEGMENT
$unwind$?setSampleRate@CUSBAsio@@UEAAJN@Z DD 092619H
	DD	086817H
	DD	018340fH
	DD	012010fH
	DD	060077008H
	DD	05006H
	DD	imagerel __GSHandlerCheck_EH4
	DD	imagerel $cppxdata$?setSampleRate@CUSBAsio@@UEAAJN@Z
	DD	07aH
xdata	ENDS
;	COMDAT xdata
xdata	SEGMENT
$chain$9$?getClockSources@CUSBAsio@@UEAAJPEAUASIOClockSource@@PEAJ@Z DD 021H
	DD	imagerel $LN84
	DD	imagerel $LN84+97
	DD	imagerel $unwind$?getClockSources@CUSBAsio@@UEAAJPEAUASIOClockSource@@PEAJ@Z
xdata	ENDS
;	COMDAT xdata
xdata	SEGMENT
$chain$8$?getClockSources@CUSBAsio@@UEAAJPEAUASIOClockSource@@PEAJ@Z DD 021H
	DD	imagerel $LN84+173
	DD	imagerel $LN84+176
	DD	imagerel $chain$3$?getClockSources@CUSBAsio@@UEAAJPEAUASIOClockSource@@PEAJ@Z
xdata	ENDS
;	COMDAT xdata
xdata	SEGMENT
$chain$7$?getClockSources@CUSBAsio@@UEAAJPEAUASIOClockSource@@PEAJ@Z DD 021H
	DD	imagerel $LN84+176
	DD	imagerel $LN84+202
	DD	imagerel $chain$5$?getClockSources@CUSBAsio@@UEAAJPEAUASIOClockSource@@PEAJ@Z
xdata	ENDS
;	COMDAT xdata
xdata	SEGMENT
$chain$6$?getClockSources@CUSBAsio@@UEAAJPEAUASIOClockSource@@PEAJ@Z DD 020521H
	DD	06c405H
	DD	imagerel $LN84+176
	DD	imagerel $LN84+202
	DD	imagerel $chain$5$?getClockSources@CUSBAsio@@UEAAJPEAUASIOClockSource@@PEAJ@Z
xdata	ENDS
;	COMDAT xdata
xdata	SEGMENT
$chain$5$?getClockSources@CUSBAsio@@UEAAJPEAUASIOClockSource@@PEAJ@Z DD 040f21H
	DD	05d40fH
	DD	075405H
	DD	imagerel $LN84+173
	DD	imagerel $LN84+176
	DD	imagerel $chain$3$?getClockSources@CUSBAsio@@UEAAJPEAUASIOClockSource@@PEAJ@Z
xdata	ENDS
;	COMDAT xdata
xdata	SEGMENT
$chain$3$?getClockSources@CUSBAsio@@UEAAJPEAUASIOClockSource@@PEAJ@Z DD 040021H
	DD	04e400H
	DD	0f3400H
	DD	imagerel $LN84
	DD	imagerel $LN84+97
	DD	imagerel $unwind$?getClockSources@CUSBAsio@@UEAAJPEAUASIOClockSource@@PEAJ@Z
xdata	ENDS
;	COMDAT xdata
xdata	SEGMENT
$chain$1$?getClockSources@CUSBAsio@@UEAAJPEAUASIOClockSource@@PEAJ@Z DD 041421H
	DD	04e414H
	DD	0f3405H
	DD	imagerel $LN84
	DD	imagerel $LN84+97
	DD	imagerel $unwind$?getClockSources@CUSBAsio@@UEAAJPEAUASIOClockSource@@PEAJ@Z
xdata	ENDS
;	COMDAT xdata
xdata	SEGMENT
$unwind$?getClockSources@CUSBAsio@@UEAAJPEAUASIOClockSource@@PEAJ@Z DD 040901H
	DD	0f0057209H
	DD	060027003H
xdata	ENDS
;	COMDAT xdata
xdata	SEGMENT
$ip2state$?setClockSource@CUSBAsio@@UEAAJJ@Z DB 06H
	DB	'U', 04H
	DB	04H
	DB	01cH
	DB	02H
	DB	0baH
	DB	00H
xdata	ENDS
;	COMDAT xdata
xdata	SEGMENT
$stateUnwindMap$?setClockSource@CUSBAsio@@UEAAJJ@Z DB 04H
	DB	0aH
	DD	imagerel ??1?$unique_any_t@V?$unique_storage@U?$resource_policy@PEAU_RTL_CRITICAL_SECTION@@P6AXPEAU1@@Z$1?LeaveCriticalSection@@YAX0@ZU?$integral_constant@_K$00@wistd@@PEAU1@PEAU1@$0A@$$T@details@wil@@@details@wil@@@wil@@QEAA@XZ
	DB	080H
	DB	032H
	DD	imagerel ??1?$unique_any_t@V?$unique_storage@U?$resource_policy@PEAU_RTL_CRITICAL_SECTION@@P6AXPEAU1@@Z$1?LeaveCriticalSection@@YAX0@ZU?$integral_constant@_K$00@wistd@@PEAU1@PEAU1@$0A@$$T@details@wil@@@details@wil@@@wil@@QEAA@XZ
	DB	090H
xdata	ENDS
;	COMDAT xdata
xdata	SEGMENT
$cppxdata$?setClockSource@CUSBAsio@@UEAAJJ@Z DB 028H
	DD	imagerel $stateUnwindMap$?setClockSource@CUSBAsio@@UEAAJJ@Z
	DD	imagerel $ip2state$?setClockSource@CUSBAsio@@UEAAJJ@Z
xdata	ENDS
;	COMDAT xdata
xdata	SEGMENT
$unwind$?setClockSource@CUSBAsio@@UEAAJJ@Z DD 082219H
	DD	0183413H
	DD	0f00cf213H
	DD	07008e00aH
	DD	050066007H
	DD	imagerel __GSHandlerCheck_EH4
	DD	imagerel $cppxdata$?setClockSource@CUSBAsio@@UEAAJJ@Z
	DD	072H
xdata	ENDS
;	COMDAT xdata
xdata	SEGMENT
$unwind$?getChannelInfo@CUSBAsio@@UEAAJPEAUASIOChannelInfo@@@Z DD 060f01H
	DD	09640fH
	DD	08340fH
	DD	0700b320fH
xdata	ENDS
;	COMDAT xdata
xdata	SEGMENT
$ip2state$?createBuffers@CUSBAsio@@UEAAJPEAUASIOBufferInfo@@JJPEAUASIOCallbacks@@@Z DB 0aH
	DB	'M', 0aH
	DB	08H
	DB	'f'
	DB	016H
	DB	0dH, 0cH
	DB	08H
	DB	011H, 04H
	DB	'"'
	DB	'<'
	DB	00H
xdata	ENDS
;	COMDAT xdata
xdata	SEGMENT
$stateUnwindMap$?createBuffers@CUSBAsio@@UEAAJPEAUASIOBufferInfo@@JJPEAUASIOCallbacks@@@Z DB 022H
	DB	0aH
	DD	imagerel ??1?$lambda_call@V<lambda_1>@?1??createBuffers@CUSBAsio@@UEAAJPEAUASIOBufferInfo@@JJPEAUASIOCallbacks@@@Z@@details@wil@@QEAA@XZ
	DB	0b0H
	DB	032H
	DD	imagerel ??1?$unique_any_t@V?$unique_storage@U?$resource_policy@PEAU_RTL_CRITICAL_SECTION@@P6AXPEAU1@@Z$1?LeaveCriticalSection@@YAX0@ZU?$integral_constant@_K$00@wistd@@PEAU1@PEAU1@$0A@$$T@details@wil@@@details@wil@@@wil@@QEAA@XZ
	DB	0f0H
	DB	068H
	DB	03aH
	DD	imagerel ??1?$unique_any_t@V?$unique_storage@U?$resource_policy@PEAU_RTL_CRITICAL_SECTION@@P6AXPEAU1@@Z$1?LeaveCriticalSection@@YAX0@ZU?$integral_constant@_K$00@wistd@@PEAU1@PEAU1@$0A@$$T@details@wil@@@details@wil@@@wil@@QEAA@XZ
	DB	01H
	DB	02H
	DB	0a8H
	DB	0b0H
	DB	0b8H
	DB	0c0H
	DB	0c8H
	DB	0d0H
	DB	06aH
	DD	imagerel ??1?$unique_any_t@V?$unique_storage@U?$resource_policy@PEAU_RTL_CRITICAL_SECTION@@P6AXPEAU1@@Z$1?LeaveCriticalSection@@YAX0@ZU?$integral_constant@_K$00@wistd@@PEAU1@PEAU1@$0A@$$T@details@wil@@@details@wil@@@wil@@QEAA@XZ
	DB	021H
	DB	02H
	DB	021H
	DB	02H
	DB	041H
	DB	02H
	DB	061H
	DB	02H
	DB	081H
	DB	02H
	DB	0a1H
	DB	02H
	DB	0cdH
	DB	02H
	DD	imagerel __std_terminate
xdata	ENDS
;	COMDAT xdata
xdata	SEGMENT
$cppxdata$?createBuffers@CUSBAsio@@UEAAJPEAUASIOBufferInfo@@JJPEAUASIOCallbacks@@@Z DB 028H
	DD	imagerel $stateUnwindMap$?createBuffers@CUSBAsio@@UEAAJPEAUASIOBufferInfo@@JJPEAUASIOCallbacks@@@Z
	DD	imagerel $ip2state$?createBuffers@CUSBAsio@@UEAAJPEAUASIOBufferInfo@@JJPEAUASIOCallbacks@@@Z
xdata	ENDS
;	COMDAT xdata
xdata	SEGMENT
$unwind$?createBuffers@CUSBAsio@@UEAAJPEAUASIOBufferInfo@@JJPEAUASIOCallbacks@@@Z DD 0b2a19H
	DD	030341cH
	DD	026011cH
	DD	0e00ef010H
	DD	0c00ad00cH
	DD	060077008H
	DD	05006H
	DD	imagerel __GSHandlerCheck_EH4
	DD	imagerel $cppxdata$?createBuffers@CUSBAsio@@UEAAJPEAUASIOBufferInfo@@JJPEAUASIOCallbacks@@@Z
	DD	0122H
xdata	ENDS
;	COMDAT xdata
xdata	SEGMENT
$ip2state$?disposeBuffers@CUSBAsio@@UEAAJXZ DB 02H
	DB	'q', 02H
	DB	04H
xdata	ENDS
;	COMDAT xdata
xdata	SEGMENT
$stateUnwindMap$?disposeBuffers@CUSBAsio@@UEAAJXZ DB 04H
	DB	0aH
	DD	imagerel ??1?$unique_any_t@V?$unique_storage@U?$resource_policy@PEAU_RTL_CRITICAL_SECTION@@P6AXPEAU1@@Z$1?LeaveCriticalSection@@YAX0@ZU?$integral_constant@_K$00@wistd@@PEAU1@PEAU1@$0A@$$T@details@wil@@@details@wil@@@wil@@QEAA@XZ
	DB	040H
	DB	032H
	DD	imagerel ??1?$unique_any_t@V?$unique_storage@U?$resource_policy@PEAU_RTL_CRITICAL_SECTION@@P6AXPEAU1@@Z$1?LeaveCriticalSection@@YAX0@ZU?$integral_constant@_K$00@wistd@@PEAU1@PEAU1@$0A@$$T@details@wil@@@details@wil@@@wil@@QEAA@XZ
	DB	050H
xdata	ENDS
;	COMDAT xdata
xdata	SEGMENT
$cppxdata$?disposeBuffers@CUSBAsio@@UEAAJXZ DB 028H
	DD	imagerel $stateUnwindMap$?disposeBuffers@CUSBAsio@@UEAAJXZ
	DD	imagerel $ip2state$?disposeBuffers@CUSBAsio@@UEAAJXZ
xdata	ENDS
;	COMDAT xdata
xdata	SEGMENT
$unwind$?disposeBuffers@CUSBAsio@@UEAAJXZ DD 081211H
	DD	0c5412H
	DD	0b3412H
	DD	0e00e5212H
	DD	0600b700cH
	DD	imagerel __CxxFrameHandler4
	DD	imagerel $cppxdata$?disposeBuffers@CUSBAsio@@UEAAJXZ
xdata	ENDS
;	COMDAT xdata
xdata	SEGMENT
$unwind$?controlPanel@CUSBAsio@@UEAAJXZ DD 052619H
	DD	0623415H
	DD	0600115H
	DD	05006H
	DD	imagerel __GSHandlerCheck
	DD	02f0H
xdata	ENDS
;	COMDAT xdata
xdata	SEGMENT
$chain$1$?future@CUSBAsio@@UEAAJJPEAX@Z DD 021H
	DD	imagerel $LN131
	DD	imagerel $LN131+80
	DD	imagerel $unwind$?future@CUSBAsio@@UEAAJJPEAX@Z
xdata	ENDS
;	COMDAT xdata
xdata	SEGMENT
$chain$0$?future@CUSBAsio@@UEAAJJPEAX@Z DD 020521H
	DD	076405H
	DD	imagerel $LN131
	DD	imagerel $LN131+80
	DD	imagerel $unwind$?future@CUSBAsio@@UEAAJJPEAX@Z
xdata	ENDS
;	COMDAT xdata
xdata	SEGMENT
$unwind$?future@CUSBAsio@@UEAAJJPEAX@Z DD 040a01H
	DD	09340aH
	DD	07006320aH
xdata	ENDS
;	COMDAT xdata
xdata	SEGMENT
$chain$1$?BufferSwitch@CUSBAsio@@QEAAXXZ DD 021H
	DD	imagerel $LN14
	DD	imagerel $LN14+154
	DD	imagerel $unwind$?BufferSwitch@CUSBAsio@@QEAAXXZ
xdata	ENDS
;	COMDAT xdata
xdata	SEGMENT
$chain$0$?BufferSwitch@CUSBAsio@@QEAAXXZ DD 020521H
	DD	063405H
	DD	imagerel $LN14
	DD	imagerel $LN14+154
	DD	imagerel $unwind$?BufferSwitch@CUSBAsio@@QEAAXXZ
xdata	ENDS
;	COMDAT xdata
xdata	SEGMENT
$unwind$?BufferSwitch@CUSBAsio@@QEAAXXZ DD 020601H
	DD	070023206H
xdata	ENDS
;	COMDAT xdata
xdata	SEGMENT
$unwind$?BufferSwitchX@CUSBAsio@@AEAAXXZ DD 040a01H
	DD	06340aH
	DD	07006320aH
xdata	ENDS
;	COMDAT xdata
xdata	SEGMENT
$chain$1$?outputReady@CUSBAsio@@UEAAJXZ DD 021H
	DD	imagerel $LN50
	DD	imagerel $LN50+18
	DD	imagerel $unwind$?outputReady@CUSBAsio@@UEAAJXZ
xdata	ENDS
;	COMDAT xdata
xdata	SEGMENT
$chain$0$?outputReady@CUSBAsio@@UEAAJXZ DD 020521H
	DD	077405H
	DD	imagerel $LN50
	DD	imagerel $LN50+18
	DD	imagerel $unwind$?outputReady@CUSBAsio@@UEAAJXZ
xdata	ENDS
;	COMDAT xdata
xdata	SEGMENT
$unwind$?outputReady@CUSBAsio@@UEAAJXZ DD 020601H
	DD	030023206H
xdata	ENDS
;	COMDAT xdata
xdata	SEGMENT
$unwind$?ApplySettings@CUSBAsio@@AEAA_NXZ DD 072519H
	DD	01c7417H
	DD	01b3417H
	DD	0180117H
	DD	0500bH
	DD	imagerel __GSHandlerCheck
	DD	0b0H
xdata	ENDS
;	COMDAT xdata
xdata	SEGMENT
$unwind$?ExecuteControlPanel@CUSBAsio@@AEAA_NXZ DD 052619H
	DD	0623415H
	DD	0600115H
	DD	05006H
	DD	imagerel __GSHandlerCheck
	DD	02f0H
xdata	ENDS
;	COMDAT xdata
xdata	SEGMENT
$unwind$?GetDesiredPath@CUSBAsio@@AEAA_NXZ DD 021519H
	DD	030029206H
	DD	imagerel __GSHandlerCheck
	DD	040H
xdata	ENDS
;	COMDAT xdata
xdata	SEGMENT
$ip2state$?ObtainDeviceParameter@CUSBAsio@@AEAA_NXZ DB 04H
	DB	'u', 07H
	DB	02H
	DB	0d1H, 0bH
	DB	00H
xdata	ENDS
;	COMDAT xdata
xdata	SEGMENT
$stateUnwindMap$?ObtainDeviceParameter@CUSBAsio@@AEAA_NXZ DB 02H
	DB	0aH
	DD	imagerel ??1?$unique_any_t@V?$unique_storage@U?$resource_policy@PEAU_RTL_CRITICAL_SECTION@@P6AXPEAU1@@Z$1?LeaveCriticalSection@@YAX0@ZU?$integral_constant@_K$00@wistd@@PEAU1@PEAU1@$0A@$$T@details@wil@@@details@wil@@@wil@@QEAA@XZ
	DB	080H
xdata	ENDS
;	COMDAT xdata
xdata	SEGMENT
$cppxdata$?ObtainDeviceParameter@CUSBAsio@@AEAA_NXZ DB 028H
	DD	imagerel $stateUnwindMap$?ObtainDeviceParameter@CUSBAsio@@AEAA_NXZ
	DD	imagerel $ip2state$?ObtainDeviceParameter@CUSBAsio@@AEAA_NXZ
xdata	ENDS
;	COMDAT xdata
xdata	SEGMENT
$unwind$?ObtainDeviceParameter@CUSBAsio@@AEAA_NXZ DD 0d3219H
	DD	0297424H
	DD	0286424H
	DD	0273424H
	DD	0200124H
	DD	0e016f018H
	DD	0c012d014H
	DD	05010H
	DD	imagerel __GSHandlerCheck_EH4
	DD	imagerel $cppxdata$?ObtainDeviceParameter@CUSBAsio@@AEAA_NXZ
	DD	0f2H
xdata	ENDS
;	COMDAT xdata
xdata	SEGMENT
$ip2state$?RequestClockInfoChange@CUSBAsio@@AEAA_NXZ DB 02H
	DB	0c1H, 03H
	DB	02H
xdata	ENDS
;	COMDAT xdata
xdata	SEGMENT
$stateUnwindMap$?RequestClockInfoChange@CUSBAsio@@AEAA_NXZ DB 02H
	DB	0aH
	DD	imagerel ??1?$unique_any_t@V?$unique_storage@U?$resource_policy@PEAU_RTL_CRITICAL_SECTION@@P6AXPEAU1@@Z$1?LeaveCriticalSection@@YAX0@ZU?$integral_constant@_K$00@wistd@@PEAU1@PEAU1@$0A@$$T@details@wil@@@details@wil@@@wil@@QEAA@XZ
	DB	040H
xdata	ENDS
;	COMDAT xdata
xdata	SEGMENT
$cppxdata$?RequestClockInfoChange@CUSBAsio@@AEAA_NXZ DB 028H
	DD	imagerel $stateUnwindMap$?RequestClockInfoChange@CUSBAsio@@AEAA_NXZ
	DD	imagerel $ip2state$?RequestClockInfoChange@CUSBAsio@@AEAA_NXZ
xdata	ENDS
;	COMDAT xdata
xdata	SEGMENT
$unwind$?RequestClockInfoChange@CUSBAsio@@AEAA_NXZ DD 081411H
	DD	0b6414H
	DD	0a5414H
	DD	093414H
	DD	070105214H
	DD	imagerel __CxxFrameHandler4
	DD	imagerel $cppxdata$?RequestClockInfoChange@CUSBAsio@@AEAA_NXZ
xdata	ENDS
;	COMDAT xdata
xdata	SEGMENT
$ip2state$?AsioResetThread@CUSBAsio@@CAIPEAX@Z DB 08H
	DB	'!', 02H
	DB	02H
	DB	09aH
	DB	00H
	DB	0c2H
	DB	02H
	DB	0a0H
	DB	00H
xdata	ENDS
;	COMDAT xdata
xdata	SEGMENT
$stateUnwindMap$?AsioResetThread@CUSBAsio@@CAIPEAX@Z DB 02H
	DB	0aH
	DD	imagerel ??1?$unique_any_t@V?$unique_storage@U?$resource_policy@PEAU_RTL_CRITICAL_SECTION@@P6AXPEAU1@@Z$1?LeaveCriticalSection@@YAX0@ZU?$integral_constant@_K$00@wistd@@PEAU1@PEAU1@$0A@$$T@details@wil@@@details@wil@@@wil@@QEAA@XZ
	DB	040H
xdata	ENDS
;	COMDAT xdata
xdata	SEGMENT
$cppxdata$?AsioResetThread@CUSBAsio@@CAIPEAX@Z DB 028H
	DD	imagerel $stateUnwindMap$?AsioResetThread@CUSBAsio@@CAIPEAX@Z
	DD	imagerel $ip2state$?AsioResetThread@CUSBAsio@@CAIPEAX@Z
xdata	ENDS
;	COMDAT xdata
xdata	SEGMENT
$unwind$?AsioResetThread@CUSBAsio@@CAIPEAX@Z DD 082319H
	DD	046814H
	DD	0e640fH
	DD	0d340fH
	DD	0700b920fH
	DD	imagerel __GSHandlerCheck_EH4
	DD	imagerel $cppxdata$?AsioResetThread@CUSBAsio@@CAIPEAX@Z
	DD	03aH
xdata	ENDS
;	COMDAT xdata
xdata	SEGMENT
$unwind$?ThreadStart@CUSBAsio@@AEAAXXZ DD 020601H
	DD	030025206H
xdata	ENDS
;	COMDAT xdata
xdata	SEGMENT
$unwind$?ThreadStop@CUSBAsio@@AEAAXXZ DD 020601H
	DD	030023206H
xdata	ENDS
;	COMDAT xdata
xdata	SEGMENT
$chain$5$?WorkerThread@CUSBAsio@@CAIPEAX@Z DD 0c3c21H
	DD	010b83cH
	DD	011a830H
	DD	0129827H
	DD	013881eH
	DD	0147815H
	DD	0156808H
	DD	imagerel $LN229
	DD	imagerel $LN229+335
	DD	imagerel $unwind$?WorkerThread@CUSBAsio@@CAIPEAX@Z
xdata	ENDS
;	COMDAT xdata
xdata	SEGMENT
$unwind$?WorkerThread@CUSBAsio@@CAIPEAX@Z DD 0d3219H
	DD	0357424H
	DD	0346424H
	DD	0333424H
	DD	02c0124H
	DD	0e016f018H
	DD	0c012d014H
	DD	05010H
	DD	imagerel __GSHandlerCheck
	DD	0f0H
xdata	ENDS
;	COMDAT xdata
xdata	SEGMENT
$unwind$??$WriteResultString@PEB_W@details@wil@@YAPEAEPEAE0PEB_WPEAPEB_W@Z DD 060f01H
	DD	07640fH
	DD	06340fH
	DD	0700b320fH
xdata	ENDS
;	COMDAT xdata
xdata	SEGMENT
$unwind$??$WriteResultString@PEBD@details@wil@@YAPEAEPEAE0PEBDPEAPEBD@Z DD 060f01H
	DD	07640fH
	DD	06340fH
	DD	0700b320fH
xdata	ENDS
;	COMDAT xdata
xdata	SEGMENT
$ip2state$??1?$lambda_call@V<lambda_1>@?1??createBuffers@CUSBAsio@@UEAAJPEAUASIOBufferInfo@@JJPEAUASIOCallbacks@@@Z@@details@wil@@QEAA@XZ DB 02H
	DB	'L'
	DB	02H
xdata	ENDS
;	COMDAT xdata
xdata	SEGMENT
$stateUnwindMap$??1?$lambda_call@V<lambda_1>@?1??createBuffers@CUSBAsio@@UEAAJPEAUASIOBufferInfo@@JJPEAUASIOCallbacks@@@Z@@details@wil@@QEAA@XZ DB 02H
	DB	0eH
	DD	imagerel __std_terminate
xdata	ENDS
;	COMDAT xdata
xdata	SEGMENT
$cppxdata$??1?$lambda_call@V<lambda_1>@?1??createBuffers@CUSBAsio@@UEAAJPEAUASIOBufferInfo@@JJPEAUASIOCallbacks@@@Z@@details@wil@@QEAA@XZ DB 068H
	DD	imagerel $stateUnwindMap$??1?$lambda_call@V<lambda_1>@?1??createBuffers@CUSBAsio@@UEAAJPEAUASIOBufferInfo@@JJPEAUASIOCallbacks@@@Z@@details@wil@@QEAA@XZ
	DD	imagerel $ip2state$??1?$lambda_call@V<lambda_1>@?1??createBuffers@CUSBAsio@@UEAAJPEAUASIOBufferInfo@@JJPEAUASIOCallbacks@@@Z@@details@wil@@QEAA@XZ
xdata	ENDS
;	COMDAT xdata
xdata	SEGMENT
$unwind$??1?$lambda_call@V<lambda_1>@?1??createBuffers@CUSBAsio@@UEAAJPEAUASIOBufferInfo@@JJPEAUASIOCallbacks@@@Z@@details@wil@@QEAA@XZ DD 010419H
	DD	04204H
	DD	imagerel __CxxFrameHandler4
	DD	imagerel $cppxdata$??1?$lambda_call@V<lambda_1>@?1??createBuffers@CUSBAsio@@UEAAJPEAUASIOBufferInfo@@JJPEAUASIOCallbacks@@@Z@@details@wil@@QEAA@XZ
xdata	ENDS
;	COMDAT xdata
xdata	SEGMENT
$ip2state$?reset@?$lambda_call@V<lambda_1>@?1??createBuffers@CUSBAsio@@UEAAJPEAUASIOBufferInfo@@JJPEAUASIOCallbacks@@@Z@@details@wil@@QEAAXXZ DB 02H
	DB	'L'
	DB	00H
xdata	ENDS
;	COMDAT xdata
xdata	SEGMENT
$cppxdata$?reset@?$lambda_call@V<lambda_1>@?1??createBuffers@CUSBAsio@@UEAAJPEAUASIOBufferInfo@@JJPEAUASIOCallbacks@@@Z@@details@wil@@QEAAXXZ DB 060H
	DD	imagerel $ip2state$?reset@?$lambda_call@V<lambda_1>@?1??createBuffers@CUSBAsio@@UEAAJPEAUASIOBufferInfo@@JJPEAUASIOCallbacks@@@Z@@details@wil@@QEAAXXZ
xdata	ENDS
;	COMDAT xdata
xdata	SEGMENT
$unwind$?reset@?$lambda_call@V<lambda_1>@?1??createBuffers@CUSBAsio@@UEAAJPEAUASIOBufferInfo@@JJPEAUASIOCallbacks@@@Z@@details@wil@@QEAAXXZ DD 010419H
	DD	04204H
	DD	imagerel __CxxFrameHandler4
	DD	imagerel $cppxdata$?reset@?$lambda_call@V<lambda_1>@?1??createBuffers@CUSBAsio@@UEAAJPEAUASIOBufferInfo@@JJPEAUASIOCallbacks@@@Z@@details@wil@@QEAAXXZ
; Function compile flags: /Ogtpy
; File G:\Github\microsoft\low-latency-audio\src\uac2-asio\USBAsio.cpp
;	COMDAT ?UnregisterAsioDriver@@YAJXZ
_TEXT	SEGMENT
$T1 = 32
message$2 = 48
__$ArrayPad$ = 176
?UnregisterAsioDriver@@YAJXZ PROC			; UnregisterAsioDriver, COMDAT

; 140  : {

$LN7:
	push	rbx
	sub	rsp, 192				; 000000c0H
	mov	rax, QWORD PTR __security_cookie
	xor	rax, rsp
	mov	QWORD PTR __$ArrayPad$[rsp], rax

; 141  :     HRESULT result = UnregisterAsioDriver(IID_ASIO_DRIVER, ASIODRV_NAME, DRIVER_NAME);

	movups	xmm0, XMMWORD PTR ?IID_ASIO_DRIVER@@3U_GUID@@A
	lea	rcx, QWORD PTR $T1[rsp]
	movaps	XMMWORD PTR $T1[rsp], xmm0
	call	?UnregisterAsioDriver@@YAJU_GUID@@PEBD1@Z ; UnregisterAsioDriver
	mov	ebx, eax

; 142  : 
; 143  :     if (!SUCCEEDED(result))

	test	eax, eax
	jns	SHORT $LN2@Unregister

; 144  :     {
; 145  :         TCHAR message[ERROR_MESSAGE_LENGTH] = {0};
; 146  :         _stprintf_s(message, ERROR_MESSAGE_LENGTH, TEXT("Unregister Server failed ! (%d)"), result);

	xorps	xmm0, xmm0
	lea	r8, OFFSET FLAT:??_C@_0CA@OPFFDHMA@Unregister?5Server?5failed?5?$CB?5?$CI?$CFd?$CJ@
	mov	r9d, eax
	lea	rcx, QWORD PTR message$2[rsp]
	mov	edx, 128				; 00000080H
	movups	XMMWORD PTR message$2[rsp], xmm0
	movups	XMMWORD PTR message$2[rsp+16], xmm0
	movups	XMMWORD PTR message$2[rsp+32], xmm0
	movups	XMMWORD PTR message$2[rsp+48], xmm0
	movups	XMMWORD PTR message$2[rsp+64], xmm0
	movups	XMMWORD PTR message$2[rsp+80], xmm0
	movups	XMMWORD PTR message$2[rsp+96], xmm0
	movups	XMMWORD PTR message$2[rsp+112], xmm0
	call	sprintf_s

; 147  :         MessageBox(nullptr, message, DRIVER_NAME, MB_OK);

	xor	r9d, r9d
	lea	r8, OFFSET FLAT:??_C@_08JKCDEOBL@USB?5ASIO@
	lea	rdx, QWORD PTR message$2[rsp]
	xor	ecx, ecx
	call	QWORD PTR __imp_MessageBoxA

; 148  :     }
; 149  : 
; 150  :     return result;

	mov	eax, ebx
$LN2@Unregister:

; 151  : }

	mov	rcx, QWORD PTR __$ArrayPad$[rsp]
	xor	rcx, rsp
	call	__security_check_cookie
	add	rsp, 192				; 000000c0H
	pop	rbx
	ret	0
?UnregisterAsioDriver@@YAJXZ ENDP			; UnregisterAsioDriver
_TEXT	ENDS
; Function compile flags: /Ogtpy
; File G:\Github\microsoft\low-latency-audio\src\uac2-asio\USBAsio.cpp
;	COMDAT ?RegisterAsioDriver@@YAJXZ
_TEXT	SEGMENT
$T1 = 48
message$2 = 64
__$ArrayPad$ = 192
?RegisterAsioDriver@@YAJXZ PROC				; RegisterAsioDriver, COMDAT

; 126  : {

$LN7:
	push	rbx
	sub	rsp, 208				; 000000d0H
	mov	rax, QWORD PTR __security_cookie
	xor	rax, rsp
	mov	QWORD PTR __$ArrayPad$[rsp], rax

; 127  :     HRESULT result = RegisterAsioDriver(IID_ASIO_DRIVER, ASIODRV_NAME, DRIVER_NAME, DRIVER_NAME, TEXT("Apartment"));

	movups	xmm0, XMMWORD PTR ?IID_ASIO_DRIVER@@3U_GUID@@A
	lea	rcx, QWORD PTR $T1[rsp]
	movaps	XMMWORD PTR $T1[rsp], xmm0
	call	?RegisterAsioDriver@@YAJU_GUID@@PEBD111@Z ; RegisterAsioDriver
	mov	ebx, eax

; 128  : 
; 129  :     if (!SUCCEEDED(result))

	test	eax, eax
	jns	SHORT $LN2@RegisterAs

; 130  :     {
; 131  :         TCHAR message[ERROR_MESSAGE_LENGTH] = {0};
; 132  :         _stprintf_s(message, ERROR_MESSAGE_LENGTH, TEXT("Register Server failed ! (%d)"), result);

	xorps	xmm0, xmm0
	lea	r8, OFFSET FLAT:??_C@_0BO@KGBEPONM@Register?5Server?5failed?5?$CB?5?$CI?$CFd?$CJ@
	mov	r9d, eax
	lea	rcx, QWORD PTR message$2[rsp]
	mov	edx, 128				; 00000080H
	movups	XMMWORD PTR message$2[rsp], xmm0
	movups	XMMWORD PTR message$2[rsp+16], xmm0
	movups	XMMWORD PTR message$2[rsp+32], xmm0
	movups	XMMWORD PTR message$2[rsp+48], xmm0
	movups	XMMWORD PTR message$2[rsp+64], xmm0
	movups	XMMWORD PTR message$2[rsp+80], xmm0
	movups	XMMWORD PTR message$2[rsp+96], xmm0
	movups	XMMWORD PTR message$2[rsp+112], xmm0
	call	sprintf_s

; 133  :         MessageBox(nullptr, message, DRIVER_NAME, MB_OK);

	xor	r9d, r9d
	lea	r8, OFFSET FLAT:??_C@_08JKCDEOBL@USB?5ASIO@
	lea	rdx, QWORD PTR message$2[rsp]
	xor	ecx, ecx
	call	QWORD PTR __imp_MessageBoxA

; 134  :     }
; 135  : 
; 136  :     return result;

	mov	eax, ebx
$LN2@RegisterAs:

; 137  : }

	mov	rcx, QWORD PTR __$ArrayPad$[rsp]
	xor	rcx, rsp
	call	__security_check_cookie
	add	rsp, 208				; 000000d0H
	pop	rbx
	ret	0
?RegisterAsioDriver@@YAJXZ ENDP				; RegisterAsioDriver
_TEXT	ENDS
; Function compile flags: /Ogtpy
; File C:\Program Files (x86)\Windows Kits\10\Include\10.0.26100.0\ucrt\corecrt_memcpy_s.h
;	COMDAT memcpy_s
_TEXT	SEGMENT
_Destination$ = 48
_DestinationSize$ = 56
_Source$ = 64
_SourceSize$ = 72
memcpy_s PROC						; COMDAT

; 45   :     {

	mov	QWORD PTR [rsp+8], rbx
	mov	QWORD PTR [rsp+16], rsi
	push	rdi
	sub	rsp, 32					; 00000020H
	mov	rbx, r9
	mov	rsi, r8
	mov	rdi, rdx

; 46   :         if (_SourceSize == 0)

	test	r9, r9
	je	SHORT $LN16@memcpy_s

; 47   :         {
; 48   :             return 0;
; 49   :         }
; 50   : 
; 51   :         _CRT_MEMCPY_S_VALIDATE_RETURN_ERRCODE(_Destination != NULL, EINVAL);

	test	rcx, rcx
	jne	SHORT $LN3@memcpy_s
$LN15@memcpy_s:

; 63   :         return 0;
; 64   :     }

	call	_errno
	mov	DWORD PTR [rax], 22
	call	_invalid_parameter_noinfo
$LN7@memcpy_s:
	mov	eax, 22
	mov	rbx, QWORD PTR [rsp+48]
	mov	rsi, QWORD PTR [rsp+56]
	add	rsp, 32					; 00000020H
	pop	rdi
	ret	0
$LN3@memcpy_s:

; 52   :         if (_Source == NULL || _DestinationSize < _SourceSize)

	test	rsi, rsi
	je	SHORT $LN5@memcpy_s
	cmp	rdi, rbx
	jb	SHORT $LN5@memcpy_s

; 58   : 
; 59   :             // Unreachable, but required to suppress /analyze warnings:
; 60   :             return EINVAL;
; 61   :         }
; 62   :         memcpy(_Destination, _Source, _SourceSize);

	mov	r8, rbx
	mov	rdx, rsi
	call	memcpy
$LN16@memcpy_s:

; 63   :         return 0;
; 64   :     }

	xor	eax, eax
	mov	rbx, QWORD PTR [rsp+48]
	mov	rsi, QWORD PTR [rsp+56]
	add	rsp, 32					; 00000020H
	pop	rdi
	ret	0
$LN5@memcpy_s:

; 53   :         {
; 54   :             memset(_Destination, 0, _DestinationSize);

	mov	r8, rdi
	xor	edx, edx
	call	memset

; 55   : 
; 56   :             _CRT_MEMCPY_S_VALIDATE_RETURN_ERRCODE(_Source != NULL,                 EINVAL);

	test	rsi, rsi
	je	SHORT $LN15@memcpy_s

; 57   :             _CRT_MEMCPY_S_VALIDATE_RETURN_ERRCODE(_DestinationSize >= _SourceSize, ERANGE);

	cmp	rdi, rbx
	jae	SHORT $LN7@memcpy_s
	call	_errno
	mov	DWORD PTR [rax], 34			; 00000022H
	call	_invalid_parameter_noinfo

; 63   :         return 0;
; 64   :     }

	mov	rbx, QWORD PTR [rsp+48]
	mov	eax, 34					; 00000022H
	mov	rsi, QWORD PTR [rsp+56]
	add	rsp, 32					; 00000020H
	pop	rdi
	ret	0
memcpy_s ENDP
_TEXT	ENDS
; Function compile flags: /Ogtpy
; File C:\Program Files (x86)\Windows Kits\10\Include\10.0.26100.0\ucrt\corecrt_wstdio.h
;	COMDAT _vsnwprintf_l
_TEXT	SEGMENT
_Buffer$ = 64
_BufferCount$ = 72
_Format$ = 80
_Locale$dead$ = 88
_ArgList$ = 96
_vsnwprintf_l PROC					; COMDAT

; 1061 :     {

$LN4:
	mov	QWORD PTR [rsp+8], rbx
	mov	QWORD PTR [rsp+16], rsi
	push	rdi
	sub	rsp, 48					; 00000030H
	mov	rbx, r8
	mov	rdi, rdx
	mov	rsi, rcx

; 1062 :         int const _Result = __stdio_common_vswprintf(

	call	__local_stdio_printf_options
	mov	r9, rbx
	mov	r8, rdi
	mov	rdx, rsi
	mov	rcx, QWORD PTR [rax]
	mov	rax, QWORD PTR _ArgList$[rsp]
	or	rcx, 1
	mov	QWORD PTR [rsp+40], rax
	mov	QWORD PTR [rsp+32], 0
	call	__stdio_common_vswprintf

; 1063 :             _CRT_INTERNAL_LOCAL_PRINTF_OPTIONS | _CRT_INTERNAL_PRINTF_LEGACY_VSPRINTF_NULL_TERMINATION,
; 1064 :             _Buffer, _BufferCount, _Format, _Locale, _ArgList);
; 1065 : 
; 1066 :         return _Result < 0 ? -1 : _Result;
; 1067 :     }

	mov	rbx, QWORD PTR [rsp+64]
	test	eax, eax
	mov	rsi, QWORD PTR [rsp+72]
	mov	ecx, -1
	cmovs	eax, ecx
	add	rsp, 48					; 00000030H
	pop	rdi
	ret	0
_vsnwprintf_l ENDP
_TEXT	ENDS
; Function compile flags: /Ogtpy
; File C:\Program Files (x86)\Windows Kits\10\Include\10.0.26100.0\ucrt\corecrt_wstdio.h
;	COMDAT _vsnwprintf
_TEXT	SEGMENT
_Buffer$ = 64
_BufferCount$ = 72
_Format$ = 80
_ArgList$ = 88
_vsnwprintf PROC					; COMDAT

; 1129 :     {

$LN6:
	mov	QWORD PTR [rsp+8], rbx
	mov	QWORD PTR [rsp+16], rbp
	mov	QWORD PTR [rsp+24], rsi
	push	rdi
	sub	rsp, 48					; 00000030H
	mov	rbx, r9
	mov	rdi, r8
	mov	rsi, rdx
	mov	rbp, rcx

; 1062 :         int const _Result = __stdio_common_vswprintf(

	call	__local_stdio_printf_options
	mov	QWORD PTR [rsp+40], rbx
	mov	r9, rdi
	mov	r8, rsi
	mov	QWORD PTR [rsp+32], 0
	mov	rdx, rbp
	mov	rcx, QWORD PTR [rax]
	or	rcx, 1
	call	__stdio_common_vswprintf

; 1130 :         return _vsnwprintf_l(_Buffer, _BufferCount, _Format, NULL, _ArgList);
; 1131 :     }

	mov	rbx, QWORD PTR [rsp+64]

; 1066 :         return _Result < 0 ? -1 : _Result;

	test	eax, eax

; 1130 :         return _vsnwprintf_l(_Buffer, _BufferCount, _Format, NULL, _ArgList);
; 1131 :     }

	mov	rbp, QWORD PTR [rsp+72]

; 1066 :         return _Result < 0 ? -1 : _Result;

	mov	ecx, -1

; 1130 :         return _vsnwprintf_l(_Buffer, _BufferCount, _Format, NULL, _ArgList);
; 1131 :     }

	mov	rsi, QWORD PTR [rsp+80]

; 1066 :         return _Result < 0 ? -1 : _Result;

	cmovs	eax, ecx

; 1130 :         return _vsnwprintf_l(_Buffer, _BufferCount, _Format, NULL, _ArgList);
; 1131 :     }

	add	rsp, 48					; 00000030H
	pop	rdi
	ret	0
_vsnwprintf ENDP
_TEXT	ENDS
; Function compile flags: /Ogtpy
; File C:\Program Files (x86)\Windows Kits\10\Include\10.0.26100.0\shared\strsafe.h
;	COMDAT ?StringCchCopyA@@YAJPEAD_KPEBD@Z
_TEXT	SEGMENT
pszDest$ = 8
cchDest$ = 16
pszSrc$ = 24
?StringCchCopyA@@YAJPEAD_KPEBD@Z PROC			; StringCchCopyA, COMDAT

; 9669 :     if ((cchDest == 0) || (cchDest > cchMax))

	lea	rax, QWORD PTR [rdx-1]
	mov	r9d, 2147483646				; 7ffffffeH
	cmp	rax, r9
	ja	SHORT $LN8@StringCchC

; 543  :     HRESULT hr;
; 544  : 
; 545  :     hr = StringValidateDestA(pszDest, cchDest, STRSAFE_MAX_CCH);
; 546  : 
; 547  :     if (SUCCEEDED(hr))
; 548  :     {
; 549  :         hr = StringCopyWorkerA(pszDest,

	sub	r9, rdx
	sub	r8, rcx
$LL11@StringCchC:

; 9916 :     while (cchDest && cchToCopy && (*pszSrc != '\0'))

	lea	rax, QWORD PTR [r9+rdx]
	test	rax, rax
	je	SHORT $LN12@StringCchC
	movzx	eax, BYTE PTR [r8+rcx]
	test	al, al
	je	SHORT $LN12@StringCchC

; 9917 :     {
; 9918 :         *pszDest++ = *pszSrc++;

	mov	BYTE PTR [rcx], al
	inc	rcx

; 9919 :         cchDest--;

	sub	rdx, 1
	jne	SHORT $LL11@StringCchC
$LN12@StringCchC:

; 9920 :         cchToCopy--;
; 9921 : 
; 9922 :         cchNewDestLength++;
; 9923 :     }
; 9924 : 
; 9925 :     if (cchDest == 0)
; 9926 :     {
; 9927 :         // we are going to truncate pszDest
; 9928 :         pszDest--;
; 9929 :         cchNewDestLength--;
; 9930 : 
; 9931 :         hr = STRSAFE_E_INSUFFICIENT_BUFFER;
; 9932 :     }
; 9933 : 
; 9934 :     *pszDest = '\0';

	test	rdx, rdx
	lea	rax, QWORD PTR [rcx-1]
	cmovne	rax, rcx
	xor	ecx, ecx
	test	rdx, rdx
	mov	BYTE PTR [rax], 0
	mov	eax, -2147024774			; ffffffff8007007aH
	cmovne	eax, ecx

; 558  :     }
; 559  : 
; 560  :     return hr;
; 561  : }

	ret	0
$LN8@StringCchC:

; 550  :                 cchDest,
; 551  :                 NULL,
; 552  :                 pszSrc,
; 553  :                 STRSAFE_MAX_LENGTH);
; 554  :     }
; 555  :     else if (cchDest > 0)

	mov	eax, -2147024809			; ffffffff80070057H
	test	rdx, rdx
	je	SHORT $LN4@StringCchC

; 556  :     {
; 557  :         *pszDest = '\0';

	mov	BYTE PTR [rcx], 0
$LN4@StringCchC:

; 558  :     }
; 559  : 
; 560  :     return hr;
; 561  : }

	ret	0
?StringCchCopyA@@YAJPEAD_KPEBD@Z ENDP			; StringCchCopyA
_TEXT	ENDS
; Function compile flags: /Ogtpy
; File C:\Program Files (x86)\Windows Kits\10\Include\10.0.26100.0\shared\strsafe.h
; File C:\Program Files (x86)\Windows Kits\10\Include\10.0.26100.0\ucrt\corecrt_wstdio.h
; File C:\Program Files (x86)\Windows Kits\10\Include\10.0.26100.0\shared\strsafe.h
;	COMDAT ?StringCchVPrintfW@@YAJPEA_W_KPEB_WPEAD@Z
_TEXT	SEGMENT
pszDest$ = 64
cchDest$ = 72
pszFormat$ = 80
argList$ = 88
?StringCchVPrintfW@@YAJPEA_W_KPEB_WPEAD@Z PROC		; StringCchVPrintfW, COMDAT

; 4559 : {

$LN30:
	mov	QWORD PTR [rsp+16], rbx
	mov	QWORD PTR [rsp+24], rbp
	mov	QWORD PTR [rsp+32], rsi
	push	r14
	sub	rsp, 48					; 00000030H

; 9723 :     if ((cchDest == 0) || (cchDest > cchMax))

	lea	rax, QWORD PTR [rdx-1]

; 4559 : {

	mov	rbp, r9
	mov	r14, r8
	mov	rsi, rcx

; 9723 :     if ((cchDest == 0) || (cchDest > cchMax))

	cmp	rax, 2147483646				; 7ffffffeH
	jbe	SHORT $LN7@StringCchV

; 4560 :     HRESULT hr;
; 4561 : 
; 4562 :     hr = StringValidateDestW(pszDest, cchDest, STRSAFE_MAX_CCH);
; 4563 : 
; 4564 :     if (SUCCEEDED(hr))
; 4565 :     {
; 4566 :         hr = StringVPrintfWorkerW(pszDest,
; 4567 :                 cchDest,
; 4568 :                 NULL,
; 4569 :                 pszFormat,
; 4570 :                 argList);
; 4571 :     }
; 4572 :     else if (cchDest > 0)

	mov	eax, -2147024809			; ffffffff80070057H
	test	rdx, rdx
	je	SHORT $LN4@StringCchV

; 4573 :     {
; 4574 :         *pszDest = L'\0';

	xor	ebx, ebx
	mov	WORD PTR [rcx], bx
	jmp	SHORT $LN4@StringCchV
$LN7@StringCchV:
	mov	QWORD PTR [rsp+64], rdi

; 10129:     HRESULT hr = S_OK;

	xor	ebx, ebx

; 10130:     int iRet;
; 10131:     size_t cchMax;
; 10132:     size_t cchNewDestLength = 0;
; 10133: 
; 10134:     // leave the last space for the null terminator
; 10135:     cchMax = cchDest - 1;

	lea	rdi, QWORD PTR [rdx-1]
; File C:\Program Files (x86)\Windows Kits\10\Include\10.0.26100.0\ucrt\corecrt_wstdio.h

; 1062 :         int const _Result = __stdio_common_vswprintf(

	call	__local_stdio_printf_options
	mov	QWORD PTR [rsp+40], rbp
	mov	r9, r14
	mov	r8, rdi
	mov	QWORD PTR [rsp+32], rbx
	mov	rdx, rsi
	mov	rcx, QWORD PTR [rax]
	or	rcx, 1
	call	__stdio_common_vswprintf

; 1063 :             _CRT_INTERNAL_LOCAL_PRINTF_OPTIONS | _CRT_INTERNAL_PRINTF_LEGACY_VSPRINTF_NULL_TERMINATION,
; 1064 :             _Buffer, _BufferCount, _Format, _Locale, _ArgList);
; 1065 : 
; 1066 :         return _Result < 0 ? -1 : _Result;

	test	eax, eax
	mov	ecx, -1
	cmovs	eax, ecx
; File C:\Program Files (x86)\Windows Kits\10\Include\10.0.26100.0\shared\strsafe.h

; 10147:     if ((iRet < 0) || (((size_t)iRet) > cchMax))

	test	eax, eax
	js	SHORT $LN13@StringCchV
	cdqe
	cmp	rax, rdi
	ja	SHORT $LN13@StringCchV

; 10157:     }
; 10158:     else if (((size_t)iRet) == cchMax)

	jne	SHORT $LN15@StringCchV

; 10159:     {
; 10160:         // need to null terminate the string
; 10161:         pszDest += cchMax;
; 10162:         *pszDest = L'\0';

	mov	WORD PTR [rsi+rdi*2], bx

; 10163: 
; 10164:         cchNewDestLength = cchMax;
; 10165:     }

	jmp	SHORT $LN15@StringCchV
$LN13@StringCchV:

; 10148:     {
; 10149:         // need to null terminate the string
; 10150:         pszDest += cchMax;
; 10151:         *pszDest = L'\0';

	mov	WORD PTR [rsi+rdi*2], bx

; 10152: 
; 10153:         cchNewDestLength = cchMax;
; 10154: 
; 10155:         // we have truncated pszDest
; 10156:         hr = STRSAFE_E_INSUFFICIENT_BUFFER;

	mov	ebx, -2147024774			; ffffffff8007007aH
$LN15@StringCchV:

; 4575 :     }
; 4576 : 
; 4577 :     return hr;

	mov	rdi, QWORD PTR [rsp+64]
	mov	eax, ebx
$LN4@StringCchV:

; 4578 : }

	mov	rbx, QWORD PTR [rsp+72]
	mov	rbp, QWORD PTR [rsp+80]
	mov	rsi, QWORD PTR [rsp+88]
	add	rsp, 48					; 00000030H
	pop	r14
	ret	0
?StringCchVPrintfW@@YAJPEA_W_KPEB_WPEAD@Z ENDP		; StringCchVPrintfW
_TEXT	ENDS
; Function compile flags: /Ogtpy
; File C:\Program Files (x86)\Windows Kits\10\Include\10.0.26100.0\shared\strsafe.h
; File C:\Program Files (x86)\Windows Kits\10\Include\10.0.26100.0\ucrt\corecrt_wstdio.h
; File C:\Program Files (x86)\Windows Kits\10\Include\10.0.26100.0\shared\strsafe.h
;	COMDAT ?StringCchPrintfW@@YAJPEA_W_KPEB_WZZ
_TEXT	SEGMENT
pszDest$ = 96
cchDest$ = 104
pszFormat$ = 112
?StringCchPrintfW@@YAJPEA_W_KPEB_WZZ PROC		; StringCchPrintfW, COMDAT

; 5050 : {

$LN30:
	mov	QWORD PTR [rsp+24], r8
	mov	QWORD PTR [rsp+32], r9
	push	rbx
	push	rbp
	push	rsi
	sub	rsp, 64					; 00000040H

; 9723 :     if ((cchDest == 0) || (cchDest > cchMax))

	lea	rax, QWORD PTR [rdx-1]

; 5050 : {

	mov	rbp, r8
	mov	rsi, rcx

; 9723 :     if ((cchDest == 0) || (cchDest > cchMax))

	cmp	rax, 2147483646				; 7ffffffeH
	jbe	SHORT $LN7@StringCchP

; 5060 : 
; 5061 :         hr = StringVPrintfWorkerW(pszDest,
; 5062 :                 cchDest,
; 5063 :                 NULL,
; 5064 :                 pszFormat,
; 5065 :                 argList);
; 5066 : 
; 5067 :         va_end(argList);
; 5068 :     }
; 5069 :     else if (cchDest > 0)

	mov	eax, -2147024809			; ffffffff80070057H
	test	rdx, rdx
	je	$LN4@StringCchP

; 5070 :     {
; 5071 :         *pszDest = '\0';

	xor	ebx, ebx
	mov	WORD PTR [rcx], bx

; 5075 : }

	add	rsp, 64					; 00000040H
	pop	rsi
	pop	rbp
	pop	rbx
	ret	0
$LN7@StringCchP:
	mov	QWORD PTR [rsp+56], rdi

; 10129:     HRESULT hr = S_OK;

	xor	ebx, ebx
	mov	QWORD PTR [rsp+48], r14

; 10130:     int iRet;
; 10131:     size_t cchMax;
; 10132:     size_t cchNewDestLength = 0;
; 10133: 
; 10134:     // leave the last space for the null terminator
; 10135:     cchMax = cchDest - 1;

	lea	rdi, QWORD PTR [rdx-1]

; 5051 :     HRESULT hr;
; 5052 : 
; 5053 :     hr = StringValidateDestW(pszDest, cchDest, STRSAFE_MAX_CCH);
; 5054 : 
; 5055 :     if (SUCCEEDED(hr))
; 5056 :     {
; 5057 :         va_list argList;
; 5058 : 
; 5059 :         va_start(argList, pszFormat);

	lea	r14, QWORD PTR pszFormat$[rsp+8]
; File C:\Program Files (x86)\Windows Kits\10\Include\10.0.26100.0\ucrt\corecrt_wstdio.h

; 1062 :         int const _Result = __stdio_common_vswprintf(

	call	__local_stdio_printf_options
	mov	QWORD PTR [rsp+40], r14
	mov	r9, rbp
	mov	r8, rdi
	mov	QWORD PTR [rsp+32], rbx
	mov	rdx, rsi
	mov	rcx, QWORD PTR [rax]
	or	rcx, 1
	call	__stdio_common_vswprintf

; 1063 :             _CRT_INTERNAL_LOCAL_PRINTF_OPTIONS | _CRT_INTERNAL_PRINTF_LEGACY_VSPRINTF_NULL_TERMINATION,
; 1064 :             _Buffer, _BufferCount, _Format, _Locale, _ArgList);
; 1065 : 
; 1066 :         return _Result < 0 ? -1 : _Result;

	mov	r14, QWORD PTR [rsp+48]
	test	eax, eax
	mov	ecx, -1
	cmovs	eax, ecx
; File C:\Program Files (x86)\Windows Kits\10\Include\10.0.26100.0\shared\strsafe.h

; 10147:     if ((iRet < 0) || (((size_t)iRet) > cchMax))

	test	eax, eax
	js	SHORT $LN13@StringCchP
	cdqe
	cmp	rax, rdi
	ja	SHORT $LN13@StringCchP

; 10157:     }
; 10158:     else if (((size_t)iRet) == cchMax)

	jne	SHORT $LN15@StringCchP

; 10159:     {
; 10160:         // need to null terminate the string
; 10161:         pszDest += cchMax;
; 10162:         *pszDest = L'\0';

	mov	WORD PTR [rsi+rdi*2], bx

; 5072 :     }
; 5073 : 
; 5074 :     return hr;

	mov	eax, ebx
	mov	rdi, QWORD PTR [rsp+56]

; 5075 : }

	add	rsp, 64					; 00000040H
	pop	rsi
	pop	rbp
	pop	rbx
	ret	0
$LN13@StringCchP:

; 10151:         *pszDest = L'\0';

	mov	WORD PTR [rsi+rdi*2], bx

; 10152: 
; 10153:         cchNewDestLength = cchMax;
; 10154: 
; 10155:         // we have truncated pszDest
; 10156:         hr = STRSAFE_E_INSUFFICIENT_BUFFER;

	mov	ebx, -2147024774			; ffffffff8007007aH
$LN15@StringCchP:

; 5072 :     }
; 5073 : 
; 5074 :     return hr;

	mov	rdi, QWORD PTR [rsp+56]
	mov	eax, ebx
$LN4@StringCchP:

; 5075 : }

	add	rsp, 64					; 00000040H
	pop	rsi
	pop	rbp
	pop	rbx
	ret	0
?StringCchPrintfW@@YAJPEA_W_KPEB_WZZ ENDP		; StringCchPrintfW
_TEXT	ENDS
; Function compile flags: /Ogtpy
; File C:\Program Files (x86)\Windows Kits\10\Include\10.0.26100.0\shared\strsafe.h
;	COMDAT ?StringValidateDestA@@YAJPEBD_K_K@Z
_TEXT	SEGMENT
pszDest$dead$ = 8
cchDest$ = 16
cchMax$dead$ = 24
?StringValidateDestA@@YAJPEBD_K_K@Z PROC		; StringValidateDestA, COMDAT

; 9667 :     HRESULT hr = S_OK;

	xor	eax, eax

; 9668 : 
; 9669 :     if ((cchDest == 0) || (cchDest > cchMax))

	lea	rcx, QWORD PTR [rdx-1]
	cmp	rcx, 2147483646				; 7ffffffeH
	mov	edx, -2147024809			; ffffffff80070057H
	cmova	eax, edx

; 9670 :     {
; 9671 :         hr = STRSAFE_E_INVALID_PARAMETER;
; 9672 :     }
; 9673 : 
; 9674 :     return hr;
; 9675 : }

	ret	0
?StringValidateDestA@@YAJPEBD_K_K@Z ENDP		; StringValidateDestA
_TEXT	ENDS
; Function compile flags: /Ogtpy
; File C:\Program Files (x86)\Windows Kits\10\Include\10.0.26100.0\shared\strsafe.h
;	COMDAT ?StringValidateDestW@@YAJPEB_W_K_K@Z
_TEXT	SEGMENT
pszDest$dead$ = 8
cchDest$ = 16
cchMax$dead$ = 24
?StringValidateDestW@@YAJPEB_W_K_K@Z PROC		; StringValidateDestW, COMDAT

; 9721 :     HRESULT hr = S_OK;

	xor	eax, eax

; 9722 : 
; 9723 :     if ((cchDest == 0) || (cchDest > cchMax))

	lea	rcx, QWORD PTR [rdx-1]
	cmp	rcx, 2147483646				; 7ffffffeH
	mov	edx, -2147024809			; ffffffff80070057H
	cmova	eax, edx

; 9724 :     {
; 9725 :         hr = STRSAFE_E_INVALID_PARAMETER;
; 9726 :     }
; 9727 : 
; 9728 :     return hr;
; 9729 : }

	ret	0
?StringValidateDestW@@YAJPEB_W_K_K@Z ENDP		; StringValidateDestW
_TEXT	ENDS
; Function compile flags: /Ogtpy
; File C:\Program Files (x86)\Windows Kits\10\Include\10.0.26100.0\shared\strsafe.h
;	COMDAT ?StringCopyWorkerA@@YAJPEAD_KPEA_KPEBD1@Z
_TEXT	SEGMENT
pszDest$ = 8
cchDest$ = 16
pcchNewDestLength$dead$ = 24
pszSrc$ = 32
cchToCopy$dead$ = 40
?StringCopyWorkerA@@YAJPEAD_KPEA_KPEBD1@Z PROC		; StringCopyWorkerA, COMDAT

; 9910 : {

	mov	r8, rdx

; 9913 : 
; 9914 :     // ASSERT(cchDest != 0);
; 9915 : 
; 9916 :     while (cchDest && cchToCopy && (*pszSrc != '\0'))

	test	rdx, rdx
	je	SHORT $LN3@StringCopy

; 9911 :     HRESULT hr = S_OK;
; 9912 :     size_t cchNewDestLength = 0;

	mov	eax, 2147483646				; 7ffffffeH
	sub	r9, rcx
$LL2@StringCopy:

; 9913 : 
; 9914 :     // ASSERT(cchDest != 0);
; 9915 : 
; 9916 :     while (cchDest && cchToCopy && (*pszSrc != '\0'))

	test	rax, rax
	je	SHORT $LN3@StringCopy
	movzx	edx, BYTE PTR [r9+rcx]
	test	dl, dl
	je	SHORT $LN3@StringCopy

; 9917 :     {
; 9918 :         *pszDest++ = *pszSrc++;

	mov	BYTE PTR [rcx], dl

; 9919 :         cchDest--;

	dec	rax
	inc	rcx
	sub	r8, 1
	jne	SHORT $LL2@StringCopy
$LN3@StringCopy:

; 9920 :         cchToCopy--;
; 9921 : 
; 9922 :         cchNewDestLength++;
; 9923 :     }
; 9924 : 
; 9925 :     if (cchDest == 0)
; 9926 :     {
; 9927 :         // we are going to truncate pszDest
; 9928 :         pszDest--;
; 9929 :         cchNewDestLength--;
; 9930 : 
; 9931 :         hr = STRSAFE_E_INSUFFICIENT_BUFFER;
; 9932 :     }
; 9933 : 
; 9934 :     *pszDest = '\0';

	xor	edx, edx
	mov	eax, -2147024774			; ffffffff8007007aH
	test	r8, r8
	cmovne	eax, edx
	lea	rdx, QWORD PTR [rcx-1]
	cmovne	rdx, rcx
	mov	BYTE PTR [rdx], 0

; 9935 : 
; 9936 :     if (pcchNewDestLength)
; 9937 :     {
; 9938 :         *pcchNewDestLength = cchNewDestLength;
; 9939 :     }
; 9940 : 
; 9941 :     return hr;
; 9942 : }

	ret	0
?StringCopyWorkerA@@YAJPEAD_KPEA_KPEBD1@Z ENDP		; StringCopyWorkerA
_TEXT	ENDS
; Function compile flags: /Ogtpy
; File C:\Program Files (x86)\Windows Kits\10\Include\10.0.26100.0\shared\strsafe.h
; File C:\Program Files (x86)\Windows Kits\10\Include\10.0.26100.0\ucrt\corecrt_wstdio.h
; File C:\Program Files (x86)\Windows Kits\10\Include\10.0.26100.0\shared\strsafe.h
;	COMDAT ?StringVPrintfWorkerW@@YAJPEA_W_KPEA_KPEB_WPEAD@Z
_TEXT	SEGMENT
pszDest$ = 64
cchDest$ = 72
pcchNewDestLength$dead$ = 80
pszFormat$ = 88
argList$ = 96
?StringVPrintfWorkerW@@YAJPEA_W_KPEA_KPEB_WPEAD@Z PROC	; StringVPrintfWorkerW, COMDAT

; 10128: {

	mov	QWORD PTR [rsp+8], rbx
	mov	QWORD PTR [rsp+16], rbp
	mov	QWORD PTR [rsp+24], rsi
	push	rdi
	sub	rsp, 48					; 00000030H
	mov	rbx, r9

; 10129:     HRESULT hr = S_OK;
; 10130:     int iRet;
; 10131:     size_t cchMax;
; 10132:     size_t cchNewDestLength = 0;
; 10133: 
; 10134:     // leave the last space for the null terminator
; 10135:     cchMax = cchDest - 1;

	lea	rdi, QWORD PTR [rdx-1]
	mov	rsi, rcx
	xor	ebp, ebp
; File C:\Program Files (x86)\Windows Kits\10\Include\10.0.26100.0\ucrt\corecrt_wstdio.h

; 1062 :         int const _Result = __stdio_common_vswprintf(

	call	__local_stdio_printf_options
	mov	r9, rbx
	mov	r8, rdi
	mov	rdx, rsi
	mov	rcx, QWORD PTR [rax]
	mov	rax, QWORD PTR argList$[rsp]
	or	rcx, 1
	mov	QWORD PTR [rsp+40], rax
	mov	QWORD PTR [rsp+32], rbp
	call	__stdio_common_vswprintf

; 1063 :             _CRT_INTERNAL_LOCAL_PRINTF_OPTIONS | _CRT_INTERNAL_PRINTF_LEGACY_VSPRINTF_NULL_TERMINATION,
; 1064 :             _Buffer, _BufferCount, _Format, _Locale, _ArgList);
; 1065 : 
; 1066 :         return _Result < 0 ? -1 : _Result;

	test	eax, eax
	mov	ecx, -1
	cmovs	eax, ecx
; File C:\Program Files (x86)\Windows Kits\10\Include\10.0.26100.0\shared\strsafe.h

; 10147:     if ((iRet < 0) || (((size_t)iRet) > cchMax))

	test	eax, eax
	js	SHORT $LN4@StringVPri
	movsxd	rcx, eax
	cmp	rcx, rdi
	ja	SHORT $LN4@StringVPri

; 10148:     {
; 10149:         // need to null terminate the string
; 10150:         pszDest += cchMax;
; 10151:         *pszDest = L'\0';
; 10152: 
; 10153:         cchNewDestLength = cchMax;
; 10154: 
; 10155:         // we have truncated pszDest
; 10156:         hr = STRSAFE_E_INSUFFICIENT_BUFFER;
; 10157:     }
; 10158:     else if (((size_t)iRet) == cchMax)

	mov	eax, ebp
	je	SHORT $LN17@StringVPri
	jmp	SHORT $LN6@StringVPri
$LN4@StringVPri:

; 10159:     {
; 10160:         // need to null terminate the string
; 10161:         pszDest += cchMax;
; 10162:         *pszDest = L'\0';
; 10163: 
; 10164:         cchNewDestLength = cchMax;
; 10165:     }
; 10166:     else
; 10167:     {
; 10168:         cchNewDestLength = (size_t)iRet;
; 10169:     }
; 10170: 
; 10171:     if (pcchNewDestLength)
; 10172:     {
; 10173:         *pcchNewDestLength = cchNewDestLength;
; 10174:     }
; 10175: 
; 10176:     return hr;

	mov	eax, -2147024774			; ffffffff8007007aH
$LN17@StringVPri:

; 10177: }

	mov	WORD PTR [rsi+rdi*2], bp
$LN6@StringVPri:
	mov	rbx, QWORD PTR [rsp+64]
	mov	rbp, QWORD PTR [rsp+72]
	mov	rsi, QWORD PTR [rsp+80]
	add	rsp, 48					; 00000030H
	pop	rdi
	ret	0
?StringVPrintfWorkerW@@YAJPEA_W_KPEA_KPEB_WPEAD@Z ENDP	; StringVPrintfWorkerW
_TEXT	ENDS
; Function compile flags: /Ogtpy
; File C:\Program Files\Microsoft Visual Studio\2022\Community\VC\Tools\MSVC\14.44.35207\include\vcruntime_exception.h
;	COMDAT ??0exception@std@@QEAA@XZ
_TEXT	SEGMENT
this$ = 8
??0exception@std@@QEAA@XZ PROC				; std::exception::exception, COMDAT

; 55   :     {

	lea	rax, OFFSET FLAT:??_7exception@std@@6B@
	xorps	xmm0, xmm0
	mov	QWORD PTR [rcx], rax

; 56   :     }

	mov	rax, rcx
	movups	XMMWORD PTR [rcx+8], xmm0
	ret	0
??0exception@std@@QEAA@XZ ENDP				; std::exception::exception
_TEXT	ENDS
; Function compile flags: /Ogtpy
; File C:\Program Files\Microsoft Visual Studio\2022\Community\VC\Tools\MSVC\14.44.35207\include\vcruntime_exception.h
;	COMDAT ??0exception@std@@QEAA@AEBV01@@Z
_TEXT	SEGMENT
this$ = 48
_Other$ = 56
??0exception@std@@QEAA@AEBV01@@Z PROC			; std::exception::exception, COMDAT

; 73   :     {

$LN6:
	push	rbx
	sub	rsp, 32					; 00000020H
	mov	rbx, rcx
	mov	rax, rdx
	lea	rcx, OFFSET FLAT:??_7exception@std@@6B@
	xorps	xmm0, xmm0
	lea	rdx, QWORD PTR [rbx+8]
	mov	QWORD PTR [rbx], rcx

; 74   :         __std_exception_copy(&_Other._Data, &_Data);

	lea	rcx, QWORD PTR [rax+8]
	movups	XMMWORD PTR [rdx], xmm0
	call	__std_exception_copy

; 75   :     }

	mov	rax, rbx
	add	rsp, 32					; 00000020H
	pop	rbx
	ret	0
??0exception@std@@QEAA@AEBV01@@Z ENDP			; std::exception::exception
_TEXT	ENDS
; Function compile flags: /Ogtpy
; File C:\Program Files\Microsoft Visual Studio\2022\Community\VC\Tools\MSVC\14.44.35207\include\vcruntime_exception.h
;	COMDAT ??1exception@std@@UEAA@XZ
_TEXT	SEGMENT
this$ = 8
??1exception@std@@UEAA@XZ PROC				; std::exception::~exception, COMDAT

; 90   :     {

	lea	rax, OFFSET FLAT:??_7exception@std@@6B@
	mov	QWORD PTR [rcx], rax

; 91   :         __std_exception_destroy(&_Data);

	add	rcx, 8
	jmp	__std_exception_destroy
??1exception@std@@UEAA@XZ ENDP				; std::exception::~exception
_TEXT	ENDS
; Function compile flags: /Ogtpy
; File C:\Program Files\Microsoft Visual Studio\2022\Community\VC\Tools\MSVC\14.44.35207\include\vcruntime_exception.h
;	COMDAT ?what@exception@std@@UEBAPEBDXZ
_TEXT	SEGMENT
this$ = 8
?what@exception@std@@UEBAPEBDXZ PROC			; std::exception::what, COMDAT

; 96   :         return _Data._What ? _Data._What : "Unknown exception";

	mov	rdx, QWORD PTR [rcx+8]
	lea	rax, OFFSET FLAT:??_C@_0BC@EOODALEL@Unknown?5exception@
	test	rdx, rdx
	cmovne	rax, rdx

; 97   :     }

	ret	0
?what@exception@std@@UEBAPEBDXZ ENDP			; std::exception::what
_TEXT	ENDS
; Function compile flags: /Ogtpy
; File C:\Program Files\Microsoft Visual Studio\2022\Community\VC\Tools\MSVC\14.44.35207\include\vcruntime_exception.h
;	COMDAT ??_Gexception@std@@UEAAPEAXI@Z
_TEXT	SEGMENT
this$ = 48
__flags$ = 56
??_Gexception@std@@UEAAPEAXI@Z PROC			; std::exception::`scalar deleting destructor', COMDAT
$LN12:
	mov	QWORD PTR [rsp+8], rbx
	push	rdi
	sub	rsp, 32					; 00000020H

; 90   :     {

	lea	rax, OFFSET FLAT:??_7exception@std@@6B@
	mov	rdi, rcx
	mov	QWORD PTR [rcx], rax
	mov	ebx, edx

; 91   :         __std_exception_destroy(&_Data);

	add	rcx, 8
	call	__std_exception_destroy
	test	bl, 1
	je	SHORT $LN8@scalar
	mov	edx, 24
	mov	rcx, rdi
	call	??3@YAXPEAX_K@Z				; operator delete
$LN8@scalar:
	mov	rbx, QWORD PTR [rsp+48]
	mov	rax, rdi
	add	rsp, 32					; 00000020H
	pop	rdi
	ret	0
??_Gexception@std@@UEAAPEAXI@Z ENDP			; std::exception::`scalar deleting destructor'
_TEXT	ENDS
; Function compile flags: /Ogtpy
; File G:\Github\microsoft\low-latency-audio\src\uac2-asio\packages\Microsoft.Windows.ImplementationLibrary.1.0.250325.1\include\wil\result_macros.h
; File C:\Program Files (x86)\Windows Kits\10\Include\10.0.26100.0\shared\strsafe.h
; File C:\Program Files (x86)\Windows Kits\10\Include\10.0.26100.0\ucrt\corecrt_wstdio.h
; File C:\Program Files (x86)\Windows Kits\10\Include\10.0.26100.0\shared\strsafe.h
; File G:\Github\microsoft\low-latency-audio\src\uac2-asio\packages\Microsoft.Windows.ImplementationLibrary.1.0.250325.1\include\wil\result_macros.h
; File C:\Program Files (x86)\Windows Kits\10\Include\10.0.26100.0\shared\strsafe.h
; File G:\Github\microsoft\low-latency-audio\src\uac2-asio\packages\Microsoft.Windows.ImplementationLibrary.1.0.250325.1\include\wil\result_macros.h
;	COMDAT ?LogStringPrintf@details@wil@@YAPEA_WPEA_WPEB_W1ZZ
_TEXT	SEGMENT
dest$ = 112
destEnd$ = 120
format$ = 128
?LogStringPrintf@details@wil@@YAPEA_WPEA_WPEB_W1ZZ PROC	; wil::details::LogStringPrintf, COMDAT

; 1760 :     {

$LN38:
	mov	QWORD PTR [rsp+24], r8
	mov	QWORD PTR [rsp+32], r9
	push	rbx
	push	rbp
	push	rsi
	push	rdi
	push	r14
	push	r15
	sub	rsp, 56					; 00000038H

; 1761 :         va_list argList;
; 1762 :         va_start(argList, format);
; 1763 :         StringCchVPrintfW(dest, (destEnd - dest), format, argList);

	mov	rbp, rdx
	lea	rsi, QWORD PTR format$[rsp+8]
	sub	rbp, rcx
	mov	r15, r8
	sar	rbp, 1
	mov	r14, rdx
	mov	rdi, rcx
	mov	rbx, -1
; File C:\Program Files (x86)\Windows Kits\10\Include\10.0.26100.0\shared\strsafe.h

; 9723 :     if ((cchDest == 0) || (cchDest > cchMax))

	je	SHORT $LN8@LogStringP
	cmp	rbp, 2147483647				; 7fffffffH
	ja	SHORT $LN27@LogStringP

; 10135:     cchMax = cchDest - 1;

	dec	rbp
; File C:\Program Files (x86)\Windows Kits\10\Include\10.0.26100.0\ucrt\corecrt_wstdio.h

; 1062 :         int const _Result = __stdio_common_vswprintf(

	call	__local_stdio_printf_options
	mov	QWORD PTR [rsp+40], rsi
	mov	r9, r15
	xor	esi, esi
	mov	r8, rbp
	mov	rdx, rdi
	mov	QWORD PTR [rsp+32], rsi
	mov	rcx, QWORD PTR [rax]
	or	rcx, 1
	call	__stdio_common_vswprintf

; 1063 :             _CRT_INTERNAL_LOCAL_PRINTF_OPTIONS | _CRT_INTERNAL_PRINTF_LEGACY_VSPRINTF_NULL_TERMINATION,
; 1064 :             _Buffer, _BufferCount, _Format, _Locale, _ArgList);
; 1065 : 
; 1066 :         return _Result < 0 ? -1 : _Result;

	test	eax, eax
	cmovs	eax, ebx
; File C:\Program Files (x86)\Windows Kits\10\Include\10.0.26100.0\shared\strsafe.h

; 10147:     if ((iRet < 0) || (((size_t)iRet) > cchMax))

	test	eax, eax
	js	SHORT $LN17@LogStringP
	cdqe
	cmp	rax, rbp
	ja	SHORT $LN17@LogStringP

; 10148:     {
; 10149:         // need to null terminate the string
; 10150:         pszDest += cchMax;
; 10151:         *pszDest = L'\0';
; 10152: 
; 10153:         cchNewDestLength = cchMax;
; 10154: 
; 10155:         // we have truncated pszDest
; 10156:         hr = STRSAFE_E_INSUFFICIENT_BUFFER;
; 10157:     }
; 10158:     else if (((size_t)iRet) == cchMax)

	jne	SHORT $LN8@LogStringP
$LN17@LogStringP:
; File G:\Github\microsoft\low-latency-audio\src\uac2-asio\packages\Microsoft.Windows.ImplementationLibrary.1.0.250325.1\include\wil\result_macros.h

; 1764 :         return (destEnd == dest) ? dest : (dest + wcslen(dest));

	mov	WORD PTR [rdi+rbp*2], si
	jmp	SHORT $LN8@LogStringP
$LN27@LogStringP:
; File C:\Program Files (x86)\Windows Kits\10\Include\10.0.26100.0\shared\strsafe.h

; 4574 :         *pszDest = L'\0';

	xor	esi, esi
	mov	WORD PTR [rcx], si
$LN8@LogStringP:
; File G:\Github\microsoft\low-latency-audio\src\uac2-asio\packages\Microsoft.Windows.ImplementationLibrary.1.0.250325.1\include\wil\result_macros.h

; 1764 :         return (destEnd == dest) ? dest : (dest + wcslen(dest));

	cmp	r14, rdi
	jne	SHORT $LL3@LogStringP
	mov	rax, rdi

; 1765 :     }

	add	rsp, 56					; 00000038H
	pop	r15
	pop	r14
	pop	rdi
	pop	rsi
	pop	rbp
	pop	rbx
	ret	0
	npad	3
$LL3@LogStringP:

; 1764 :         return (destEnd == dest) ? dest : (dest + wcslen(dest));

	cmp	WORD PTR [rdi+rbx*2+2], 0
	lea	rbx, QWORD PTR [rbx+1]
	jne	SHORT $LL3@LogStringP
	lea	rax, QWORD PTR [rdi+rbx*2]

; 1765 :     }

	add	rsp, 56					; 00000038H
	pop	r15
	pop	r14
	pop	rdi
	pop	rsi
	pop	rbp
	pop	rbx
	ret	0
?LogStringPrintf@details@wil@@YAPEA_WPEA_WPEB_W1ZZ ENDP	; wil::details::LogStringPrintf
_TEXT	ENDS
; Function compile flags: /Ogtpy
; File G:\Github\microsoft\low-latency-audio\src\uac2-asio\packages\Microsoft.Windows.ImplementationLibrary.1.0.250325.1\include\wil\result_macros.h
;	COMDAT ?GetFailureLogString@wil@@YAJPEA_W_KAEBUFailureInfo@1@@Z
_TEXT	SEGMENT
szErrorText$1 = 64
__$ArrayPad$ = 576
pszDest$ = 640
cchDest$ = 648
failure$ = 656
?GetFailureLogString@wil@@YAJPEA_W_KAEBUFailureInfo@1@@Z PROC ; wil::GetFailureLogString, COMDAT

; 1776 : {

$LN40:
	mov	QWORD PTR [rsp+32], rbx
	push	rbp
	push	rsi
	push	rdi
	push	r14
	push	r15
	sub	rsp, 592				; 00000250H
	mov	rax, QWORD PTR __security_cookie
	xor	rax, rsp
	mov	QWORD PTR __$ArrayPad$[rsp], rax
	mov	rbx, r8
	mov	rsi, rdx
	mov	r14, rcx

; 1777 :     // This function was lenient to empty strings at one point and some callers became dependent on this behavior
; 1778 :     if ((cchDest == 0) || (pszDest == nullptr))

	test	rdx, rdx
	je	$LN33@GetFailure
	test	rcx, rcx
	je	$LN33@GetFailure

; 1779 :     {
; 1780 :         return S_OK;
; 1781 :     }
; 1782 : 
; 1783 :     pszDest[0] = L'\0';

	xor	r15d, r15d
	mov	WORD PTR [rcx], r15w

; 1784 : 
; 1785 :     // Call the logging callback (if present) to allow them to generate the debug string that will be pushed to the console
; 1786 :     // or the platform exception object if the caller desires it.
; 1787 :     if ((g_pfnResultLoggingCallback != nullptr) && details::g_resultMessageCallbackSet)

	mov	rax, QWORD PTR g_pfnResultLoggingCallback
	test	rax, rax
	je	SHORT $LN32@GetFailure
	cmp	BYTE PTR ?g_resultMessageCallbackSet@details@wil@@3_NA, r15b ; wil::details::g_resultMessageCallbackSet
	je	SHORT $LN32@GetFailure

; 1788 :     {
; 1789 :         // older-form callback was a non-const FailureInfo*; conceptually this is const as callers should not be modifying
; 1790 :         g_pfnResultLoggingCallback(const_cast<FailureInfo*>(&failure), pszDest, cchDest);

	mov	r8, rdx
	mov	rdx, rcx
	mov	rcx, rbx
	call	rax

; 1791 :     }
; 1792 : 
; 1793 :     // The callback only optionally needs to supply the debug string -- if the callback didn't populate it, yet we still want
; 1794 :     // it for OutputDebugString or exception message, then generate the default string.
; 1795 :     if (pszDest[0] == L'\0')

	cmp	WORD PTR [r14], r15w
	jne	$LN33@GetFailure
$LN32@GetFailure:

; 1796 :     {
; 1797 :         PCSTR pszType = "";

	lea	rdi, OFFSET FLAT:??_C@_00CNPNBAHC@@

; 1798 :         switch (failure.type)

	mov	ecx, DWORD PTR [rbx]
	test	ecx, ecx
	je	SHORT $LN8@GetFailure
	sub	ecx, 1
	je	SHORT $LN9@GetFailure
	sub	ecx, 1
	je	SHORT $LN12@GetFailure
	cmp	ecx, 1
	jne	SHORT $LN2@GetFailure

; 1823 :         case FailureType::FailFast:
; 1824 :             pszType = "FailFast";

	lea	rdi, OFFSET FLAT:??_C@_08IAOKKAJK@FailFast@
	jmp	SHORT $LN2@GetFailure
$LN12@GetFailure:

; 1813 :         case FailureType::Log:
; 1814 :             if (WI_IsFlagSet(failure.flags, FailureFlags::NtStatus))

	test	BYTE PTR [rbx+4], 8

; 1815 :             {
; 1816 :                 pszType = "LogNt";
; 1817 :             }
; 1818 :             else
; 1819 :             {
; 1820 :                 pszType = "LogHr";
; 1821 :             }
; 1822 :             break;

	lea	rax, OFFSET FLAT:??_C@_05OILEHMGB@LogHr@
	lea	rdi, OFFSET FLAT:??_C@_05LKGDKHFF@LogNt@
	cmove	rdi, rax
	jmp	SHORT $LN2@GetFailure
$LN9@GetFailure:

; 1802 :             break;
; 1803 :         case FailureType::Return:
; 1804 :             if (WI_IsFlagSet(failure.flags, FailureFlags::NtStatus))

	test	BYTE PTR [rbx+4], 8

; 1805 :             {
; 1806 :                 pszType = "ReturnNt";
; 1807 :             }
; 1808 :             else
; 1809 :             {
; 1810 :                 pszType = "ReturnHr";
; 1811 :             }
; 1812 :             break;

	lea	rax, OFFSET FLAT:??_C@_08KFPKLAKH@ReturnHr@
	lea	rdi, OFFSET FLAT:??_C@_08PHCNGLJD@ReturnNt@
	cmove	rdi, rax
	jmp	SHORT $LN2@GetFailure
$LN8@GetFailure:

; 1799 :         {
; 1800 :         case FailureType::Exception:
; 1801 :             pszType = "Exception";

	lea	rdi, OFFSET FLAT:??_C@_09FBNMMHMJ@Exception@
$LN2@GetFailure:

; 1825 :             break;
; 1826 :         }
; 1827 : 
; 1828 :         wchar_t szErrorText[256]{};

	xor	edx, edx
	mov	r8d, 512				; 00000200H
	lea	rcx, QWORD PTR szErrorText$1[rsp]
	call	memset

; 1829 :         LONG errorCode = 0;
; 1830 : 
; 1831 :         if (WI_IsFlagSet(failure.flags, FailureFlags::NtStatus))

	test	BYTE PTR [rbx+4], 8
	je	SHORT $LN16@GetFailure

; 1832 :         {
; 1833 :             errorCode = failure.status;

	mov	ebp, DWORD PTR [rbx+12]

; 1834 :             if (wil::details::g_pfnFormatNtStatusMsg)

	mov	rax, QWORD PTR ?g_pfnFormatNtStatusMsg@details@wil@@3P6AXJPEA_WK@ZEA ; wil::details::g_pfnFormatNtStatusMsg
	test	rax, rax
	je	SHORT $LN17@GetFailure

; 1835 :             {
; 1836 :                 wil::details::g_pfnFormatNtStatusMsg(failure.status, szErrorText, ARRAYSIZE(szErrorText));

	mov	r8d, 256				; 00000100H
	lea	rdx, QWORD PTR szErrorText$1[rsp]
	mov	ecx, ebp
	call	rax

; 1837 :             }
; 1838 :         }

	jmp	SHORT $LN17@GetFailure
$LN16@GetFailure:

; 1839 :         else
; 1840 :         {
; 1841 :             errorCode = failure.hr;

	mov	ebp, DWORD PTR [rbx+8]

; 1842 :             FormatMessageW(

	mov	QWORD PTR [rsp+48], r15
	mov	DWORD PTR [rsp+40], 256			; 00000100H
	lea	rax, QWORD PTR szErrorText$1[rsp]
	mov	QWORD PTR [rsp+32], rax
	mov	r9d, 1024				; 00000400H
	mov	r8d, ebp
	xor	edx, edx
	mov	ecx, 4608				; 00001200H
	call	QWORD PTR __imp_FormatMessageW
$LN17@GetFailure:

; 1843 :                 FORMAT_MESSAGE_FROM_SYSTEM | FORMAT_MESSAGE_IGNORE_INSERTS,
; 1844 :                 nullptr,
; 1845 :                 failure.hr,
; 1846 :                 MAKELANGID(LANG_NEUTRAL, SUBLANG_DEFAULT),
; 1847 :                 szErrorText,
; 1848 :                 ARRAYSIZE(szErrorText),
; 1849 :                 nullptr);
; 1850 :         }
; 1851 : 
; 1852 :         // %FILENAME(%LINE): %TYPE(%count) tid(%threadid) %HRESULT %SystemMessage
; 1853 :         //     %Caller_MSG [%CODE(%FUNCTION)]
; 1854 : 
; 1855 :         PWSTR dest = pszDest;
; 1856 :         PCWSTR destEnd = (pszDest + cchDest);

	lea	rsi, QWORD PTR [r14+rsi*2]

; 1857 : 
; 1858 :         if (failure.pszFile != nullptr)

	mov	r9, QWORD PTR [rbx+56]
	mov	rax, QWORD PTR [rbx+136]
	mov	rcx, QWORD PTR [rbx+128]
	mov	rdx, rsi
	test	r9, r9
	je	SHORT $LN19@GetFailure

; 1859 :         {
; 1860 :             dest = details::LogStringPrintf(

	mov	QWORD PTR [rsp+48], rax
	mov	QWORD PTR [rsp+40], rcx
	mov	eax, DWORD PTR [rbx+64]
	mov	DWORD PTR [rsp+32], eax
	lea	r8, OFFSET FLAT:??_C@_1CC@NCIPMFAO@?$AA?$CF?$AAh?$AAs?$AA?$CI?$AA?$CF?$AAu?$AA?$CJ?$AA?2?$AA?$CF?$AAh?$AAs?$AA?$CB?$AA?$CF?$AAp?$AA?3@
	mov	rcx, r14
	call	?LogStringPrintf@details@wil@@YAPEA_WPEA_WPEB_W1ZZ ; wil::details::LogStringPrintf

; 1861 :                 dest, destEnd, L"%hs(%u)\\%hs!%p: ", failure.pszFile, failure.uLineNumber, failure.pszModule, failure.returnAddress);
; 1862 :         }

	jmp	SHORT $LN37@GetFailure
$LN19@GetFailure:

; 1863 :         else
; 1864 :         {
; 1865 :             dest = details::LogStringPrintf(dest, destEnd, L"%hs!%p: ", failure.pszModule, failure.returnAddress);

	mov	QWORD PTR [rsp+32], rax
	mov	r9, rcx
	lea	r8, OFFSET FLAT:??_C@_1BC@HOGHCIFF@?$AA?$CF?$AAh?$AAs?$AA?$CB?$AA?$CF?$AAp?$AA?3?$AA?5@
	mov	rcx, r14
	call	?LogStringPrintf@details@wil@@YAPEA_WPEA_WPEB_W1ZZ ; wil::details::LogStringPrintf
$LN37@GetFailure:

; 1866 :         }
; 1867 : 
; 1868 :         if (failure.callerReturnAddress != nullptr)

	mov	r14, rax
	mov	r9, QWORD PTR [rbx+144]
	test	r9, r9
	je	SHORT $LN21@GetFailure

; 1869 :         {
; 1870 :             dest = details::LogStringPrintf(dest, destEnd, L"(caller: %p) ", failure.callerReturnAddress);

	lea	r8, OFFSET FLAT:??_C@_1BM@EAHLIJPA@?$AA?$CI?$AAc?$AAa?$AAl?$AAl?$AAe?$AAr?$AA?3?$AA?5?$AA?$CF?$AAp?$AA?$CJ?$AA?5@
	mov	rdx, rsi
	mov	rcx, rax
	call	?LogStringPrintf@details@wil@@YAPEA_WPEA_WPEB_W1ZZ ; wil::details::LogStringPrintf
	mov	r14, rax
$LN21@GetFailure:

; 1871 :         }
; 1872 : 
; 1873 :         dest = details::LogStringPrintf(

	call	QWORD PTR __imp_GetCurrentThreadId
	lea	rcx, QWORD PTR szErrorText$1[rsp]
	mov	QWORD PTR [rsp+56], rcx
	mov	DWORD PTR [rsp+48], ebp
	mov	DWORD PTR [rsp+40], eax
	mov	eax, DWORD PTR [rbx+68]
	mov	DWORD PTR [rsp+32], eax
	mov	r9, rdi
	lea	r8, OFFSET FLAT:??_C@_1DC@MFHOKFOG@?$AA?$CF?$AAh?$AAs?$AA?$CI?$AA?$CF?$AAd?$AA?$CJ?$AA?5?$AAt?$AAi?$AAd?$AA?$CI?$AA?$CF?$AAx?$AA?$CJ@
	mov	rdx, rsi
	mov	rcx, r14
	call	?LogStringPrintf@details@wil@@YAPEA_WPEA_WPEB_W1ZZ ; wil::details::LogStringPrintf

; 1874 :             dest, destEnd, L"%hs(%d) tid(%x) %08X %ws", pszType, failure.cFailureCount, ::GetCurrentThreadId(), errorCode, szErrorText);
; 1875 : 
; 1876 :         if ((failure.pszMessage != nullptr) || (failure.pszCallContext != nullptr) || (failure.pszFunction != nullptr))

	cmp	QWORD PTR [rbx+24], r15
	jne	SHORT $LN23@GetFailure
	cmp	QWORD PTR [rbx+72], r15
	jne	SHORT $LN23@GetFailure
	cmp	QWORD PTR [rbx+48], r15
	je	$LN33@GetFailure
$LN23@GetFailure:

; 1877 :         {
; 1878 :             dest = details::LogStringPrintf(dest, destEnd, L"    ");

	lea	r8, OFFSET FLAT:??_C@_19NMAFMAH@?$AA?5?$AA?5?$AA?5?$AA?5@
	mov	rdx, rsi
	mov	rcx, rax
	call	?LogStringPrintf@details@wil@@YAPEA_WPEA_WPEB_W1ZZ ; wil::details::LogStringPrintf

; 1879 :             if (failure.pszMessage != nullptr)

	mov	r9, QWORD PTR [rbx+24]
	test	r9, r9
	je	SHORT $LN24@GetFailure

; 1880 :             {
; 1881 :                 dest = details::LogStringPrintf(dest, destEnd, L"Msg:[%ws] ", failure.pszMessage);

	lea	r8, OFFSET FLAT:??_C@_1BG@MCLOHHAM@?$AAM?$AAs?$AAg?$AA?3?$AA?$FL?$AA?$CF?$AAw?$AAs?$AA?$FN?$AA?5@
	mov	rdx, rsi
	mov	rcx, rax
	call	?LogStringPrintf@details@wil@@YAPEA_WPEA_WPEB_W1ZZ ; wil::details::LogStringPrintf
$LN24@GetFailure:

; 1882 :             }
; 1883 :             if (failure.pszCallContext != nullptr)

	mov	r9, QWORD PTR [rbx+72]
	test	r9, r9
	je	SHORT $LN25@GetFailure

; 1884 :             {
; 1885 :                 dest = details::LogStringPrintf(dest, destEnd, L"CallContext:[%hs] ", failure.pszCallContext);

	lea	r8, OFFSET FLAT:??_C@_1CG@CGJKEFKG@?$AAC?$AAa?$AAl?$AAl?$AAC?$AAo?$AAn?$AAt?$AAe?$AAx?$AAt?$AA?3?$AA?$FL?$AA?$CF?$AAh@
	mov	rdx, rsi
	mov	rcx, rax
	call	?LogStringPrintf@details@wil@@YAPEA_WPEA_WPEB_W1ZZ ; wil::details::LogStringPrintf
$LN25@GetFailure:

; 1886 :             }
; 1887 : 
; 1888 :             if (failure.pszCode != nullptr)

	mov	rcx, QWORD PTR [rbx+40]
	mov	r9, QWORD PTR [rbx+48]
	mov	rdx, rsi
	test	rcx, rcx
	je	SHORT $LN26@GetFailure

; 1889 :             {
; 1890 :                 dest = details::LogStringPrintf(dest, destEnd, L"[%hs(%hs)]\n", failure.pszFunction, failure.pszCode);

	mov	QWORD PTR [rsp+32], rcx
	lea	r8, OFFSET FLAT:??_C@_1BI@PKOCHLJN@?$AA?$FL?$AA?$CF?$AAh?$AAs?$AA?$CI?$AA?$CF?$AAh?$AAs?$AA?$CJ?$AA?$FN?$AA?6@
	mov	rcx, rax
	call	?LogStringPrintf@details@wil@@YAPEA_WPEA_WPEB_W1ZZ ; wil::details::LogStringPrintf

; 1891 :             }

	jmp	SHORT $LN33@GetFailure
$LN26@GetFailure:

; 1892 :             else if (failure.pszFunction != nullptr)

	mov	rcx, rax
	test	r9, r9
	je	SHORT $LN28@GetFailure

; 1893 :             {
; 1894 :                 dest = details::LogStringPrintf(dest, destEnd, L"[%hs]\n", failure.pszFunction);

	lea	r8, OFFSET FLAT:??_C@_1O@PJKHPDBK@?$AA?$FL?$AA?$CF?$AAh?$AAs?$AA?$FN?$AA?6@
	call	?LogStringPrintf@details@wil@@YAPEA_WPEA_WPEB_W1ZZ ; wil::details::LogStringPrintf

; 1895 :             }

	jmp	SHORT $LN33@GetFailure
$LN28@GetFailure:

; 1896 :             else
; 1897 :             {
; 1898 :                 dest = details::LogStringPrintf(dest, destEnd, L"\n");

	lea	r8, OFFSET FLAT:??_C@_13LBAGMAIH@?$AA?6@
	call	?LogStringPrintf@details@wil@@YAPEA_WPEA_WPEB_W1ZZ ; wil::details::LogStringPrintf
$LN33@GetFailure:

; 1899 :             }
; 1900 :         }
; 1901 :     }
; 1902 : 
; 1903 :     // Explicitly choosing to return success in the event of truncation... Current callers
; 1904 :     // depend upon it or it would be eliminated.
; 1905 :     return S_OK;
; 1906 : }

	xor	eax, eax
	mov	rcx, QWORD PTR __$ArrayPad$[rsp]
	xor	rcx, rsp
	call	__security_check_cookie
	mov	rbx, QWORD PTR [rsp+664]
	add	rsp, 592				; 00000250H
	pop	r15
	pop	r14
	pop	rdi
	pop	rsi
	pop	rbp
	ret	0
?GetFailureLogString@wil@@YAJPEA_W_KAEBUFailureInfo@1@@Z ENDP ; wil::GetFailureLogString
_TEXT	ENDS
; Function compile flags: /Ogtpy
; File G:\Github\microsoft\low-latency-audio\src\uac2-asio\packages\Microsoft.Windows.ImplementationLibrary.1.0.250325.1\include\wil\result_macros.h
;	COMDAT ?FromResult@ResultStatus@details@wil@@SA?AU123@J@Z
_TEXT	SEGMENT
__$ReturnAddress$ = 48
_hr$ = 56
?FromResult@ResultStatus@details@wil@@SA?AU123@J@Z PROC	; wil::details::ResultStatus::FromResult, COMDAT

; 1937 :         {

$LN4:
	sub	rsp, 40					; 00000028H
	mov	r9, rcx

; 1938 :             return {_hr, wil::details::HrToNtStatus(_hr), Kind::HResult};

	mov	DWORD PTR [rcx], edx
	mov	ecx, edx
	call	?HrToNtStatus@details@wil@@YAJJ@Z	; wil::details::HrToNtStatus
	mov	DWORD PTR [r9+4], eax
	mov	rax, r9
	mov	DWORD PTR [r9+8], 0

; 1939 :         }

	add	rsp, 40					; 00000028H
	ret	0
?FromResult@ResultStatus@details@wil@@SA?AU123@J@Z ENDP	; wil::details::ResultStatus::FromResult
_TEXT	ENDS
; Function compile flags: /Ogtpy
; File G:\Github\microsoft\low-latency-audio\src\uac2-asio\packages\Microsoft.Windows.ImplementationLibrary.1.0.250325.1\include\wil\result_macros.h
;	COMDAT ?FromFailureInfo@ResultStatus@details@wil@@SA?AU123@AEBUFailureInfo@3@@Z
_TEXT	SEGMENT
__$ReturnAddress$ = 8
_failure$ = 16
?FromFailureInfo@ResultStatus@details@wil@@SA?AU123@AEBUFailureInfo@3@@Z PROC ; wil::details::ResultStatus::FromFailureInfo, COMDAT

; 1946 :             return {_failure.hr, _failure.status, WI_IsFlagSet(_failure.flags, FailureFlags::NtStatus) ? Kind::NtStatus : Kind::HResult};

	mov	eax, DWORD PTR [rdx+8]
	mov	DWORD PTR [rcx], eax
	mov	eax, DWORD PTR [rdx+12]
	mov	DWORD PTR [rcx+4], eax
	mov	eax, DWORD PTR [rdx+4]
	shr	eax, 3
	and	eax, 1
	mov	DWORD PTR [rcx+8], eax
	mov	rax, rcx

; 1947 :         }

	ret	0
?FromFailureInfo@ResultStatus@details@wil@@SA?AU123@AEBUFailureInfo@3@@Z ENDP ; wil::details::ResultStatus::FromFailureInfo
_TEXT	ENDS
; Function compile flags: /Ogtpy
; File G:\Github\microsoft\low-latency-audio\src\uac2-asio\packages\Microsoft.Windows.ImplementationLibrary.1.0.250325.1\include\wil\result_macros.h
;	COMDAT ??0shared_buffer@details@wil@@QEAA@XZ
_TEXT	SEGMENT
this$ = 8
??0shared_buffer@details@wil@@QEAA@XZ PROC		; wil::details::shared_buffer::shared_buffer, COMDAT

; 2249 :         shared_buffer() WI_NOEXCEPT : m_pCopy(nullptr), m_size(0)

	xor	eax, eax
	mov	QWORD PTR [rcx], rax
	mov	QWORD PTR [rcx+8], rax

; 2251 :         }

	mov	rax, rcx
	ret	0
??0shared_buffer@details@wil@@QEAA@XZ ENDP		; wil::details::shared_buffer::shared_buffer
_TEXT	ENDS
; Function compile flags: /Ogtpy
; File G:\Github\microsoft\low-latency-audio\src\uac2-asio\packages\Microsoft.Windows.ImplementationLibrary.1.0.250325.1\include\wil\result_macros.h
;	COMDAT ??0shared_buffer@details@wil@@QEAA@AEBV012@@Z
_TEXT	SEGMENT
this$ = 8
other$ = 16
??0shared_buffer@details@wil@@QEAA@AEBV012@@Z PROC	; wil::details::shared_buffer::shared_buffer, COMDAT

; 2253 :         shared_buffer(shared_buffer const& other) WI_NOEXCEPT : m_pCopy(nullptr), m_size(0)

	xor	eax, eax
	mov	QWORD PTR [rcx], rax
	mov	QWORD PTR [rcx+8], rax

; 2255 :             assign(other.m_pCopy, other.m_size);

	mov	rax, QWORD PTR [rdx]
	mov	r8, QWORD PTR [rdx+8]

; 2363 :             if (pCopy != nullptr)

	test	rax, rax
	je	SHORT $LN13@shared_buf

; 2364 :             {
; 2365 :                 m_pCopy = pCopy;

	mov	QWORD PTR [rcx], rax

; 2366 :                 m_size = cbSize;

	mov	QWORD PTR [rcx+8], r8

; 2367 :                 ::InterlockedIncrementNoFence(m_pCopy);

	lock inc DWORD PTR [rax]
$LN13@shared_buf:

; 2256 :         }

	mov	rax, rcx
	ret	0
??0shared_buffer@details@wil@@QEAA@AEBV012@@Z ENDP	; wil::details::shared_buffer::shared_buffer
_TEXT	ENDS
; Function compile flags: /Ogtpy
; File G:\Github\microsoft\low-latency-audio\src\uac2-asio\packages\Microsoft.Windows.ImplementationLibrary.1.0.250325.1\include\wil\result_macros.h
;	COMDAT ??1shared_buffer@details@wil@@QEAA@XZ
_TEXT	SEGMENT
this$ = 48
??1shared_buffer@details@wil@@QEAA@XZ PROC		; wil::details::shared_buffer::~shared_buffer, COMDAT

; 2265 :         {

$LN13:
	push	rdi
	sub	rsp, 32					; 00000020H
	mov	rdi, rcx

; 2293 :             if (m_pCopy != nullptr)

	mov	rcx, QWORD PTR [rcx]
	test	rcx, rcx
	je	SHORT $LN5@shared_buf

; 2294 :             {
; 2295 :                 if (0 == ::InterlockedDecrementRelease(m_pCopy))

	mov	eax, -1
	lock xadd DWORD PTR [rcx], eax
	cmp	eax, 1
	jne	SHORT $LN6@shared_buf
	mov	QWORD PTR [rsp+48], rbx

; 2296 :                 {
; 2297 :                     WIL_FreeMemory(m_pCopy);

	mov	rbx, QWORD PTR [rdi]
	call	QWORD PTR __imp_GetProcessHeap
	mov	r8, rbx
	xor	edx, edx
	mov	rcx, rax
	call	QWORD PTR __imp_HeapFree
	mov	rbx, QWORD PTR [rsp+48]
$LN6@shared_buf:

; 2298 :                 }
; 2299 :                 m_pCopy = nullptr;

	xor	eax, eax
	mov	QWORD PTR [rdi], rax

; 2300 :                 m_size = 0;

	mov	QWORD PTR [rdi+8], rax
$LN5@shared_buf:

; 2266 :             reset();
; 2267 :         }

	add	rsp, 32					; 00000020H
	pop	rdi
	ret	0
??1shared_buffer@details@wil@@QEAA@XZ ENDP		; wil::details::shared_buffer::~shared_buffer
_TEXT	ENDS
; Function compile flags: /Ogtpy
; File G:\Github\microsoft\low-latency-audio\src\uac2-asio\packages\Microsoft.Windows.ImplementationLibrary.1.0.250325.1\include\wil\result_macros.h
;	COMDAT ?reset@shared_buffer@details@wil@@QEAAXXZ
_TEXT	SEGMENT
this$ = 48
?reset@shared_buffer@details@wil@@QEAAXXZ PROC		; wil::details::shared_buffer::reset, COMDAT

; 2292 :         {

$LN10:
	push	rdi
	sub	rsp, 32					; 00000020H
	mov	rdi, rcx

; 2293 :             if (m_pCopy != nullptr)

	mov	rcx, QWORD PTR [rcx]
	test	rcx, rcx
	je	SHORT $LN2@reset

; 2294 :             {
; 2295 :                 if (0 == ::InterlockedDecrementRelease(m_pCopy))

	mov	eax, -1
	lock xadd DWORD PTR [rcx], eax
	cmp	eax, 1
	jne	SHORT $LN3@reset
	mov	QWORD PTR [rsp+48], rbx

; 2296 :                 {
; 2297 :                     WIL_FreeMemory(m_pCopy);

	mov	rbx, QWORD PTR [rdi]
	call	QWORD PTR __imp_GetProcessHeap
	mov	r8, rbx
	xor	edx, edx
	mov	rcx, rax
	call	QWORD PTR __imp_HeapFree
	mov	rbx, QWORD PTR [rsp+48]
$LN3@reset:

; 2298 :                 }
; 2299 :                 m_pCopy = nullptr;

	xor	eax, eax
	mov	QWORD PTR [rdi], rax

; 2300 :                 m_size = 0;

	mov	QWORD PTR [rdi+8], rax
$LN2@reset:

; 2301 :             }
; 2302 :         }

	add	rsp, 32					; 00000020H
	pop	rdi
	ret	0
?reset@shared_buffer@details@wil@@QEAAXXZ ENDP		; wil::details::shared_buffer::reset
_TEXT	ENDS
; Function compile flags: /Ogtpy
; File G:\Github\microsoft\low-latency-audio\src\uac2-asio\packages\Microsoft.Windows.ImplementationLibrary.1.0.250325.1\include\wil\result_macros.h
;	COMDAT ?create@shared_buffer@details@wil@@QEAA_NPEBX_K@Z
_TEXT	SEGMENT
this$ = 48
pData$dead$ = 56
cbData$ = 64
?create@shared_buffer@details@wil@@QEAA_NPEBX_K@Z PROC	; wil::details::shared_buffer::create, COMDAT

; 2305 :         {

$LN39:
	mov	QWORD PTR [rsp+16], rbx
	mov	QWORD PTR [rsp+24], rbp
	push	rdi
	sub	rsp, 32					; 00000020H
	mov	rbp, r8
	mov	rdi, rcx

; 2306 :             if (cbData == 0)

	test	r8, r8
	jne	SHORT $LN2@create

; 2293 :             if (m_pCopy != nullptr)

	mov	rcx, QWORD PTR [rcx]
	test	rcx, rcx
	je	SHORT $LN8@create

; 2294 :             {
; 2295 :                 if (0 == ::InterlockedDecrementRelease(m_pCopy))

	mov	eax, -1
	lock xadd DWORD PTR [rcx], eax
	cmp	eax, 1
	jne	SHORT $LN9@create

; 2296 :                 {
; 2297 :                     WIL_FreeMemory(m_pCopy);

	mov	rbx, QWORD PTR [rdi]
	call	QWORD PTR __imp_GetProcessHeap
	mov	r8, rbx
	xor	edx, edx
	mov	rcx, rax
	call	QWORD PTR __imp_HeapFree
$LN9@create:

; 2298 :                 }
; 2299 :                 m_pCopy = nullptr;

	mov	QWORD PTR [rdi], 0

; 2300 :                 m_size = 0;

	mov	QWORD PTR [rdi+8], 0
$LN8@create:

; 2307 :             {
; 2308 :                 reset();
; 2309 :                 return true;

	mov	al, 1

; 2325 :         }

	mov	rbx, QWORD PTR [rsp+56]
	mov	rbp, QWORD PTR [rsp+64]
	add	rsp, 32					; 00000020H
	pop	rdi
	ret	0
$LN2@create:
	mov	QWORD PTR [rsp+48], r14

; 2310 :             }
; 2311 : 
; 2312 :             long* pCopyRefCount = reinterpret_cast<long*>(WIL_AllocateMemory(sizeof(long) + cbData));

	call	QWORD PTR __imp_GetProcessHeap
	lea	r8, QWORD PTR [rbp+4]
	xor	edx, edx
	mov	rcx, rax
	call	QWORD PTR __imp_HeapAlloc
	mov	r14, rax

; 2313 :             if (pCopyRefCount == nullptr)

	test	rax, rax
	je	SHORT $LN36@create

; 2314 :             {
; 2315 :                 return false;
; 2316 :             }
; 2317 : 
; 2318 :             *pCopyRefCount = 0;

	mov	DWORD PTR [rax], 0

; 2293 :             if (m_pCopy != nullptr)

	mov	rcx, QWORD PTR [rdi]
	test	rcx, rcx
	je	SHORT $LN29@create

; 2294 :             {
; 2295 :                 if (0 == ::InterlockedDecrementRelease(m_pCopy))

	mov	eax, -1
	lock xadd DWORD PTR [rcx], eax
	cmp	eax, 1
	jne	SHORT $LN26@create

; 2296 :                 {
; 2297 :                     WIL_FreeMemory(m_pCopy);

	mov	rbx, QWORD PTR [rdi]
	call	QWORD PTR __imp_GetProcessHeap
	mov	r8, rbx
	xor	edx, edx
	mov	rcx, rax
	call	QWORD PTR __imp_HeapFree
$LN26@create:

; 2300 :                 m_size = 0;

	mov	QWORD PTR [rdi+8], 0
$LN29@create:

; 2365 :                 m_pCopy = pCopy;

	mov	QWORD PTR [rdi], r14

; 2366 :                 m_size = cbSize;

	mov	QWORD PTR [rdi+8], rbp

; 2367 :                 ::InterlockedIncrementNoFence(m_pCopy);

	lock inc DWORD PTR [r14]

; 2319 :             if (pData != nullptr)
; 2320 :             {
; 2321 :                 memcpy_s(pCopyRefCount + 1, cbData, pData, cbData); // +1 to advance past sizeof(long) counter
; 2322 :             }
; 2323 :             assign(pCopyRefCount, cbData);
; 2324 :             return true;

	mov	al, 1
$LN36@create:
	mov	r14, QWORD PTR [rsp+48]

; 2325 :         }

	mov	rbx, QWORD PTR [rsp+56]
	mov	rbp, QWORD PTR [rsp+64]
	add	rsp, 32					; 00000020H
	pop	rdi
	ret	0
?create@shared_buffer@details@wil@@QEAA_NPEBX_K@Z ENDP	; wil::details::shared_buffer::create
_TEXT	ENDS
; Function compile flags: /Ogtpy
; File G:\Github\microsoft\low-latency-audio\src\uac2-asio\packages\Microsoft.Windows.ImplementationLibrary.1.0.250325.1\include\wil\result_macros.h
;	COMDAT ?create@shared_buffer@details@wil@@QEAA_N_K@Z
_TEXT	SEGMENT
this$ = 48
cbData$ = 56
?create@shared_buffer@details@wil@@QEAA_N_K@Z PROC	; wil::details::shared_buffer::create, COMDAT

; 2328 :         {

$LN42:
	mov	QWORD PTR [rsp+16], rbx
	mov	QWORD PTR [rsp+24], rbp
	push	rdi
	sub	rsp, 32					; 00000020H
	mov	rbp, rdx
	mov	rdi, rcx

; 2306 :             if (cbData == 0)

	test	rdx, rdx
	jne	SHORT $LN5@create

; 2293 :             if (m_pCopy != nullptr)

	mov	rcx, QWORD PTR [rcx]
	test	rcx, rcx
	je	SHORT $LN11@create

; 2294 :             {
; 2295 :                 if (0 == ::InterlockedDecrementRelease(m_pCopy))

	mov	eax, -1
	lock xadd DWORD PTR [rcx], eax
	cmp	eax, 1
	jne	SHORT $LN12@create

; 2296 :                 {
; 2297 :                     WIL_FreeMemory(m_pCopy);

	mov	rbx, QWORD PTR [rdi]
	call	QWORD PTR __imp_GetProcessHeap
	mov	r8, rbx
	xor	edx, edx
	mov	rcx, rax
	call	QWORD PTR __imp_HeapFree
$LN12@create:

; 2298 :                 }
; 2299 :                 m_pCopy = nullptr;

	mov	QWORD PTR [rdi], 0

; 2300 :                 m_size = 0;

	mov	QWORD PTR [rdi+8], 0
$LN11@create:

; 2329 :             return create(nullptr, cbData);

	mov	al, 1

; 2330 :         }

	mov	rbx, QWORD PTR [rsp+56]
	mov	rbp, QWORD PTR [rsp+64]
	add	rsp, 32					; 00000020H
	pop	rdi
	ret	0
$LN5@create:
	mov	QWORD PTR [rsp+48], r14

; 2312 :             long* pCopyRefCount = reinterpret_cast<long*>(WIL_AllocateMemory(sizeof(long) + cbData));

	call	QWORD PTR __imp_GetProcessHeap
	lea	r8, QWORD PTR [rbp+4]
	xor	edx, edx
	mov	rcx, rax
	call	QWORD PTR __imp_HeapAlloc
	mov	r14, rax

; 2313 :             if (pCopyRefCount == nullptr)

	test	rax, rax
	je	SHORT $LN39@create

; 2314 :             {
; 2315 :                 return false;
; 2316 :             }
; 2317 : 
; 2318 :             *pCopyRefCount = 0;

	mov	DWORD PTR [rax], 0

; 2293 :             if (m_pCopy != nullptr)

	mov	rcx, QWORD PTR [rdi]
	test	rcx, rcx
	je	SHORT $LN32@create

; 2294 :             {
; 2295 :                 if (0 == ::InterlockedDecrementRelease(m_pCopy))

	mov	eax, -1
	lock xadd DWORD PTR [rcx], eax
	cmp	eax, 1
	jne	SHORT $LN29@create

; 2296 :                 {
; 2297 :                     WIL_FreeMemory(m_pCopy);

	mov	rbx, QWORD PTR [rdi]
	call	QWORD PTR __imp_GetProcessHeap
	mov	r8, rbx
	xor	edx, edx
	mov	rcx, rax
	call	QWORD PTR __imp_HeapFree
$LN29@create:

; 2300 :                 m_size = 0;

	mov	QWORD PTR [rdi+8], 0
$LN32@create:

; 2365 :                 m_pCopy = pCopy;

	mov	QWORD PTR [rdi], r14

; 2366 :                 m_size = cbSize;

	mov	QWORD PTR [rdi+8], rbp

; 2367 :                 ::InterlockedIncrementNoFence(m_pCopy);

	lock inc DWORD PTR [r14]

; 2329 :             return create(nullptr, cbData);

	mov	al, 1
$LN39@create:
	mov	r14, QWORD PTR [rsp+48]

; 2330 :         }

	mov	rbx, QWORD PTR [rsp+56]
	mov	rbp, QWORD PTR [rsp+64]
	add	rsp, 32					; 00000020H
	pop	rdi
	ret	0
?create@shared_buffer@details@wil@@QEAA_N_K@Z ENDP	; wil::details::shared_buffer::create
_TEXT	ENDS
; Function compile flags: /Ogtpy
; File G:\Github\microsoft\low-latency-audio\src\uac2-asio\packages\Microsoft.Windows.ImplementationLibrary.1.0.250325.1\include\wil\result_macros.h
;	COMDAT ?get@shared_buffer@details@wil@@QEBAPEAXPEA_K@Z
_TEXT	SEGMENT
this$ = 8
pSize$ = 16
?get@shared_buffer@details@wil@@QEBAPEAXPEA_K@Z PROC	; wil::details::shared_buffer::get, COMDAT

; 2334 :             if (pSize != nullptr)

	test	rdx, rdx
	je	SHORT $LN2@get

; 2335 :             {
; 2336 :                 *pSize = m_size;

	mov	rax, QWORD PTR [rcx+8]
	mov	QWORD PTR [rdx], rax
$LN2@get:

; 2337 :             }
; 2338 :             return (m_pCopy == nullptr) ? nullptr : (m_pCopy + 1);

	mov	rdx, QWORD PTR [rcx]
	xor	eax, eax
	test	rdx, rdx
	lea	rcx, QWORD PTR [rdx+4]
	cmovne	rax, rcx

; 2339 :         }

	ret	0
?get@shared_buffer@details@wil@@QEBAPEAXPEA_K@Z ENDP	; wil::details::shared_buffer::get
_TEXT	ENDS
; Function compile flags: /Ogtpy
; File G:\Github\microsoft\low-latency-audio\src\uac2-asio\packages\Microsoft.Windows.ImplementationLibrary.1.0.250325.1\include\wil\result_macros.h
;	COMDAT ?size@shared_buffer@details@wil@@QEBA_KXZ
_TEXT	SEGMENT
this$ = 8
?size@shared_buffer@details@wil@@QEBA_KXZ PROC		; wil::details::shared_buffer::size, COMDAT

; 2343 :             return m_size;

	mov	rax, QWORD PTR [rcx+8]

; 2344 :         }

	ret	0
?size@shared_buffer@details@wil@@QEBA_KXZ ENDP		; wil::details::shared_buffer::size
_TEXT	ENDS
; Function compile flags: /Ogtpy
; File G:\Github\microsoft\low-latency-audio\src\uac2-asio\packages\Microsoft.Windows.ImplementationLibrary.1.0.250325.1\include\wil\result_macros.h
;	COMDAT ??Bshared_buffer@details@wil@@QEBA_NXZ
_TEXT	SEGMENT
this$ = 8
??Bshared_buffer@details@wil@@QEBA_NXZ PROC		; wil::details::shared_buffer::operator bool, COMDAT

; 2348 :             return (m_pCopy != nullptr);

	cmp	QWORD PTR [rcx], 0
	setne	al

; 2349 :         }

	ret	0
??Bshared_buffer@details@wil@@QEBA_NXZ ENDP		; wil::details::shared_buffer::operator bool
_TEXT	ENDS
; Function compile flags: /Ogtpy
; File G:\Github\microsoft\low-latency-audio\src\uac2-asio\packages\Microsoft.Windows.ImplementationLibrary.1.0.250325.1\include\wil\result_macros.h
;	COMDAT ?unique@shared_buffer@details@wil@@QEBA_NXZ
_TEXT	SEGMENT
this$ = 8
?unique@shared_buffer@details@wil@@QEBA_NXZ PROC	; wil::details::shared_buffer::unique, COMDAT

; 2353 :             return ((m_pCopy != nullptr) && (*m_pCopy == 1));

	mov	rax, QWORD PTR [rcx]
	test	rax, rax
	je	SHORT $LN3@unique
	cmp	DWORD PTR [rax], 1
	jne	SHORT $LN3@unique
	mov	al, 1

; 2354 :         }

	ret	0
$LN3@unique:

; 2353 :             return ((m_pCopy != nullptr) && (*m_pCopy == 1));

	xor	al, al

; 2354 :         }

	ret	0
?unique@shared_buffer@details@wil@@QEBA_NXZ ENDP	; wil::details::shared_buffer::unique
_TEXT	ENDS
; Function compile flags: /Ogtpy
; File G:\Github\microsoft\low-latency-audio\src\uac2-asio\packages\Microsoft.Windows.ImplementationLibrary.1.0.250325.1\include\wil\result_macros.h
;	COMDAT ?assign@shared_buffer@details@wil@@AEAAXPEAJ_K@Z
_TEXT	SEGMENT
this$ = 48
pCopy$ = 56
cbSize$ = 64
?assign@shared_buffer@details@wil@@AEAAXPEAJ_K@Z PROC	; wil::details::shared_buffer::assign, COMDAT

; 2361 :         {

$LN16:
	mov	QWORD PTR [rsp+16], rbp
	mov	QWORD PTR [rsp+24], rsi
	push	rdi
	sub	rsp, 32					; 00000020H
	mov	rdi, rcx
	mov	rbp, r8

; 2293 :             if (m_pCopy != nullptr)

	mov	rcx, QWORD PTR [rcx]

; 2361 :         {

	mov	rsi, rdx

; 2293 :             if (m_pCopy != nullptr)

	test	rcx, rcx
	je	SHORT $LN10@assign

; 2294 :             {
; 2295 :                 if (0 == ::InterlockedDecrementRelease(m_pCopy))

	mov	eax, -1
	lock xadd DWORD PTR [rcx], eax
	cmp	eax, 1
	jne	SHORT $LN7@assign
	mov	QWORD PTR [rsp+48], rbx

; 2296 :                 {
; 2297 :                     WIL_FreeMemory(m_pCopy);

	mov	rbx, QWORD PTR [rdi]
	call	QWORD PTR __imp_GetProcessHeap
	mov	r8, rbx
	xor	edx, edx
	mov	rcx, rax
	call	QWORD PTR __imp_HeapFree
	mov	rbx, QWORD PTR [rsp+48]
$LN7@assign:

; 2298 :                 }
; 2299 :                 m_pCopy = nullptr;

	xor	eax, eax
	mov	QWORD PTR [rdi], rax

; 2300 :                 m_size = 0;

	mov	QWORD PTR [rdi+8], rax
$LN10@assign:

; 2362 :             reset();
; 2363 :             if (pCopy != nullptr)

	test	rsi, rsi
	je	SHORT $LN2@assign

; 2364 :             {
; 2365 :                 m_pCopy = pCopy;

	mov	QWORD PTR [rdi], rsi

; 2366 :                 m_size = cbSize;

	mov	QWORD PTR [rdi+8], rbp

; 2367 :                 ::InterlockedIncrementNoFence(m_pCopy);

	lock inc DWORD PTR [rsi]
$LN2@assign:

; 2368 :             }
; 2369 :         }

	mov	rbp, QWORD PTR [rsp+56]
	mov	rsi, QWORD PTR [rsp+64]
	add	rsp, 32					; 00000020H
	pop	rdi
	ret	0
?assign@shared_buffer@details@wil@@AEAAXPEAJ_K@Z ENDP	; wil::details::shared_buffer::assign
_TEXT	ENDS
; Function compile flags: /Ogtpy
; File G:\Github\microsoft\low-latency-audio\src\uac2-asio\packages\Microsoft.Windows.ImplementationLibrary.1.0.250325.1\include\wil\result_macros.h
;	COMDAT ?RecordFailFast@details@wil@@YAHJ@Z
_TEXT	SEGMENT
hr$ = 8
?RecordFailFast@details@wil@@YAHJ@Z PROC		; wil::details::RecordFailFast, COMDAT

; 2552 :         static HRESULT volatile s_hrErrorLast = S_OK;
; 2553 :         s_hrErrorLast = hr;

	mov	DWORD PTR ?s_hrErrorLast@?1??RecordFailFast@details@wil@@YAHJ@Z@4JC, ecx ; `wil::details::RecordFailFast'::`2'::s_hrErrorLast

; 2554 :         return 1;

	mov	eax, 1

; 2555 :     }

	ret	0
?RecordFailFast@details@wil@@YAHJ@Z ENDP		; wil::details::RecordFailFast
_TEXT	ENDS
; Function compile flags: /Ogtpy
; File G:\Github\microsoft\low-latency-audio\src\uac2-asio\packages\Microsoft.Windows.ImplementationLibrary.1.0.250325.1\include\wil\result_macros.h
; File G:\Github\microsoft\low-latency-audio\src\uac2-asio\packages\Microsoft.Windows.ImplementationLibrary.1.0.250325.1\include\wil\common.h
; File G:\Github\microsoft\low-latency-audio\src\uac2-asio\packages\Microsoft.Windows.ImplementationLibrary.1.0.250325.1\include\wil\result_macros.h
; File C:\Program Files (x86)\Windows Kits\10\Include\10.0.26100.0\shared\strsafe.h
; File G:\Github\microsoft\low-latency-audio\src\uac2-asio\packages\Microsoft.Windows.ImplementationLibrary.1.0.250325.1\include\wil\result_macros.h
;	COMDAT ?K32GetModuleInformation@details@wil@@YA_NPEAXPEAIPEAD_K@Z
_TEXT	SEGMENT
hModule$ = 32
modulePath$3 = 48
__$ArrayPad$ = 320
address$ = 384
addressOffset$ = 392
name$ = 400
size$ = 408
?K32GetModuleInformation@details@wil@@YA_NPEAXPEAIPEAD_K@Z PROC ; wil::details::K32GetModuleInformation, COMDAT

; 2573 :     {

$LN61:
	push	rbx
	push	rbp
	push	rsi
	push	rdi
	push	r14
	sub	rsp, 336				; 00000150H
	mov	rax, QWORD PTR __security_cookie
	xor	rax, rsp
	mov	QWORD PTR __$ArrayPad$[rsp], rax

; 2574 :         HMODULE hModule = nullptr;

	xor	ebp, ebp
	mov	r14, rcx
	mov	ecx, ebp
	mov	rdi, r9
	mov	QWORD PTR hModule$[rsp], rcx
	mov	rbx, r8
	mov	rsi, rdx

; 2575 :         if (address && !GetModuleHandleExW(

	test	r14, r14
	je	SHORT $LN4@K32GetModu
	lea	r8, QWORD PTR hModule$[rsp]
	mov	rdx, r14
	mov	ecx, 6
	call	QWORD PTR __imp_GetModuleHandleExW
	test	eax, eax
	jne	SHORT $LN44@K32GetModu
; File G:\Github\microsoft\low-latency-audio\src\uac2-asio\packages\Microsoft.Windows.ImplementationLibrary.1.0.250325.1\include\wil\common.h

; 645  :     if (outParam != nullptr)

	test	rsi, rsi
	je	SHORT $LN41@K32GetModu

; 646  :     {
; 647  :         *outParam = val;

	mov	DWORD PTR [rsi], ebp
; File G:\Github\microsoft\low-latency-audio\src\uac2-asio\packages\Microsoft.Windows.ImplementationLibrary.1.0.250325.1\include\wil\result_macros.h

; 2594 :                 return false;

	jmp	$LN1@K32GetModu
$LN44@K32GetModu:

; 2575 :         if (address && !GetModuleHandleExW(

	mov	rcx, QWORD PTR hModule$[rsp]
$LN4@K32GetModu:

; 2576 :                            GET_MODULE_HANDLE_EX_FLAG_FROM_ADDRESS | GET_MODULE_HANDLE_EX_FLAG_UNCHANGED_REFCOUNT,
; 2577 :                            reinterpret_cast<PCWSTR>(address),
; 2578 :                            &hModule))
; 2579 :         {
; 2580 :             assign_to_opt_param(addressOffset, 0U);
; 2581 :             return false;
; 2582 :         }
; 2583 :         if (addressOffset)

	test	rsi, rsi
	je	SHORT $LN5@K32GetModu

; 2584 :         {
; 2585 :             *addressOffset =

	mov	eax, r14d
	sub	eax, ecx
	test	r14, r14
	cmovne	ebp, eax
	mov	DWORD PTR [rsi], ebp
$LN5@K32GetModu:

; 2586 :                 address ? static_cast<unsigned int>(static_cast<unsigned char*>(address) - reinterpret_cast<unsigned char*>(hModule))
; 2587 :                         : 0;
; 2588 :         }
; 2589 :         if (name)

	test	rbx, rbx
	je	$LN18@K32GetModu

; 2590 :         {
; 2591 :             char modulePath[MAX_PATH];
; 2592 :             if (!GetModuleFileNameA(hModule, modulePath, ARRAYSIZE(modulePath)))

	mov	r8d, 260				; 00000104H
	lea	rdx, QWORD PTR modulePath$3[rsp]
	call	QWORD PTR __imp_GetModuleFileNameA
	test	eax, eax
	jne	SHORT $LN7@K32GetModu
$LN41@K32GetModu:

; 2594 :                 return false;

	xor	al, al
	jmp	$LN1@K32GetModu
$LN7@K32GetModu:

; 2595 :             }
; 2596 : 
; 2597 :             PCSTR start = modulePath + strlen(modulePath);

	lea	rcx, QWORD PTR modulePath$3[rsp]
	mov	rax, -1
$LL43@K32GetModu:
	inc	rax
	cmp	BYTE PTR [rcx+rax], 0
	jne	SHORT $LL43@K32GetModu
	lea	rcx, QWORD PTR modulePath$3[rsp]
	add	rcx, rax

; 2598 :             while ((start > modulePath) && (*(start - 1) != '\\'))

	lea	rax, QWORD PTR modulePath$3[rsp]
	cmp	rcx, rax
	jbe	SHORT $LN45@K32GetModu
$LL2@K32GetModu:
	cmp	BYTE PTR [rcx-1], 92			; 0000005cH
	je	SHORT $LN45@K32GetModu

; 2599 :             {
; 2600 :                 start--;

	dec	rcx
	lea	rax, QWORD PTR modulePath$3[rsp]
	cmp	rcx, rax
	ja	SHORT $LL2@K32GetModu
$LN45@K32GetModu:
; File C:\Program Files (x86)\Windows Kits\10\Include\10.0.26100.0\shared\strsafe.h

; 9669 :     if ((cchDest == 0) || (cchDest > cchMax))

	test	rdi, rdi
	je	SHORT $LN18@K32GetModu
	cmp	rdi, 2147483647				; 7fffffffH
	jbe	SHORT $LN40@K32GetModu

; 557  :         *pszDest = '\0';

	mov	BYTE PTR [rbx], 0
	jmp	SHORT $LN18@K32GetModu
$LN40@K32GetModu:

; 549  :         hr = StringCopyWorkerA(pszDest,

	mov	edx, 2147483646				; 7ffffffeH
	sub	rdx, rdi
	sub	rcx, rbx
$LL25@K32GetModu:

; 9916 :     while (cchDest && cchToCopy && (*pszSrc != '\0'))

	lea	rax, QWORD PTR [rdx+rdi]
	test	rax, rax
	je	SHORT $LN26@K32GetModu
	movzx	eax, BYTE PTR [rcx+rbx]
	test	al, al
	je	SHORT $LN26@K32GetModu

; 9917 :     {
; 9918 :         *pszDest++ = *pszSrc++;

	mov	BYTE PTR [rbx], al
	inc	rbx

; 9919 :         cchDest--;

	sub	rdi, 1
	jne	SHORT $LL25@K32GetModu
$LN26@K32GetModu:

; 9920 :         cchToCopy--;
; 9921 : 
; 9922 :         cchNewDestLength++;
; 9923 :     }
; 9924 : 
; 9925 :     if (cchDest == 0)
; 9926 :     {
; 9927 :         // we are going to truncate pszDest
; 9928 :         pszDest--;
; 9929 :         cchNewDestLength--;
; 9930 : 
; 9931 :         hr = STRSAFE_E_INSUFFICIENT_BUFFER;
; 9932 :     }
; 9933 : 
; 9934 :     *pszDest = '\0';

	test	rdi, rdi
	lea	rax, QWORD PTR [rbx-1]
	cmovne	rax, rbx
	mov	BYTE PTR [rax], 0
$LN18@K32GetModu:
; File G:\Github\microsoft\low-latency-audio\src\uac2-asio\packages\Microsoft.Windows.ImplementationLibrary.1.0.250325.1\include\wil\result_macros.h

; 2604 :         return true;

	mov	al, 1
$LN1@K32GetModu:

; 2605 :     }

	mov	rcx, QWORD PTR __$ArrayPad$[rsp]
	xor	rcx, rsp
	call	__security_check_cookie
	add	rsp, 336				; 00000150H
	pop	r14
	pop	rdi
	pop	rsi
	pop	rbp
	pop	rbx
	ret	0
?K32GetModuleInformation@details@wil@@YA_NPEAXPEAIPEAD_K@Z ENDP ; wil::details::K32GetModuleInformation
_TEXT	ENDS
; Function compile flags: /Ogtpy
; File G:\Github\microsoft\low-latency-audio\src\uac2-asio\packages\Microsoft.Windows.ImplementationLibrary.1.0.250325.1\include\wil\result_macros.h
; File C:\Program Files (x86)\Windows Kits\10\Include\10.0.26100.0\shared\strsafe.h
; File G:\Github\microsoft\low-latency-audio\src\uac2-asio\packages\Microsoft.Windows.ImplementationLibrary.1.0.250325.1\include\wil\result_macros.h
;	COMDAT ?GetCurrentModuleName@details@wil@@YAPEBDXZ
_TEXT	SEGMENT
hModule$3 = 32
modulePath$4 = 48
__$ArrayPad$ = 320
?GetCurrentModuleName@details@wil@@YAPEBDXZ PROC	; wil::details::GetCurrentModuleName, COMDAT

; 2610 :     {

$LN58:
	push	rbx
	sub	rsp, 336				; 00000150H
	mov	rax, QWORD PTR __security_cookie
	xor	rax, rsp
	mov	QWORD PTR __$ArrayPad$[rsp], rax

; 2611 :         static char s_szModule[64] = {};
; 2612 :         static volatile bool s_fModuleValid = false;
; 2613 :         if (!s_fModuleValid) // Races are acceptable

	movzx	eax, BYTE PTR ?s_fModuleValid@?1??GetCurrentModuleName@details@wil@@YAPEBDXZ@4_NC ; `wil::details::GetCurrentModuleName'::`2'::s_fModuleValid
	test	al, al
	jne	$LN45@GetCurrent

; 2575 :         if (address && !GetModuleHandleExW(

	lea	r8, QWORD PTR hModule$3[rsp]
	mov	QWORD PTR hModule$3[rsp], 0
	lea	rdx, OFFSET FLAT:?RecordFailFast@details@wil@@YAHJ@Z ; wil::details::RecordFailFast
	mov	ecx, 6
	call	QWORD PTR __imp_GetModuleHandleExW
	lea	rbx, OFFSET FLAT:?s_szModule@?1??GetCurrentModuleName@details@wil@@YAPEBDXZ@4PADA ; `wil::details::GetCurrentModuleName'::`2'::s_szModule
	test	eax, eax
	je	$LN22@GetCurrent

; 2576 :                            GET_MODULE_HANDLE_EX_FLAG_FROM_ADDRESS | GET_MODULE_HANDLE_EX_FLAG_UNCHANGED_REFCOUNT,
; 2577 :                            reinterpret_cast<PCWSTR>(address),
; 2578 :                            &hModule))
; 2579 :         {
; 2580 :             assign_to_opt_param(addressOffset, 0U);
; 2581 :             return false;
; 2582 :         }
; 2583 :         if (addressOffset)
; 2584 :         {
; 2585 :             *addressOffset =
; 2586 :                 address ? static_cast<unsigned int>(static_cast<unsigned char*>(address) - reinterpret_cast<unsigned char*>(hModule))
; 2587 :                         : 0;
; 2588 :         }
; 2589 :         if (name)
; 2590 :         {
; 2591 :             char modulePath[MAX_PATH];
; 2592 :             if (!GetModuleFileNameA(hModule, modulePath, ARRAYSIZE(modulePath)))

	mov	rcx, QWORD PTR hModule$3[rsp]
	lea	rdx, QWORD PTR modulePath$4[rsp]
	mov	r8d, 260				; 00000104H
	call	QWORD PTR __imp_GetModuleFileNameA
	test	eax, eax
	je	SHORT $LN22@GetCurrent

; 2593 :             {
; 2594 :                 return false;
; 2595 :             }
; 2596 : 
; 2597 :             PCSTR start = modulePath + strlen(modulePath);

	lea	rcx, QWORD PTR modulePath$4[rsp]
	mov	rax, -1
	npad	1
$LL44@GetCurrent:
	inc	rax
	cmp	BYTE PTR [rcx+rax], 0
	jne	SHORT $LL44@GetCurrent
	lea	rcx, QWORD PTR modulePath$4[rsp]
	add	rcx, rax

; 2598 :             while ((start > modulePath) && (*(start - 1) != '\\'))

	lea	rax, QWORD PTR modulePath$4[rsp]
	cmp	rcx, rax
	jbe	SHORT $LN46@GetCurrent
	npad	5
$LL6@GetCurrent:
	cmp	BYTE PTR [rcx-1], 92			; 0000005cH
	je	SHORT $LN46@GetCurrent

; 2599 :             {
; 2600 :                 start--;

	dec	rcx
	lea	rax, QWORD PTR modulePath$4[rsp]
	cmp	rcx, rax
	ja	SHORT $LL6@GetCurrent
$LN46@GetCurrent:
; File C:\Program Files (x86)\Windows Kits\10\Include\10.0.26100.0\shared\strsafe.h

; 549  :         hr = StringCopyWorkerA(pszDest,

	mov	r8d, 64					; 00000040H
	mov	rdx, rbx
	sub	rcx, rbx
	npad	1
$LL29@GetCurrent:

; 9916 :     while (cchDest && cchToCopy && (*pszSrc != '\0'))

	lea	rax, QWORD PTR [r8+2147483582]
	test	rax, rax
	je	SHORT $LN30@GetCurrent
	movzx	eax, BYTE PTR [rcx+rdx]
	test	al, al
	je	SHORT $LN30@GetCurrent

; 9917 :     {
; 9918 :         *pszDest++ = *pszSrc++;

	mov	BYTE PTR [rdx], al
	inc	rdx

; 9919 :         cchDest--;

	sub	r8, 1
	jne	SHORT $LL29@GetCurrent
$LN30@GetCurrent:

; 9920 :         cchToCopy--;
; 9921 : 
; 9922 :         cchNewDestLength++;
; 9923 :     }
; 9924 : 
; 9925 :     if (cchDest == 0)
; 9926 :     {
; 9927 :         // we are going to truncate pszDest
; 9928 :         pszDest--;
; 9929 :         cchNewDestLength--;
; 9930 : 
; 9931 :         hr = STRSAFE_E_INSUFFICIENT_BUFFER;
; 9932 :     }
; 9933 : 
; 9934 :     *pszDest = '\0';

	test	r8, r8
	lea	rcx, QWORD PTR [rdx-1]
	cmovne	rcx, rdx
	mov	BYTE PTR [rcx], 0
$LN22@GetCurrent:
; File G:\Github\microsoft\low-latency-audio\src\uac2-asio\packages\Microsoft.Windows.ImplementationLibrary.1.0.250325.1\include\wil\result_macros.h

; 2616 :             s_fModuleValid = true;

	mov	BYTE PTR ?s_fModuleValid@?1??GetCurrentModuleName@details@wil@@YAPEBDXZ@4_NC, 1 ; `wil::details::GetCurrentModuleName'::`2'::s_fModuleValid

; 2617 :         }
; 2618 :         return s_szModule;

	mov	rax, rbx
	jmp	SHORT $LN2@GetCurrent
$LN45@GetCurrent:
	lea	rax, OFFSET FLAT:?s_szModule@?1??GetCurrentModuleName@details@wil@@YAPEBDXZ@4PADA ; `wil::details::GetCurrentModuleName'::`2'::s_szModule
$LN2@GetCurrent:

; 2619 :     }

	mov	rcx, QWORD PTR __$ArrayPad$[rsp]
	xor	rcx, rsp
	call	__security_check_cookie
	add	rsp, 336				; 00000150H
	pop	rbx
	ret	0
?GetCurrentModuleName@details@wil@@YAPEBDXZ ENDP	; wil::details::GetCurrentModuleName
_TEXT	ENDS
; Function compile flags: /Ogtpy
; File G:\Github\microsoft\low-latency-audio\src\uac2-asio\packages\Microsoft.Windows.ImplementationLibrary.1.0.250325.1\include\wil\result_macros.h
;	COMDAT ?DebugBreak@details@wil@@YAXXZ
_TEXT	SEGMENT
?DebugBreak@details@wil@@YAXXZ PROC			; wil::details::DebugBreak, COMDAT

; 2624 :         ::DebugBreak();

	rex_jmp	QWORD PTR __imp_DebugBreak
?DebugBreak@details@wil@@YAXXZ ENDP			; wil::details::DebugBreak
_TEXT	ENDS
; Function compile flags: /Ogtpy
; File G:\Github\microsoft\low-latency-audio\src\uac2-asio\packages\Microsoft.Windows.ImplementationLibrary.1.0.250325.1\include\wil\result_macros.h
;	COMDAT ?WilDynamicLoadRaiseFailFastException@details@wil@@YAXPEAU_EXCEPTION_RECORD@@PEAU_CONTEXT@@K@Z
_TEXT	SEGMENT
er$ = 48
cr$ = 56
flags$ = 64
?WilDynamicLoadRaiseFailFastException@details@wil@@YAXPEAU_EXCEPTION_RECORD@@PEAU_CONTEXT@@K@Z PROC ; wil::details::WilDynamicLoadRaiseFailFastException, COMDAT

; 2628 :     {

$LN10:
	mov	QWORD PTR [rsp+8], rbx
	mov	QWORD PTR [rsp+16], rsi
	push	rdi
	sub	rsp, 32					; 00000020H
	mov	rsi, rcx
	mov	ebx, r8d

; 2629 :         auto k32handle = GetModuleHandleW(L"kernelbase.dll");

	lea	rcx, OFFSET FLAT:??_C@_1BO@MFOKJHPK@?$AAk?$AAe?$AAr?$AAn?$AAe?$AAl?$AAb?$AAa?$AAs?$AAe?$AA?4?$AAd?$AAl?$AAl@
	mov	rdi, rdx
	call	QWORD PTR __imp_GetModuleHandleW

; 1700 :         return reinterpret_cast<FuncPtr>(reinterpret_cast<void (*)()>(::GetProcAddress(module, procName)));

	mov	rcx, rax
	lea	rdx, OFFSET FLAT:??_C@_0BH@EEDPADAA@RaiseFailFastException@
	call	QWORD PTR __imp_GetProcAddress

; 2630 :         _Analysis_assume_(k32handle != nullptr);
; 2631 :         auto pfnRaiseFailFastException =
; 2632 :             details::GetProcAddress<decltype(WilDynamicLoadRaiseFailFastException)*>(k32handle, "RaiseFailFastException");
; 2633 :         if (pfnRaiseFailFastException)

	test	rax, rax
	je	SHORT $LN2@WilDynamic

; 2634 :         {
; 2635 :             pfnRaiseFailFastException(er, cr, flags);

	mov	r8d, ebx
	mov	rdx, rdi
	mov	rcx, rsi
	call	rax
$LN2@WilDynamic:

; 2636 :         }
; 2637 :     }

	mov	rbx, QWORD PTR [rsp+48]
	mov	rsi, QWORD PTR [rsp+56]
	add	rsp, 32					; 00000020H
	pop	rdi
	ret	0
?WilDynamicLoadRaiseFailFastException@details@wil@@YAXPEAU_EXCEPTION_RECORD@@PEAU_CONTEXT@@K@Z ENDP ; wil::details::WilDynamicLoadRaiseFailFastException
_TEXT	ENDS
; Function compile flags: /Ogtpy
; File G:\Github\microsoft\low-latency-audio\src\uac2-asio\packages\Microsoft.Windows.ImplementationLibrary.1.0.250325.1\include\wil\result_macros.h
;	COMDAT ?HrToNtStatus@details@wil@@YAJJ@Z
_TEXT	SEGMENT
hr$ = 8
?HrToNtStatus@details@wil@@YAJJ@Z PROC			; wil::details::HrToNtStatus, COMDAT

; 2689 :     {

	mov	edx, ecx

; 2690 :         // Constants taken from ntstatus.h
; 2691 :         static constexpr NTSTATUS WIL_STATUS_INVALID_PARAMETER = 0xC000000D;
; 2692 :         static constexpr NTSTATUS WIL_STATUS_INTERNAL_ERROR = 0xC00000E5;
; 2693 :         static constexpr NTSTATUS WIL_STATUS_INTEGER_OVERFLOW = 0xC0000095;
; 2694 :         static constexpr NTSTATUS WIL_STATUS_OBJECT_PATH_NOT_FOUND = 0xC000003A;
; 2695 :         static constexpr NTSTATUS WIL_STATUS_OBJECT_NAME_NOT_FOUND = 0xC0000034;
; 2696 :         static constexpr NTSTATUS WIL_STATUS_NOT_IMPLEMENTED = 0xC0000002;
; 2697 :         static constexpr NTSTATUS WIL_STATUS_BUFFER_OVERFLOW = 0x80000005;
; 2698 :         static constexpr NTSTATUS WIL_STATUS_IMPLEMENTATION_LIMIT = 0xC000042B;
; 2699 :         static constexpr NTSTATUS WIL_STATUS_NO_MORE_MATCHES = 0xC0000273;
; 2700 :         static constexpr NTSTATUS WIL_STATUS_ILLEGAL_CHARACTER = 0xC0000161;
; 2701 :         static constexpr NTSTATUS WIL_STATUS_UNDEFINED_CHARACTER = 0xC0000163;
; 2702 :         static constexpr NTSTATUS WIL_STATUS_BUFFER_TOO_SMALL = 0xC0000023;
; 2703 :         static constexpr NTSTATUS WIL_STATUS_DISK_FULL = 0xC000007F;
; 2704 :         static constexpr NTSTATUS WIL_STATUS_OBJECT_NAME_INVALID = 0xC0000033;
; 2705 :         static constexpr NTSTATUS WIL_STATUS_DLL_NOT_FOUND = 0xC0000135;
; 2706 :         static constexpr NTSTATUS WIL_STATUS_REVISION_MISMATCH = 0xC0000059;
; 2707 :         static constexpr NTSTATUS WIL_STATUS_XML_PARSE_ERROR = 0xC000A083;
; 2708 :         static constexpr HRESULT WIL_E_FAIL = 0x80004005;
; 2709 : 
; 2710 :         NTSTATUS status = STATUS_SUCCESS;
; 2711 : 
; 2712 :         switch (hr)

	cmp	ecx, -2147024895			; ffffffff80070001H
	jg	SHORT $LN37@HrToNtStat
	je	SHORT $LN11@HrToNtStat
	cmp	ecx, -2147467259			; ffffffff80004005H
	jne	$LN25@HrToNtStat

; 2767 :             break;
; 2768 :         case WIL_E_FAIL:
; 2769 :             status = STATUS_UNSUCCESSFUL;

	mov	edx, -1073741823			; ffffffffc0000001H

; 2789 :                     ((NTSTATUS)(hr) <= 0 ? ((NTSTATUS)(hr))
; 2790 :                                          : ((NTSTATUS)(((hr) & 0x0000FFFF) | (FACILITY_SSPI << 16) | ERROR_SEVERITY_ERROR)));
; 2791 :             }
; 2792 :             else
; 2793 :             {
; 2794 :                 status = WIL_STATUS_INTERNAL_ERROR;
; 2795 :             }
; 2796 :             break;
; 2797 :         }
; 2798 :         return status;

	mov	eax, edx

; 2799 :     }

	ret	0
$LN11@HrToNtStat:

; 2734 :             break;
; 2735 :         case __HRESULT_FROM_WIN32(ERROR_INVALID_FUNCTION):
; 2736 :             status = WIL_STATUS_NOT_IMPLEMENTED;

	mov	edx, -1073741822			; ffffffffc0000002H

; 2789 :                     ((NTSTATUS)(hr) <= 0 ? ((NTSTATUS)(hr))
; 2790 :                                          : ((NTSTATUS)(((hr) & 0x0000FFFF) | (FACILITY_SSPI << 16) | ERROR_SEVERITY_ERROR)));
; 2791 :             }
; 2792 :             else
; 2793 :             {
; 2794 :                 status = WIL_STATUS_INTERNAL_ERROR;
; 2795 :             }
; 2796 :             break;
; 2797 :         }
; 2798 :         return status;

	mov	eax, edx

; 2799 :     }

	ret	0
$LN37@HrToNtStat:

; 2690 :         // Constants taken from ntstatus.h
; 2691 :         static constexpr NTSTATUS WIL_STATUS_INVALID_PARAMETER = 0xC000000D;
; 2692 :         static constexpr NTSTATUS WIL_STATUS_INTERNAL_ERROR = 0xC00000E5;
; 2693 :         static constexpr NTSTATUS WIL_STATUS_INTEGER_OVERFLOW = 0xC0000095;
; 2694 :         static constexpr NTSTATUS WIL_STATUS_OBJECT_PATH_NOT_FOUND = 0xC000003A;
; 2695 :         static constexpr NTSTATUS WIL_STATUS_OBJECT_NAME_NOT_FOUND = 0xC0000034;
; 2696 :         static constexpr NTSTATUS WIL_STATUS_NOT_IMPLEMENTED = 0xC0000002;
; 2697 :         static constexpr NTSTATUS WIL_STATUS_BUFFER_OVERFLOW = 0x80000005;
; 2698 :         static constexpr NTSTATUS WIL_STATUS_IMPLEMENTATION_LIMIT = 0xC000042B;
; 2699 :         static constexpr NTSTATUS WIL_STATUS_NO_MORE_MATCHES = 0xC0000273;
; 2700 :         static constexpr NTSTATUS WIL_STATUS_ILLEGAL_CHARACTER = 0xC0000161;
; 2701 :         static constexpr NTSTATUS WIL_STATUS_UNDEFINED_CHARACTER = 0xC0000163;
; 2702 :         static constexpr NTSTATUS WIL_STATUS_BUFFER_TOO_SMALL = 0xC0000023;
; 2703 :         static constexpr NTSTATUS WIL_STATUS_DISK_FULL = 0xC000007F;
; 2704 :         static constexpr NTSTATUS WIL_STATUS_OBJECT_NAME_INVALID = 0xC0000033;
; 2705 :         static constexpr NTSTATUS WIL_STATUS_DLL_NOT_FOUND = 0xC0000135;
; 2706 :         static constexpr NTSTATUS WIL_STATUS_REVISION_MISMATCH = 0xC0000059;
; 2707 :         static constexpr NTSTATUS WIL_STATUS_XML_PARSE_ERROR = 0xC000A083;
; 2708 :         static constexpr HRESULT WIL_E_FAIL = 0x80004005;
; 2709 : 
; 2710 :         NTSTATUS status = STATUS_SUCCESS;
; 2711 : 
; 2712 :         switch (hr)

	cmp	edx, -2147024362			; ffffffff80070216H
	jg	$LN38@HrToNtStat
	je	SHORT $LN8@HrToNtStat
	lea	eax, DWORD PTR [rcx+2147024894]
	cmp	eax, 232				; 000000e8H
	ja	$LN25@HrToNtStat
	lea	r8, OFFSET FLAT:__ImageBase
	cdqe
	movzx	eax, BYTE PTR $LN41@HrToNtStat[r8+rax]
	mov	ecx, DWORD PTR $LN42@HrToNtStat[r8+rax*4]
	add	rcx, r8
	jmp	rcx
$LN5@HrToNtStat:

; 2716 :             break;
; 2717 :         case E_INVALIDARG:
; 2718 :             status = WIL_STATUS_INVALID_PARAMETER;

	mov	edx, -1073741811			; ffffffffc000000dH

; 2789 :                     ((NTSTATUS)(hr) <= 0 ? ((NTSTATUS)(hr))
; 2790 :                                          : ((NTSTATUS)(((hr) & 0x0000FFFF) | (FACILITY_SSPI << 16) | ERROR_SEVERITY_ERROR)));
; 2791 :             }
; 2792 :             else
; 2793 :             {
; 2794 :                 status = WIL_STATUS_INTERNAL_ERROR;
; 2795 :             }
; 2796 :             break;
; 2797 :         }
; 2798 :         return status;

	mov	eax, edx

; 2799 :     }

	ret	0
$LN7@HrToNtStat:

; 2719 :             break;
; 2720 :         case __HRESULT_FROM_WIN32(ERROR_INTERNAL_ERROR):
; 2721 :             status = WIL_STATUS_INTERNAL_ERROR;
; 2722 :             break;
; 2723 :         case E_OUTOFMEMORY:
; 2724 :             status = STATUS_NO_MEMORY;

	mov	edx, -1073741801			; ffffffffc0000017H

; 2789 :                     ((NTSTATUS)(hr) <= 0 ? ((NTSTATUS)(hr))
; 2790 :                                          : ((NTSTATUS)(((hr) & 0x0000FFFF) | (FACILITY_SSPI << 16) | ERROR_SEVERITY_ERROR)));
; 2791 :             }
; 2792 :             else
; 2793 :             {
; 2794 :                 status = WIL_STATUS_INTERNAL_ERROR;
; 2795 :             }
; 2796 :             break;
; 2797 :         }
; 2798 :         return status;

	mov	eax, edx

; 2799 :     }

	ret	0
$LN9@HrToNtStat:

; 2728 :             break;
; 2729 :         case __HRESULT_FROM_WIN32(ERROR_PATH_NOT_FOUND):
; 2730 :             status = WIL_STATUS_OBJECT_PATH_NOT_FOUND;

	mov	edx, -1073741766			; ffffffffc000003aH

; 2789 :                     ((NTSTATUS)(hr) <= 0 ? ((NTSTATUS)(hr))
; 2790 :                                          : ((NTSTATUS)(((hr) & 0x0000FFFF) | (FACILITY_SSPI << 16) | ERROR_SEVERITY_ERROR)));
; 2791 :             }
; 2792 :             else
; 2793 :             {
; 2794 :                 status = WIL_STATUS_INTERNAL_ERROR;
; 2795 :             }
; 2796 :             break;
; 2797 :         }
; 2798 :         return status;

	mov	eax, edx

; 2799 :     }

	ret	0
$LN10@HrToNtStat:

; 2731 :             break;
; 2732 :         case __HRESULT_FROM_WIN32(ERROR_FILE_NOT_FOUND):
; 2733 :             status = WIL_STATUS_OBJECT_NAME_NOT_FOUND;

	mov	edx, -1073741772			; ffffffffc0000034H

; 2789 :                     ((NTSTATUS)(hr) <= 0 ? ((NTSTATUS)(hr))
; 2790 :                                          : ((NTSTATUS)(((hr) & 0x0000FFFF) | (FACILITY_SSPI << 16) | ERROR_SEVERITY_ERROR)));
; 2791 :             }
; 2792 :             else
; 2793 :             {
; 2794 :                 status = WIL_STATUS_INTERNAL_ERROR;
; 2795 :             }
; 2796 :             break;
; 2797 :         }
; 2798 :         return status;

	mov	eax, edx

; 2799 :     }

	ret	0
$LN12@HrToNtStat:

; 2737 :             break;
; 2738 :         case __HRESULT_FROM_WIN32(ERROR_MORE_DATA):
; 2739 :             status = WIL_STATUS_BUFFER_OVERFLOW;

	mov	edx, -2147483643			; ffffffff80000005H

; 2789 :                     ((NTSTATUS)(hr) <= 0 ? ((NTSTATUS)(hr))
; 2790 :                                          : ((NTSTATUS)(((hr) & 0x0000FFFF) | (FACILITY_SSPI << 16) | ERROR_SEVERITY_ERROR)));
; 2791 :             }
; 2792 :             else
; 2793 :             {
; 2794 :                 status = WIL_STATUS_INTERNAL_ERROR;
; 2795 :             }
; 2796 :             break;
; 2797 :         }
; 2798 :         return status;

	mov	eax, edx

; 2799 :     }

	ret	0
$LN17@HrToNtStat:

; 2752 :             break;
; 2753 :         case __HRESULT_FROM_WIN32(ERROR_INSUFFICIENT_BUFFER):
; 2754 :             status = WIL_STATUS_BUFFER_TOO_SMALL;

	mov	edx, -1073741789			; ffffffffc0000023H

; 2789 :                     ((NTSTATUS)(hr) <= 0 ? ((NTSTATUS)(hr))
; 2790 :                                          : ((NTSTATUS)(((hr) & 0x0000FFFF) | (FACILITY_SSPI << 16) | ERROR_SEVERITY_ERROR)));
; 2791 :             }
; 2792 :             else
; 2793 :             {
; 2794 :                 status = WIL_STATUS_INTERNAL_ERROR;
; 2795 :             }
; 2796 :             break;
; 2797 :         }
; 2798 :         return status;

	mov	eax, edx

; 2799 :     }

	ret	0
$LN18@HrToNtStat:

; 2755 :             break;
; 2756 :         case __HRESULT_FROM_WIN32(ERROR_DISK_FULL):
; 2757 :             status = WIL_STATUS_DISK_FULL;

	mov	edx, -1073741697			; ffffffffc000007fH

; 2789 :                     ((NTSTATUS)(hr) <= 0 ? ((NTSTATUS)(hr))
; 2790 :                                          : ((NTSTATUS)(((hr) & 0x0000FFFF) | (FACILITY_SSPI << 16) | ERROR_SEVERITY_ERROR)));
; 2791 :             }
; 2792 :             else
; 2793 :             {
; 2794 :                 status = WIL_STATUS_INTERNAL_ERROR;
; 2795 :             }
; 2796 :             break;
; 2797 :         }
; 2798 :         return status;

	mov	eax, edx

; 2799 :     }

	ret	0
$LN19@HrToNtStat:

; 2758 :             break;
; 2759 :         case __HRESULT_FROM_WIN32(ERROR_INVALID_NAME):
; 2760 :             status = WIL_STATUS_OBJECT_NAME_INVALID;

	mov	edx, -1073741773			; ffffffffc0000033H

; 2789 :                     ((NTSTATUS)(hr) <= 0 ? ((NTSTATUS)(hr))
; 2790 :                                          : ((NTSTATUS)(((hr) & 0x0000FFFF) | (FACILITY_SSPI << 16) | ERROR_SEVERITY_ERROR)));
; 2791 :             }
; 2792 :             else
; 2793 :             {
; 2794 :                 status = WIL_STATUS_INTERNAL_ERROR;
; 2795 :             }
; 2796 :             break;
; 2797 :         }
; 2798 :         return status;

	mov	eax, edx

; 2799 :     }

	ret	0
$LN20@HrToNtStat:

; 2761 :             break;
; 2762 :         case __HRESULT_FROM_WIN32(ERROR_MOD_NOT_FOUND):
; 2763 :             status = WIL_STATUS_DLL_NOT_FOUND;

	mov	edx, -1073741515			; ffffffffc0000135H

; 2789 :                     ((NTSTATUS)(hr) <= 0 ? ((NTSTATUS)(hr))
; 2790 :                                          : ((NTSTATUS)(((hr) & 0x0000FFFF) | (FACILITY_SSPI << 16) | ERROR_SEVERITY_ERROR)));
; 2791 :             }
; 2792 :             else
; 2793 :             {
; 2794 :                 status = WIL_STATUS_INTERNAL_ERROR;
; 2795 :             }
; 2796 :             break;
; 2797 :         }
; 2798 :         return status;

	mov	eax, edx

; 2799 :     }

	ret	0
$LN8@HrToNtStat:

; 2725 :             break;
; 2726 :         case __HRESULT_FROM_WIN32(ERROR_ARITHMETIC_OVERFLOW):
; 2727 :             status = WIL_STATUS_INTEGER_OVERFLOW;

	mov	edx, -1073741675			; ffffffffc0000095H

; 2789 :                     ((NTSTATUS)(hr) <= 0 ? ((NTSTATUS)(hr))
; 2790 :                                          : ((NTSTATUS)(((hr) & 0x0000FFFF) | (FACILITY_SSPI << 16) | ERROR_SEVERITY_ERROR)));
; 2791 :             }
; 2792 :             else
; 2793 :             {
; 2794 :                 status = WIL_STATUS_INTERNAL_ERROR;
; 2795 :             }
; 2796 :             break;
; 2797 :         }
; 2798 :         return status;

	mov	eax, edx

; 2799 :     }

	ret	0
$LN38@HrToNtStat:

; 2690 :         // Constants taken from ntstatus.h
; 2691 :         static constexpr NTSTATUS WIL_STATUS_INVALID_PARAMETER = 0xC000000D;
; 2692 :         static constexpr NTSTATUS WIL_STATUS_INTERNAL_ERROR = 0xC00000E5;
; 2693 :         static constexpr NTSTATUS WIL_STATUS_INTEGER_OVERFLOW = 0xC0000095;
; 2694 :         static constexpr NTSTATUS WIL_STATUS_OBJECT_PATH_NOT_FOUND = 0xC000003A;
; 2695 :         static constexpr NTSTATUS WIL_STATUS_OBJECT_NAME_NOT_FOUND = 0xC0000034;
; 2696 :         static constexpr NTSTATUS WIL_STATUS_NOT_IMPLEMENTED = 0xC0000002;
; 2697 :         static constexpr NTSTATUS WIL_STATUS_BUFFER_OVERFLOW = 0x80000005;
; 2698 :         static constexpr NTSTATUS WIL_STATUS_IMPLEMENTATION_LIMIT = 0xC000042B;
; 2699 :         static constexpr NTSTATUS WIL_STATUS_NO_MORE_MATCHES = 0xC0000273;
; 2700 :         static constexpr NTSTATUS WIL_STATUS_ILLEGAL_CHARACTER = 0xC0000161;
; 2701 :         static constexpr NTSTATUS WIL_STATUS_UNDEFINED_CHARACTER = 0xC0000163;
; 2702 :         static constexpr NTSTATUS WIL_STATUS_BUFFER_TOO_SMALL = 0xC0000023;
; 2703 :         static constexpr NTSTATUS WIL_STATUS_DISK_FULL = 0xC000007F;
; 2704 :         static constexpr NTSTATUS WIL_STATUS_OBJECT_NAME_INVALID = 0xC0000033;
; 2705 :         static constexpr NTSTATUS WIL_STATUS_DLL_NOT_FOUND = 0xC0000135;
; 2706 :         static constexpr NTSTATUS WIL_STATUS_REVISION_MISMATCH = 0xC0000059;
; 2707 :         static constexpr NTSTATUS WIL_STATUS_XML_PARSE_ERROR = 0xC000A083;
; 2708 :         static constexpr HRESULT WIL_E_FAIL = 0x80004005;
; 2709 : 
; 2710 :         NTSTATUS status = STATUS_SUCCESS;
; 2711 : 
; 2712 :         switch (hr)

	cmp	edx, -2147023746			; ffffffff8007047eH
	jg	SHORT $LN39@HrToNtStat
	je	SHORT $LN21@HrToNtStat
	cmp	edx, -2147024322			; ffffffff8007023eH
	je	SHORT $LN24@HrToNtStat
	cmp	edx, -2147024314			; ffffffff80070246H
	je	SHORT $LN15@HrToNtStat
	cmp	edx, -2147024313			; ffffffff80070247H
	je	SHORT $LN16@HrToNtStat
	cmp	edx, -2147024270			; ffffffff80070272H
	jne	SHORT $LN25@HrToNtStat

; 2743 :             break;
; 2744 :         case __HRESULT_FROM_WIN32(ERROR_NO_MORE_MATCHES):
; 2745 :             status = WIL_STATUS_NO_MORE_MATCHES;

	mov	edx, -1073741197			; ffffffffc0000273H

; 2789 :                     ((NTSTATUS)(hr) <= 0 ? ((NTSTATUS)(hr))
; 2790 :                                          : ((NTSTATUS)(((hr) & 0x0000FFFF) | (FACILITY_SSPI << 16) | ERROR_SEVERITY_ERROR)));
; 2791 :             }
; 2792 :             else
; 2793 :             {
; 2794 :                 status = WIL_STATUS_INTERNAL_ERROR;
; 2795 :             }
; 2796 :             break;
; 2797 :         }
; 2798 :         return status;

	mov	eax, edx

; 2799 :     }

	ret	0
$LN16@HrToNtStat:

; 2749 :             break;
; 2750 :         case __HRESULT_FROM_WIN32(ERROR_UNDEFINED_CHARACTER):
; 2751 :             status = WIL_STATUS_UNDEFINED_CHARACTER;

	mov	edx, -1073741469			; ffffffffc0000163H

; 2789 :                     ((NTSTATUS)(hr) <= 0 ? ((NTSTATUS)(hr))
; 2790 :                                          : ((NTSTATUS)(((hr) & 0x0000FFFF) | (FACILITY_SSPI << 16) | ERROR_SEVERITY_ERROR)));
; 2791 :             }
; 2792 :             else
; 2793 :             {
; 2794 :                 status = WIL_STATUS_INTERNAL_ERROR;
; 2795 :             }
; 2796 :             break;
; 2797 :         }
; 2798 :         return status;

	mov	eax, edx

; 2799 :     }

	ret	0
$LN15@HrToNtStat:

; 2746 :             break;
; 2747 :         case __HRESULT_FROM_WIN32(ERROR_ILLEGAL_CHARACTER):
; 2748 :             status = WIL_STATUS_ILLEGAL_CHARACTER;

	mov	edx, -1073741471			; ffffffffc0000161H

; 2789 :                     ((NTSTATUS)(hr) <= 0 ? ((NTSTATUS)(hr))
; 2790 :                                          : ((NTSTATUS)(((hr) & 0x0000FFFF) | (FACILITY_SSPI << 16) | ERROR_SEVERITY_ERROR)));
; 2791 :             }
; 2792 :             else
; 2793 :             {
; 2794 :                 status = WIL_STATUS_INTERNAL_ERROR;
; 2795 :             }
; 2796 :             break;
; 2797 :         }
; 2798 :         return status;

	mov	eax, edx

; 2799 :     }

	ret	0
$LN24@HrToNtStat:

; 2773 :             break;
; 2774 :         case __HRESULT_FROM_WIN32(ERROR_UNHANDLED_EXCEPTION):
; 2775 :             status = STATUS_NONCONTINUABLE_EXCEPTION;

	mov	edx, -1073741787			; ffffffffc0000025H

; 2789 :                     ((NTSTATUS)(hr) <= 0 ? ((NTSTATUS)(hr))
; 2790 :                                          : ((NTSTATUS)(((hr) & 0x0000FFFF) | (FACILITY_SSPI << 16) | ERROR_SEVERITY_ERROR)));
; 2791 :             }
; 2792 :             else
; 2793 :             {
; 2794 :                 status = WIL_STATUS_INTERNAL_ERROR;
; 2795 :             }
; 2796 :             break;
; 2797 :         }
; 2798 :         return status;

	mov	eax, edx

; 2799 :     }

	ret	0
$LN21@HrToNtStat:

; 2764 :             break;
; 2765 :         case __HRESULT_FROM_WIN32(ERROR_OLD_WIN_VERSION):
; 2766 :             status = WIL_STATUS_REVISION_MISMATCH;

	mov	edx, -1073741735			; ffffffffc0000059H

; 2789 :                     ((NTSTATUS)(hr) <= 0 ? ((NTSTATUS)(hr))
; 2790 :                                          : ((NTSTATUS)(((hr) & 0x0000FFFF) | (FACILITY_SSPI << 16) | ERROR_SEVERITY_ERROR)));
; 2791 :             }
; 2792 :             else
; 2793 :             {
; 2794 :                 status = WIL_STATUS_INTERNAL_ERROR;
; 2795 :             }
; 2796 :             break;
; 2797 :         }
; 2798 :         return status;

	mov	eax, edx

; 2799 :     }

	ret	0
$LN39@HrToNtStat:

; 2690 :         // Constants taken from ntstatus.h
; 2691 :         static constexpr NTSTATUS WIL_STATUS_INVALID_PARAMETER = 0xC000000D;
; 2692 :         static constexpr NTSTATUS WIL_STATUS_INTERNAL_ERROR = 0xC00000E5;
; 2693 :         static constexpr NTSTATUS WIL_STATUS_INTEGER_OVERFLOW = 0xC0000095;
; 2694 :         static constexpr NTSTATUS WIL_STATUS_OBJECT_PATH_NOT_FOUND = 0xC000003A;
; 2695 :         static constexpr NTSTATUS WIL_STATUS_OBJECT_NAME_NOT_FOUND = 0xC0000034;
; 2696 :         static constexpr NTSTATUS WIL_STATUS_NOT_IMPLEMENTED = 0xC0000002;
; 2697 :         static constexpr NTSTATUS WIL_STATUS_BUFFER_OVERFLOW = 0x80000005;
; 2698 :         static constexpr NTSTATUS WIL_STATUS_IMPLEMENTATION_LIMIT = 0xC000042B;
; 2699 :         static constexpr NTSTATUS WIL_STATUS_NO_MORE_MATCHES = 0xC0000273;
; 2700 :         static constexpr NTSTATUS WIL_STATUS_ILLEGAL_CHARACTER = 0xC0000161;
; 2701 :         static constexpr NTSTATUS WIL_STATUS_UNDEFINED_CHARACTER = 0xC0000163;
; 2702 :         static constexpr NTSTATUS WIL_STATUS_BUFFER_TOO_SMALL = 0xC0000023;
; 2703 :         static constexpr NTSTATUS WIL_STATUS_DISK_FULL = 0xC000007F;
; 2704 :         static constexpr NTSTATUS WIL_STATUS_OBJECT_NAME_INVALID = 0xC0000033;
; 2705 :         static constexpr NTSTATUS WIL_STATUS_DLL_NOT_FOUND = 0xC0000135;
; 2706 :         static constexpr NTSTATUS WIL_STATUS_REVISION_MISMATCH = 0xC0000059;
; 2707 :         static constexpr NTSTATUS WIL_STATUS_XML_PARSE_ERROR = 0xC000A083;
; 2708 :         static constexpr HRESULT WIL_E_FAIL = 0x80004005;
; 2709 : 
; 2710 :         NTSTATUS status = STATUS_SUCCESS;
; 2711 : 
; 2712 :         switch (hr)

	cmp	edx, -2147023604			; ffffffff8007050cH
	je	SHORT $LN13@HrToNtStat
	cmp	edx, -2147023537			; ffffffff8007054fH
	je	SHORT $LN6@HrToNtStat
	cmp	edx, -2147023431			; ffffffff800705b9H
	je	SHORT $LN23@HrToNtStat
	test	edx, edx
	je	SHORT $LN4@HrToNtStat
$LN25@HrToNtStat:

; 2776 :             break;
; 2777 :         default:
; 2778 :             if ((hr & FACILITY_NT_BIT) != 0)

	bt	edx, 28
	jae	SHORT $LN26@HrToNtStat

; 2779 :             {
; 2780 :                 status = (hr & ~FACILITY_NT_BIT);

	btr	edx, 28

; 2789 :                     ((NTSTATUS)(hr) <= 0 ? ((NTSTATUS)(hr))
; 2790 :                                          : ((NTSTATUS)(((hr) & 0x0000FFFF) | (FACILITY_SSPI << 16) | ERROR_SEVERITY_ERROR)));
; 2791 :             }
; 2792 :             else
; 2793 :             {
; 2794 :                 status = WIL_STATUS_INTERNAL_ERROR;
; 2795 :             }
; 2796 :             break;
; 2797 :         }
; 2798 :         return status;

	mov	eax, edx

; 2799 :     }

	ret	0
$LN26@HrToNtStat:

; 2781 :             }
; 2782 :             else if (HRESULT_FACILITY(hr) == FACILITY_WIN32)

	mov	eax, edx
	and	eax, 536805376				; 1fff0000H
	cmp	eax, 458752				; 00070000H
	jne	SHORT $LN28@HrToNtStat

; 2783 :             {
; 2784 :                 status = __NTSTATUS_FROM_WIN32(HRESULT_CODE(hr));

	movzx	edx, dx

; 2785 :             }

	mov	eax, edx
	or	eax, -1073283072			; ffffffffc0070000H
	test	edx, edx
	cmovne	edx, eax

; 2789 :                     ((NTSTATUS)(hr) <= 0 ? ((NTSTATUS)(hr))
; 2790 :                                          : ((NTSTATUS)(((hr) & 0x0000FFFF) | (FACILITY_SSPI << 16) | ERROR_SEVERITY_ERROR)));
; 2791 :             }
; 2792 :             else
; 2793 :             {
; 2794 :                 status = WIL_STATUS_INTERNAL_ERROR;
; 2795 :             }
; 2796 :             break;
; 2797 :         }
; 2798 :         return status;

	mov	eax, edx

; 2799 :     }

	ret	0
$LN28@HrToNtStat:

; 2786 :             else if (HRESULT_FACILITY(hr) == FACILITY_SSPI)

	cmp	eax, 589824				; 00090000H
	jne	SHORT $LN6@HrToNtStat

; 2787 :             {
; 2788 :                 status =

	test	edx, edx
	jle	SHORT $LN31@HrToNtStat
	movzx	edx, dx
	or	edx, -1073152000			; ffffffffc0090000H

; 2789 :                     ((NTSTATUS)(hr) <= 0 ? ((NTSTATUS)(hr))
; 2790 :                                          : ((NTSTATUS)(((hr) & 0x0000FFFF) | (FACILITY_SSPI << 16) | ERROR_SEVERITY_ERROR)));
; 2791 :             }
; 2792 :             else
; 2793 :             {
; 2794 :                 status = WIL_STATUS_INTERNAL_ERROR;
; 2795 :             }
; 2796 :             break;
; 2797 :         }
; 2798 :         return status;

	mov	eax, edx

; 2799 :     }

	ret	0
$LN4@HrToNtStat:

; 2713 :         {
; 2714 :         case S_OK:
; 2715 :             status = STATUS_SUCCESS;

	xor	edx, edx

; 2789 :                     ((NTSTATUS)(hr) <= 0 ? ((NTSTATUS)(hr))
; 2790 :                                          : ((NTSTATUS)(((hr) & 0x0000FFFF) | (FACILITY_SSPI << 16) | ERROR_SEVERITY_ERROR)));
; 2791 :             }
; 2792 :             else
; 2793 :             {
; 2794 :                 status = WIL_STATUS_INTERNAL_ERROR;
; 2795 :             }
; 2796 :             break;
; 2797 :         }
; 2798 :         return status;

	mov	eax, edx

; 2799 :     }

	ret	0
$LN23@HrToNtStat:

; 2770 :             break;
; 2771 :         case __HRESULT_FROM_WIN32(ERROR_XML_PARSE_ERROR):
; 2772 :             status = WIL_STATUS_XML_PARSE_ERROR;

	mov	edx, -1073700733			; ffffffffc000a083H

; 2789 :                     ((NTSTATUS)(hr) <= 0 ? ((NTSTATUS)(hr))
; 2790 :                                          : ((NTSTATUS)(((hr) & 0x0000FFFF) | (FACILITY_SSPI << 16) | ERROR_SEVERITY_ERROR)));
; 2791 :             }
; 2792 :             else
; 2793 :             {
; 2794 :                 status = WIL_STATUS_INTERNAL_ERROR;
; 2795 :             }
; 2796 :             break;
; 2797 :         }
; 2798 :         return status;

	mov	eax, edx

; 2799 :     }

	ret	0
$LN6@HrToNtStat:

; 2789 :                     ((NTSTATUS)(hr) <= 0 ? ((NTSTATUS)(hr))
; 2790 :                                          : ((NTSTATUS)(((hr) & 0x0000FFFF) | (FACILITY_SSPI << 16) | ERROR_SEVERITY_ERROR)));
; 2791 :             }
; 2792 :             else
; 2793 :             {
; 2794 :                 status = WIL_STATUS_INTERNAL_ERROR;
; 2795 :             }
; 2796 :             break;
; 2797 :         }
; 2798 :         return status;

	mov	edx, -1073741595			; ffffffffc00000e5H
	mov	eax, edx

; 2799 :     }

	ret	0
$LN13@HrToNtStat:

; 2740 :             break;
; 2741 :         case __HRESULT_FROM_WIN32(ERROR_IMPLEMENTATION_LIMIT):
; 2742 :             status = WIL_STATUS_IMPLEMENTATION_LIMIT;

	mov	edx, -1073740757			; ffffffffc000042bH
$LN31@HrToNtStat:

; 2789 :                     ((NTSTATUS)(hr) <= 0 ? ((NTSTATUS)(hr))
; 2790 :                                          : ((NTSTATUS)(((hr) & 0x0000FFFF) | (FACILITY_SSPI << 16) | ERROR_SEVERITY_ERROR)));
; 2791 :             }
; 2792 :             else
; 2793 :             {
; 2794 :                 status = WIL_STATUS_INTERNAL_ERROR;
; 2795 :             }
; 2796 :             break;
; 2797 :         }
; 2798 :         return status;

	mov	eax, edx

; 2799 :     }

	ret	0
	npad	3
$LN42@HrToNtStat:
	DD	$LN10@HrToNtStat
	DD	$LN9@HrToNtStat
	DD	$LN7@HrToNtStat
	DD	$LN5@HrToNtStat
	DD	$LN18@HrToNtStat
	DD	$LN17@HrToNtStat
	DD	$LN19@HrToNtStat
	DD	$LN20@HrToNtStat
	DD	$LN12@HrToNtStat
	DD	$LN25@HrToNtStat
$LN41@HrToNtStat:
	DB	0
	DB	1
	DB	9
	DB	9
	DB	9
	DB	9
	DB	9
	DB	9
	DB	9
	DB	9
	DB	9
	DB	9
	DB	2
	DB	9
	DB	9
	DB	9
	DB	9
	DB	9
	DB	9
	DB	9
	DB	9
	DB	9
	DB	9
	DB	9
	DB	9
	DB	9
	DB	9
	DB	9
	DB	9
	DB	9
	DB	9
	DB	9
	DB	9
	DB	9
	DB	9
	DB	9
	DB	9
	DB	9
	DB	9
	DB	9
	DB	9
	DB	9
	DB	9
	DB	9
	DB	9
	DB	9
	DB	9
	DB	9
	DB	9
	DB	9
	DB	9
	DB	9
	DB	9
	DB	9
	DB	9
	DB	9
	DB	9
	DB	9
	DB	9
	DB	9
	DB	9
	DB	9
	DB	9
	DB	9
	DB	9
	DB	9
	DB	9
	DB	9
	DB	9
	DB	9
	DB	9
	DB	9
	DB	9
	DB	9
	DB	9
	DB	9
	DB	9
	DB	9
	DB	9
	DB	9
	DB	9
	DB	9
	DB	9
	DB	9
	DB	9
	DB	3
	DB	9
	DB	9
	DB	9
	DB	9
	DB	9
	DB	9
	DB	9
	DB	9
	DB	9
	DB	9
	DB	9
	DB	9
	DB	9
	DB	9
	DB	9
	DB	9
	DB	9
	DB	9
	DB	9
	DB	9
	DB	9
	DB	9
	DB	9
	DB	9
	DB	4
	DB	9
	DB	9
	DB	9
	DB	9
	DB	9
	DB	9
	DB	9
	DB	9
	DB	9
	DB	5
	DB	6
	DB	9
	DB	9
	DB	7
	DB	9
	DB	9
	DB	9
	DB	9
	DB	9
	DB	9
	DB	9
	DB	9
	DB	9
	DB	9
	DB	9
	DB	9
	DB	9
	DB	9
	DB	9
	DB	9
	DB	9
	DB	9
	DB	9
	DB	9
	DB	9
	DB	9
	DB	9
	DB	9
	DB	9
	DB	9
	DB	9
	DB	9
	DB	9
	DB	9
	DB	9
	DB	9
	DB	9
	DB	9
	DB	9
	DB	9
	DB	9
	DB	9
	DB	9
	DB	9
	DB	9
	DB	9
	DB	9
	DB	9
	DB	9
	DB	9
	DB	9
	DB	9
	DB	9
	DB	9
	DB	9
	DB	9
	DB	9
	DB	9
	DB	9
	DB	9
	DB	9
	DB	9
	DB	9
	DB	9
	DB	9
	DB	9
	DB	9
	DB	9
	DB	9
	DB	9
	DB	9
	DB	9
	DB	9
	DB	9
	DB	9
	DB	9
	DB	9
	DB	9
	DB	9
	DB	9
	DB	9
	DB	9
	DB	9
	DB	9
	DB	9
	DB	9
	DB	9
	DB	9
	DB	9
	DB	9
	DB	9
	DB	9
	DB	9
	DB	9
	DB	9
	DB	9
	DB	9
	DB	9
	DB	9
	DB	9
	DB	9
	DB	9
	DB	9
	DB	9
	DB	9
	DB	9
	DB	9
	DB	9
	DB	9
	DB	9
	DB	9
	DB	8
?HrToNtStatus@details@wil@@YAJJ@Z ENDP			; wil::details::HrToNtStatus
_TEXT	ENDS
; Function compile flags: /Ogtpy
; File G:\Github\microsoft\low-latency-audio\src\uac2-asio\packages\Microsoft.Windows.ImplementationLibrary.1.0.250325.1\include\wil\result_macros.h
;	COMDAT ?ResultStringSize@details@wil@@YA_KPEBD@Z
_TEXT	SEGMENT
psz$ = 8
?ResultStringSize@details@wil@@YA_KPEBD@Z PROC		; wil::details::ResultStringSize, COMDAT

; 3018 :         return (psz == nullptr) ? sizeof(char) : (strlen(psz) + sizeof(char));

	test	rcx, rcx
	jne	SHORT $LN3@ResultStri
	mov	eax, 1

; 3019 :     }

	ret	0
$LN3@ResultStri:

; 3018 :         return (psz == nullptr) ? sizeof(char) : (strlen(psz) + sizeof(char));

	mov	rax, -1
$LL5@ResultStri:
	inc	rax
	cmp	BYTE PTR [rcx+rax], 0
	jne	SHORT $LL5@ResultStri
	inc	rax

; 3019 :     }

	ret	0
?ResultStringSize@details@wil@@YA_KPEBD@Z ENDP		; wil::details::ResultStringSize
_TEXT	ENDS
; Function compile flags: /Ogtpy
; File G:\Github\microsoft\low-latency-audio\src\uac2-asio\packages\Microsoft.Windows.ImplementationLibrary.1.0.250325.1\include\wil\result_macros.h
;	COMDAT ?ResultStringSize@details@wil@@YA_KPEB_W@Z
_TEXT	SEGMENT
psz$ = 8
?ResultStringSize@details@wil@@YA_KPEB_W@Z PROC		; wil::details::ResultStringSize, COMDAT

; 3024 :         return (psz == nullptr) ? sizeof(wchar_t) : (wcslen(psz) + 1) * sizeof(wchar_t);

	test	rcx, rcx
	jne	SHORT $LN3@ResultStri
	mov	eax, 2

; 3025 :     }

	ret	0
$LN3@ResultStri:

; 3024 :         return (psz == nullptr) ? sizeof(wchar_t) : (wcslen(psz) + 1) * sizeof(wchar_t);

	mov	rax, -1
$LL5@ResultStri:
	cmp	WORD PTR [rcx+rax*2+2], 0
	lea	rax, QWORD PTR [rax+1]
	jne	SHORT $LL5@ResultStri
	lea	rax, QWORD PTR [rax*2+2]

; 3025 :     }

	ret	0
?ResultStringSize@details@wil@@YA_KPEB_W@Z ENDP		; wil::details::ResultStringSize
_TEXT	ENDS
; Function compile flags: /Ogtpy
; File G:\Github\microsoft\low-latency-audio\src\uac2-asio\packages\Microsoft.Windows.ImplementationLibrary.1.0.250325.1\include\wil\result_macros.h
;	COMDAT ?WilInitialize_ResultMacros_DesktopOrSystem_SuppressPrivateApiUse@wil@@YAXXZ
_TEXT	SEGMENT
?WilInitialize_ResultMacros_DesktopOrSystem_SuppressPrivateApiUse@wil@@YAXXZ PROC ; wil::WilInitialize_ResultMacros_DesktopOrSystem_SuppressPrivateApiUse, COMDAT

; 3114 :     details::g_pfnGetModuleName = details::GetCurrentModuleName;
; 3115 :     details::g_pfnGetModuleInformation = details::GetModuleInformation;
; 3116 :     details::g_pfnDebugBreak = details::DebugBreak;
; 3117 :     details::g_pfnRaiseFailFastException = wil::details::WilDynamicLoadRaiseFailFastException;
; 3118 : }

	ret	0
?WilInitialize_ResultMacros_DesktopOrSystem_SuppressPrivateApiUse@wil@@YAXXZ ENDP ; wil::WilInitialize_ResultMacros_DesktopOrSystem_SuppressPrivateApiUse
_TEXT	ENDS
; Function compile flags: /Ogtpy
; File G:\Github\microsoft\low-latency-audio\src\uac2-asio\packages\Microsoft.Windows.ImplementationLibrary.1.0.250325.1\include\wil\result_macros.h
;	COMDAT ??R<lambda_1>@details@wil@@QEBA@XZ
_TEXT	SEGMENT
this$dead$ = 8
??R<lambda_1>@details@wil@@QEBA@XZ PROC			; wil::details::<lambda_1>::operator(), COMDAT

; 3125 :     WI_HEADER_INITIALIZATION_FUNCTION(WilInitialize_ResultMacros_DesktopOrSystem_SuppressPrivateApiUse, [] {

	mov	eax, 1
	ret	0
??R<lambda_1>@details@wil@@QEBA@XZ ENDP			; wil::details::<lambda_1>::operator()
_TEXT	ENDS
; Function compile flags: /Ogtpy
; File G:\Github\microsoft\low-latency-audio\src\uac2-asio\packages\Microsoft.Windows.ImplementationLibrary.1.0.250325.1\include\wil\result_macros.h
;	COMDAT ??0StoredFailureInfo@wil@@QEAA@AEBUFailureInfo@1@@Z
_TEXT	SEGMENT
this$ = 48
other$ = 56
??0StoredFailureInfo@wil@@QEAA@AEBUFailureInfo@1@@Z PROC ; wil::StoredFailureInfo::StoredFailureInfo, COMDAT

; 3358 :     StoredFailureInfo(FailureInfo const& other) WI_NOEXCEPT

$LN9:
	push	rbx
	sub	rsp, 32					; 00000020H

; 2249 :         shared_buffer() WI_NOEXCEPT : m_pCopy(nullptr), m_size(0)

	xor	eax, eax

; 3358 :     StoredFailureInfo(FailureInfo const& other) WI_NOEXCEPT

	mov	rbx, rcx

; 2249 :         shared_buffer() WI_NOEXCEPT : m_pCopy(nullptr), m_size(0)

	mov	QWORD PTR [rcx+152], rax
	mov	QWORD PTR [rcx+160], rax

; 3359 :     {
; 3360 :         SetFailureInfo(other);

	call	?SetFailureInfo@StoredFailureInfo@wil@@QEAAXAEBUFailureInfo@2@@Z ; wil::StoredFailureInfo::SetFailureInfo

; 3361 :     }

	mov	rax, rbx
	add	rsp, 32					; 00000020H
	pop	rbx
	ret	0
??0StoredFailureInfo@wil@@QEAA@AEBUFailureInfo@1@@Z ENDP ; wil::StoredFailureInfo::StoredFailureInfo
_TEXT	ENDS
; Function compile flags: /Ogtpy
; File G:\Github\microsoft\low-latency-audio\src\uac2-asio\packages\Microsoft.Windows.ImplementationLibrary.1.0.250325.1\include\wil\result_macros.h
;	COMDAT ?GetFailureInfo@StoredFailureInfo@wil@@QEBAAEBUFailureInfo@2@XZ
_TEXT	SEGMENT
this$ = 8
?GetFailureInfo@StoredFailureInfo@wil@@QEBAAEBUFailureInfo@2@XZ PROC ; wil::StoredFailureInfo::GetFailureInfo, COMDAT

; 3365 :         return m_failureInfo;

	mov	rax, rcx

; 3366 :     }

	ret	0
?GetFailureInfo@StoredFailureInfo@wil@@QEBAAEBUFailureInfo@2@XZ ENDP ; wil::StoredFailureInfo::GetFailureInfo
_TEXT	ENDS
; Function compile flags: /Ogtpy
; File G:\Github\microsoft\low-latency-audio\src\uac2-asio\packages\Microsoft.Windows.ImplementationLibrary.1.0.250325.1\include\wil\result_macros.h
; File G:\Github\microsoft\low-latency-audio\src\uac2-asio\packages\Microsoft.Windows.ImplementationLibrary.1.0.250325.1\include\wil\common.h
; File G:\Github\microsoft\low-latency-audio\src\uac2-asio\packages\Microsoft.Windows.ImplementationLibrary.1.0.250325.1\include\wil\result_macros.h
; File C:\Program Files (x86)\Windows Kits\10\Include\10.0.26100.0\ucrt\corecrt_memcpy_s.h
; File G:\Github\microsoft\low-latency-audio\src\uac2-asio\packages\Microsoft.Windows.ImplementationLibrary.1.0.250325.1\include\wil\common.h
; File G:\Github\microsoft\low-latency-audio\src\uac2-asio\packages\Microsoft.Windows.ImplementationLibrary.1.0.250325.1\include\wil\result_macros.h
; File G:\Github\microsoft\low-latency-audio\src\uac2-asio\packages\Microsoft.Windows.ImplementationLibrary.1.0.250325.1\include\wil\common.h
; File G:\Github\microsoft\low-latency-audio\src\uac2-asio\packages\Microsoft.Windows.ImplementationLibrary.1.0.250325.1\include\wil\result_macros.h
; File G:\Github\microsoft\low-latency-audio\src\uac2-asio\packages\Microsoft.Windows.ImplementationLibrary.1.0.250325.1\include\wil\common.h
; File G:\Github\microsoft\low-latency-audio\src\uac2-asio\packages\Microsoft.Windows.ImplementationLibrary.1.0.250325.1\include\wil\result_macros.h
; File C:\Program Files (x86)\Windows Kits\10\Include\10.0.26100.0\ucrt\corecrt_memcpy_s.h
; File G:\Github\microsoft\low-latency-audio\src\uac2-asio\packages\Microsoft.Windows.ImplementationLibrary.1.0.250325.1\include\wil\common.h
; File G:\Github\microsoft\low-latency-audio\src\uac2-asio\packages\Microsoft.Windows.ImplementationLibrary.1.0.250325.1\include\wil\result_macros.h
; File G:\Github\microsoft\low-latency-audio\src\uac2-asio\packages\Microsoft.Windows.ImplementationLibrary.1.0.250325.1\include\wil\common.h
; File G:\Github\microsoft\low-latency-audio\src\uac2-asio\packages\Microsoft.Windows.ImplementationLibrary.1.0.250325.1\include\wil\result_macros.h
; File G:\Github\microsoft\low-latency-audio\src\uac2-asio\packages\Microsoft.Windows.ImplementationLibrary.1.0.250325.1\include\wil\common.h
; File G:\Github\microsoft\low-latency-audio\src\uac2-asio\packages\Microsoft.Windows.ImplementationLibrary.1.0.250325.1\include\wil\result_macros.h
; File C:\Program Files (x86)\Windows Kits\10\Include\10.0.26100.0\ucrt\corecrt_memcpy_s.h
; File G:\Github\microsoft\low-latency-audio\src\uac2-asio\packages\Microsoft.Windows.ImplementationLibrary.1.0.250325.1\include\wil\common.h
; File G:\Github\microsoft\low-latency-audio\src\uac2-asio\packages\Microsoft.Windows.ImplementationLibrary.1.0.250325.1\include\wil\result_macros.h
; File G:\Github\microsoft\low-latency-audio\src\uac2-asio\packages\Microsoft.Windows.ImplementationLibrary.1.0.250325.1\include\wil\common.h
; File G:\Github\microsoft\low-latency-audio\src\uac2-asio\packages\Microsoft.Windows.ImplementationLibrary.1.0.250325.1\include\wil\result_macros.h
; File G:\Github\microsoft\low-latency-audio\src\uac2-asio\packages\Microsoft.Windows.ImplementationLibrary.1.0.250325.1\include\wil\common.h
; File G:\Github\microsoft\low-latency-audio\src\uac2-asio\packages\Microsoft.Windows.ImplementationLibrary.1.0.250325.1\include\wil\result_macros.h
; File C:\Program Files (x86)\Windows Kits\10\Include\10.0.26100.0\ucrt\corecrt_memcpy_s.h
; File G:\Github\microsoft\low-latency-audio\src\uac2-asio\packages\Microsoft.Windows.ImplementationLibrary.1.0.250325.1\include\wil\common.h
; File G:\Github\microsoft\low-latency-audio\src\uac2-asio\packages\Microsoft.Windows.ImplementationLibrary.1.0.250325.1\include\wil\result_macros.h
; File G:\Github\microsoft\low-latency-audio\src\uac2-asio\packages\Microsoft.Windows.ImplementationLibrary.1.0.250325.1\include\wil\common.h
; File G:\Github\microsoft\low-latency-audio\src\uac2-asio\packages\Microsoft.Windows.ImplementationLibrary.1.0.250325.1\include\wil\result_macros.h
; File G:\Github\microsoft\low-latency-audio\src\uac2-asio\packages\Microsoft.Windows.ImplementationLibrary.1.0.250325.1\include\wil\common.h
; File G:\Github\microsoft\low-latency-audio\src\uac2-asio\packages\Microsoft.Windows.ImplementationLibrary.1.0.250325.1\include\wil\result_macros.h
; File C:\Program Files (x86)\Windows Kits\10\Include\10.0.26100.0\ucrt\corecrt_memcpy_s.h
; File G:\Github\microsoft\low-latency-audio\src\uac2-asio\packages\Microsoft.Windows.ImplementationLibrary.1.0.250325.1\include\wil\common.h
; File G:\Github\microsoft\low-latency-audio\src\uac2-asio\packages\Microsoft.Windows.ImplementationLibrary.1.0.250325.1\include\wil\result_macros.h
; File G:\Github\microsoft\low-latency-audio\src\uac2-asio\packages\Microsoft.Windows.ImplementationLibrary.1.0.250325.1\include\wil\common.h
; File G:\Github\microsoft\low-latency-audio\src\uac2-asio\packages\Microsoft.Windows.ImplementationLibrary.1.0.250325.1\include\wil\result_macros.h
; File G:\Github\microsoft\low-latency-audio\src\uac2-asio\packages\Microsoft.Windows.ImplementationLibrary.1.0.250325.1\include\wil\common.h
; File G:\Github\microsoft\low-latency-audio\src\uac2-asio\packages\Microsoft.Windows.ImplementationLibrary.1.0.250325.1\include\wil\result_macros.h
; File C:\Program Files (x86)\Windows Kits\10\Include\10.0.26100.0\ucrt\corecrt_memcpy_s.h
; File G:\Github\microsoft\low-latency-audio\src\uac2-asio\packages\Microsoft.Windows.ImplementationLibrary.1.0.250325.1\include\wil\common.h
; File G:\Github\microsoft\low-latency-audio\src\uac2-asio\packages\Microsoft.Windows.ImplementationLibrary.1.0.250325.1\include\wil\result_macros.h
; File G:\Github\microsoft\low-latency-audio\src\uac2-asio\packages\Microsoft.Windows.ImplementationLibrary.1.0.250325.1\include\wil\common.h
; File G:\Github\microsoft\low-latency-audio\src\uac2-asio\packages\Microsoft.Windows.ImplementationLibrary.1.0.250325.1\include\wil\result_macros.h
; File G:\Github\microsoft\low-latency-audio\src\uac2-asio\packages\Microsoft.Windows.ImplementationLibrary.1.0.250325.1\include\wil\common.h
; File G:\Github\microsoft\low-latency-audio\src\uac2-asio\packages\Microsoft.Windows.ImplementationLibrary.1.0.250325.1\include\wil\result_macros.h
; File C:\Program Files (x86)\Windows Kits\10\Include\10.0.26100.0\ucrt\corecrt_memcpy_s.h
; File G:\Github\microsoft\low-latency-audio\src\uac2-asio\packages\Microsoft.Windows.ImplementationLibrary.1.0.250325.1\include\wil\common.h
; File G:\Github\microsoft\low-latency-audio\src\uac2-asio\packages\Microsoft.Windows.ImplementationLibrary.1.0.250325.1\include\wil\result_macros.h
; File G:\Github\microsoft\low-latency-audio\src\uac2-asio\packages\Microsoft.Windows.ImplementationLibrary.1.0.250325.1\include\wil\common.h
; File G:\Github\microsoft\low-latency-audio\src\uac2-asio\packages\Microsoft.Windows.ImplementationLibrary.1.0.250325.1\include\wil\result_macros.h
; File G:\Github\microsoft\low-latency-audio\src\uac2-asio\packages\Microsoft.Windows.ImplementationLibrary.1.0.250325.1\include\wil\common.h
; File G:\Github\microsoft\low-latency-audio\src\uac2-asio\packages\Microsoft.Windows.ImplementationLibrary.1.0.250325.1\include\wil\result_macros.h
; File C:\Program Files (x86)\Windows Kits\10\Include\10.0.26100.0\ucrt\corecrt_memcpy_s.h
; File G:\Github\microsoft\low-latency-audio\src\uac2-asio\packages\Microsoft.Windows.ImplementationLibrary.1.0.250325.1\include\wil\common.h
; File G:\Github\microsoft\low-latency-audio\src\uac2-asio\packages\Microsoft.Windows.ImplementationLibrary.1.0.250325.1\include\wil\result_macros.h
; File G:\Github\microsoft\low-latency-audio\src\uac2-asio\packages\Microsoft.Windows.ImplementationLibrary.1.0.250325.1\include\wil\common.h
; File G:\Github\microsoft\low-latency-audio\src\uac2-asio\packages\Microsoft.Windows.ImplementationLibrary.1.0.250325.1\include\wil\result_macros.h
; File G:\Github\microsoft\low-latency-audio\src\uac2-asio\packages\Microsoft.Windows.ImplementationLibrary.1.0.250325.1\include\wil\common.h
; File G:\Github\microsoft\low-latency-audio\src\uac2-asio\packages\Microsoft.Windows.ImplementationLibrary.1.0.250325.1\include\wil\result_macros.h
; File C:\Program Files (x86)\Windows Kits\10\Include\10.0.26100.0\ucrt\corecrt_memcpy_s.h
; File G:\Github\microsoft\low-latency-audio\src\uac2-asio\packages\Microsoft.Windows.ImplementationLibrary.1.0.250325.1\include\wil\common.h
; File G:\Github\microsoft\low-latency-audio\src\uac2-asio\packages\Microsoft.Windows.ImplementationLibrary.1.0.250325.1\include\wil\result_macros.h
; File G:\Github\microsoft\low-latency-audio\src\uac2-asio\packages\Microsoft.Windows.ImplementationLibrary.1.0.250325.1\include\wil\common.h
; File G:\Github\microsoft\low-latency-audio\src\uac2-asio\packages\Microsoft.Windows.ImplementationLibrary.1.0.250325.1\include\wil\result_macros.h
; File C:\Program Files (x86)\Windows Kits\10\Include\10.0.26100.0\ucrt\corecrt_memcpy_s.h
; File G:\Github\microsoft\low-latency-audio\src\uac2-asio\packages\Microsoft.Windows.ImplementationLibrary.1.0.250325.1\include\wil\common.h
; File G:\Github\microsoft\low-latency-audio\src\uac2-asio\packages\Microsoft.Windows.ImplementationLibrary.1.0.250325.1\include\wil\result_macros.h
;	COMDAT ?SetFailureInfo@StoredFailureInfo@wil@@QEAAXAEBUFailureInfo@2@@Z
_TEXT	SEGMENT
this$ = 80
$T34 = 80
failure$ = 88
?SetFailureInfo@StoredFailureInfo@wil@@QEAAXAEBUFailureInfo@2@@Z PROC ; wil::StoredFailureInfo::SetFailureInfo, COMDAT

; 3369 :     {

$LN480:
	mov	QWORD PTR [rsp+16], rbx
	mov	QWORD PTR [rsp+24], rbp
	mov	QWORD PTR [rsp+32], rsi
	push	rdi
	push	r12
	push	r13
	push	r14
	push	r15
	sub	rsp, 32					; 00000020H

; 3370 :         m_failureInfo = failure;

	movups	xmm0, XMMWORD PTR [rdx]
	mov	r15, rcx
	mov	rdi, rdx

; 3024 :         return (psz == nullptr) ? sizeof(wchar_t) : (wcslen(psz) + 1) * sizeof(wchar_t);

	mov	rsi, -1
	mov	r14d, 2

; 3370 :         m_failureInfo = failure;

	movups	XMMWORD PTR [rcx], xmm0
	movups	xmm1, XMMWORD PTR [rdx+16]
	movups	XMMWORD PTR [rcx+16], xmm1
	movups	xmm0, XMMWORD PTR [rdx+32]
	movups	XMMWORD PTR [rcx+32], xmm0
	movups	xmm1, XMMWORD PTR [rdx+48]
	movups	XMMWORD PTR [rcx+48], xmm1
	movups	xmm0, XMMWORD PTR [rdx+64]
	movups	XMMWORD PTR [rcx+64], xmm0
	movups	xmm1, XMMWORD PTR [rdx+80]
	movups	XMMWORD PTR [rcx+80], xmm1
	movups	xmm0, XMMWORD PTR [rdx+96]
	movups	XMMWORD PTR [rcx+96], xmm0
	movups	xmm1, XMMWORD PTR [rdx+112]
	movups	XMMWORD PTR [rcx+112], xmm1
	movups	xmm0, XMMWORD PTR [rdx+128]
	movups	XMMWORD PTR [rcx+128], xmm0
	movsd	xmm1, QWORD PTR [rdx+144]
	movsd	QWORD PTR [rcx+144], xmm1

; 3371 : 
; 3372 :         size_t const cbNeed = details::ResultStringSize(failure.pszMessage) + details::ResultStringSize(failure.pszCode) +

	mov	rcx, QWORD PTR [rdx+24]

; 3024 :         return (psz == nullptr) ? sizeof(wchar_t) : (wcslen(psz) + 1) * sizeof(wchar_t);

	test	rcx, rcx
	jne	SHORT $LN11@SetFailure
	mov	QWORD PTR $T34[rsp], r14
	jmp	SHORT $LN12@SetFailure
$LN11@SetFailure:
	mov	rax, rsi
	npad	2
$LL360@SetFailure:
	cmp	WORD PTR [rcx+rax*2+2], 0
	lea	rax, QWORD PTR [rax+1]
	jne	SHORT $LL360@SetFailure
	lea	rax, QWORD PTR [rax*2+2]
	mov	QWORD PTR $T34[rsp], rax
$LN12@SetFailure:

; 3371 : 
; 3372 :         size_t const cbNeed = details::ResultStringSize(failure.pszMessage) + details::ResultStringSize(failure.pszCode) +

	mov	rcx, QWORD PTR [rdx+40]

; 3018 :         return (psz == nullptr) ? sizeof(char) : (strlen(psz) + sizeof(char));

	mov	edx, 1
	test	rcx, rcx
	jne	SHORT $LN15@SetFailure
	mov	r13d, edx
	jmp	SHORT $LN16@SetFailure
$LN15@SetFailure:
	mov	rax, rsi
	npad	1
$LL359@SetFailure:
	cmp	BYTE PTR [rcx+rax+1], 0
	lea	rax, QWORD PTR [rax+1]
	jne	SHORT $LL359@SetFailure
	lea	r13, QWORD PTR [rax+1]
$LN16@SetFailure:

; 3371 : 
; 3372 :         size_t const cbNeed = details::ResultStringSize(failure.pszMessage) + details::ResultStringSize(failure.pszCode) +

	mov	rcx, QWORD PTR [rdi+48]

; 3018 :         return (psz == nullptr) ? sizeof(char) : (strlen(psz) + sizeof(char));

	test	rcx, rcx
	jne	SHORT $LN19@SetFailure
	mov	r12, rdx
	jmp	SHORT $LN20@SetFailure
$LN19@SetFailure:
	mov	rax, rsi
$LL358@SetFailure:
	cmp	BYTE PTR [rcx+rax+1], 0
	lea	rax, QWORD PTR [rax+1]
	jne	SHORT $LL358@SetFailure
	lea	r12, QWORD PTR [rax+1]
$LN20@SetFailure:

; 3371 : 
; 3372 :         size_t const cbNeed = details::ResultStringSize(failure.pszMessage) + details::ResultStringSize(failure.pszCode) +

	mov	rcx, QWORD PTR [rdi+56]

; 3018 :         return (psz == nullptr) ? sizeof(char) : (strlen(psz) + sizeof(char));

	test	rcx, rcx
	jne	SHORT $LN23@SetFailure
	mov	rbx, rdx
	jmp	SHORT $LN24@SetFailure
$LN23@SetFailure:
	mov	rax, rsi
$LL357@SetFailure:
	cmp	BYTE PTR [rcx+rax+1], 0
	lea	rax, QWORD PTR [rax+1]
	jne	SHORT $LL357@SetFailure
	lea	rbx, QWORD PTR [rax+1]
$LN24@SetFailure:

; 3371 : 
; 3372 :         size_t const cbNeed = details::ResultStringSize(failure.pszMessage) + details::ResultStringSize(failure.pszCode) +

	mov	rcx, QWORD PTR [rdi+72]

; 3018 :         return (psz == nullptr) ? sizeof(char) : (strlen(psz) + sizeof(char));

	test	rcx, rcx
	jne	SHORT $LN27@SetFailure
	mov	r11, rdx
	jmp	SHORT $LN28@SetFailure
$LN27@SetFailure:
	mov	rax, rsi
$LL356@SetFailure:
	cmp	BYTE PTR [rcx+rax+1], 0
	lea	rax, QWORD PTR [rax+1]
	jne	SHORT $LL356@SetFailure
	lea	r11, QWORD PTR [rax+1]
$LN28@SetFailure:

; 3371 : 
; 3372 :         size_t const cbNeed = details::ResultStringSize(failure.pszMessage) + details::ResultStringSize(failure.pszCode) +

	mov	rcx, QWORD PTR [rdi+128]

; 3018 :         return (psz == nullptr) ? sizeof(char) : (strlen(psz) + sizeof(char));

	test	rcx, rcx
	jne	SHORT $LN31@SetFailure
	mov	r10, rdx
	jmp	SHORT $LN32@SetFailure
$LN31@SetFailure:
	mov	rax, rsi
$LL355@SetFailure:
	cmp	BYTE PTR [rcx+rax+1], 0
	lea	rax, QWORD PTR [rax+1]
	jne	SHORT $LL355@SetFailure
	lea	r10, QWORD PTR [rax+1]
$LN32@SetFailure:

; 3371 : 
; 3372 :         size_t const cbNeed = details::ResultStringSize(failure.pszMessage) + details::ResultStringSize(failure.pszCode) +

	mov	rcx, QWORD PTR [rdi+112]

; 3018 :         return (psz == nullptr) ? sizeof(char) : (strlen(psz) + sizeof(char));

	test	rcx, rcx
	jne	SHORT $LN35@SetFailure
	mov	r9, rdx
	jmp	SHORT $LN36@SetFailure
$LN35@SetFailure:
	mov	rax, rsi
$LL354@SetFailure:
	cmp	BYTE PTR [rcx+rax+1], 0
	lea	rax, QWORD PTR [rax+1]
	jne	SHORT $LL354@SetFailure
	lea	r9, QWORD PTR [rax+1]
$LN36@SetFailure:

; 3371 : 
; 3372 :         size_t const cbNeed = details::ResultStringSize(failure.pszMessage) + details::ResultStringSize(failure.pszCode) +

	mov	rcx, QWORD PTR [rdi+120]

; 3024 :         return (psz == nullptr) ? sizeof(wchar_t) : (wcslen(psz) + 1) * sizeof(wchar_t);

	test	rcx, rcx
	jne	SHORT $LN39@SetFailure
	mov	r8, r14
	jmp	SHORT $LN40@SetFailure
$LN39@SetFailure:
	mov	rax, rsi
