; Listing generated by Microsoft (R) Optimizing Compiler Version 19.44.35216.0 

	TTL	g:\github\microsoft\low-latency-audio\src\vsfiles\intermediate\usbasio\arm64\release\combase.obj
	;ARM64

	AREA	|.drectve|, DRECTVE

	EXPORT	|??_R3INonDelegatingUnknown@@8| [ DATA ] ; INonDelegatingUnknown::`RTTI Class Hierarchy Descriptor'
	EXPORT	|??_7CUnknown@@6B@| [ DATA ]		; CUnknown::`vftable'
	EXPORT	|??_R0?AVCBaseObject@@@8| [ DATA ]	; CBaseObject `RTTI Type Descriptor'
	EXPORT	|?m_cObjects@CBaseObject@@0JA| [ DATA ]	; CBaseObject::m_cObjects
	EXPORT	|??_R0?AUINonDelegatingUnknown@@@8| [ DATA ] ; INonDelegatingUnknown `RTTI Type Descriptor'
	EXPORT	|??_R2CBaseObject@@8| [ DATA ]		; CBaseObject::`RTTI Base Class Array'
	EXPORT	|??_R2INonDelegatingUnknown@@8| [ DATA ] ; INonDelegatingUnknown::`RTTI Base Class Array'
	EXPORT	|??_R0?AVCUnknown@@@8| [ DATA ]		; CUnknown `RTTI Type Descriptor'
	EXPORT	|??_R1A@?0A@EA@INonDelegatingUnknown@@8| [ DATA ] ; INonDelegatingUnknown::`RTTI Base Class Descriptor at (0,-1,0,64)'
	EXPORT	|??_R2CUnknown@@8| [ DATA ]		; CUnknown::`RTTI Base Class Array'
	EXPORT	|??_R17?0A@EA@CBaseObject@@8| [ DATA ]	; CBaseObject::`RTTI Base Class Descriptor at (8,-1,0,64)'
	EXPORT	|??_R1A@?0A@EA@CUnknown@@8| [ DATA ]	; CUnknown::`RTTI Base Class Descriptor at (0,-1,0,64)'
	EXPORT	|??_R4CUnknown@@6B@| [ DATA ]		; CUnknown::`RTTI Complete Object Locator'
	EXPORT	|??_R1A@?0A@EA@CBaseObject@@8| [ DATA ]	; CBaseObject::`RTTI Base Class Descriptor at (0,-1,0,64)'
	EXPORT	|??_R3CBaseObject@@8| [ DATA ]		; CBaseObject::`RTTI Class Hierarchy Descriptor'
	EXPORT	|??_R3CUnknown@@8| [ DATA ]		; CUnknown::`RTTI Class Hierarchy Descriptor'
	IMPORT	|??_7type_info@@6B@|			; type_info::`vftable'
	IMPORT	|__std_terminate|
	IMPORT	|IID_IUnknown|
	IMPORT	|??3@YAXPEAX_K@Z|			; operator delete
	IMPORT	|__security_check_cookie|
	IMPORT	|__CxxFrameHandler3|

	AREA	|.bss|, NOINIT
|?m_cObjects@CBaseObject@@0JA| % 0x4			; CBaseObject::m_cObjects

	AREA	|.rdata$r|, DATA, READONLY
|??_R3CUnknown@@8| DCD 0x0				; CUnknown::`RTTI Class Hierarchy Descriptor'
	DCD	0x1
	DCD	0x3
	DCD	|??_R2CUnknown@@8|

	AREA	|.rdata$r|, DATA, READONLY
|??_R3CBaseObject@@8| DCD 0x0				; CBaseObject::`RTTI Class Hierarchy Descriptor'
	DCD	0x0
	DCD	0x1
	DCD	|??_R2CBaseObject@@8|

	AREA	|.rdata$r|, DATA, READONLY
|??_R1A@?0A@EA@CBaseObject@@8| DCD |??_R0?AVCBaseObject@@@8| ; CBaseObject::`RTTI Base Class Descriptor at (0,-1,0,64)'
	DCD	0x0
	DCD	0x0
	DCD	0xffffffff
	DCD	0x0
	DCD	0x40
	DCD	|??_R3CBaseObject@@8|

	AREA	|.rdata$r|, DATA, READONLY
|??_R4CUnknown@@6B@| DCD 0x1				; CUnknown::`RTTI Complete Object Locator'
	DCD	0x0
	DCD	0x0
	DCD	|??_R0?AVCUnknown@@@8|
	DCD	|??_R3CUnknown@@8|
	DCD	|??_R4CUnknown@@6B@|

	AREA	|.rdata$r|, DATA, READONLY
|??_R1A@?0A@EA@CUnknown@@8| DCD |??_R0?AVCUnknown@@@8|	; CUnknown::`RTTI Base Class Descriptor at (0,-1,0,64)'
	DCD	0x2
	DCD	0x0
	DCD	0xffffffff
	DCD	0x0
	DCD	0x40
	DCD	|??_R3CUnknown@@8|

	AREA	|.rdata$r|, DATA, READONLY
|??_R17?0A@EA@CBaseObject@@8| DCD |??_R0?AVCBaseObject@@@8| ; CBaseObject::`RTTI Base Class Descriptor at (8,-1,0,64)'
	DCD	0x0
	DCD	0x8
	DCD	0xffffffff
	DCD	0x0
	DCD	0x40
	DCD	|??_R3CBaseObject@@8|

	AREA	|.rdata$r|, DATA, READONLY
|??_R2CUnknown@@8| DCD |??_R1A@?0A@EA@CUnknown@@8|	; CUnknown::`RTTI Base Class Array'
	DCD	|??_R1A@?0A@EA@INonDelegatingUnknown@@8|
	DCD	|??_R17?0A@EA@CBaseObject@@8|
	%	3

	AREA	|.rdata$r|, DATA, READONLY
|??_R1A@?0A@EA@INonDelegatingUnknown@@8| DCD |??_R0?AUINonDelegatingUnknown@@@8| ; INonDelegatingUnknown::`RTTI Base Class Descriptor at (0,-1,0,64)'
	DCD	0x0
	DCD	0x0
	DCD	0xffffffff
	DCD	0x0
	DCD	0x40
	DCD	|??_R3INonDelegatingUnknown@@8|

	AREA	|.data$rs|, DATA
|??_R0?AVCUnknown@@@8| DCQ |??_7type_info@@6B@|, 0	; CUnknown `RTTI Type Descriptor'
	DCQ	0x0000000000000000
	DCB	".?AVCUnknown@@", 0x0

	AREA	|.rdata$r|, DATA, READONLY
|??_R2INonDelegatingUnknown@@8| DCD |??_R1A@?0A@EA@INonDelegatingUnknown@@8| ; INonDelegatingUnknown::`RTTI Base Class Array'
	%	3

	AREA	|.rdata$r|, DATA, READONLY
|??_R2CBaseObject@@8| DCD |??_R1A@?0A@EA@CBaseObject@@8| ; CBaseObject::`RTTI Base Class Array'
	%	3

	AREA	|.data$rs|, DATA
|??_R0?AUINonDelegatingUnknown@@@8| DCQ |??_7type_info@@6B@|, 0 ; INonDelegatingUnknown `RTTI Type Descriptor'
	DCQ	0x0000000000000000
	DCB	".?AUINonDelegatingUnknown@@", 0x0

	AREA	|.data$rs|, DATA
|??_R0?AVCBaseObject@@@8| DCQ |??_7type_info@@6B@|, 0	; CBaseObject `RTTI Type Descriptor'
	DCQ	0x0000000000000000
	DCB	".?AVCBaseObject@@", 0x0

	AREA	|.rdata|, DATA, READONLY
|??_7CUnknown@@6B@| DCQ |??_R4CUnknown@@6B@|, 0		; CUnknown::`vftable'
	DCQ	|?NonDelegatingQueryInterface@CUnknown@@UEAAJAEBU_GUID@@PEAPEAX@Z|, 0
	DCQ	|?NonDelegatingAddRef@CUnknown@@UEAAKXZ|, 0
	DCQ	|?NonDelegatingRelease@CUnknown@@UEAAKXZ|, 0
	DCQ	|??_ECUnknown@@UEAAPEAXI@Z|, 0

	AREA	|.rdata$r|, DATA, READONLY
|??_R3INonDelegatingUnknown@@8| DCD 0x0			; INonDelegatingUnknown::`RTTI Class Hierarchy Descriptor'
	DCD	0x0
	DCD	0x1
	DCD	|??_R2INonDelegatingUnknown@@8|
	EXPORT	|?GetInterface@CUnknown@@QEAAJPEAUIUnknown@@PEAPEAX@Z| ; CUnknown::GetInterface
	EXPORT	|?NonDelegatingRelease@CUnknown@@UEAAKXZ| ; CUnknown::NonDelegatingRelease
	EXPORT	|?NonDelegatingAddRef@CUnknown@@UEAAKXZ| ; CUnknown::NonDelegatingAddRef
	EXPORT	|?NonDelegatingQueryInterface@CUnknown@@UEAAJAEBU_GUID@@PEAPEAX@Z| ; CUnknown::NonDelegatingQueryInterface
	EXPORT	|??0INonDelegatingUnknown@@QEAA@XZ|	; INonDelegatingUnknown::INonDelegatingUnknown
	EXPORT	|??0CUnknown@@QEAA@PEADPEAUIUnknown@@PEAJ@Z| ; CUnknown::CUnknown
	EXPORT	|??1CBaseObject@@QEAA@XZ|		; CBaseObject::~CBaseObject
	EXPORT	|??0CBaseObject@@QEAA@PEAD@Z|		; CBaseObject::CBaseObject
	EXPORT	|??_GCUnknown@@UEAAPEAXI@Z|		; CUnknown::`scalar deleting destructor'
	EXPORT	|??1CUnknown@@UEAA@XZ|			; CUnknown::~CUnknown
	EXPORT	|==|
	EXPORT	|IsEqualGUID|
	IMPORT	|??_ECUnknown@@UEAAPEAXI@Z|, WEAK |??_GCUnknown@@UEAAPEAXI@Z| ; CUnknown::`vector deleting destructor', CUnknown::`scalar deleting destructor'
	IMPORT	|_CxxThrowException|
	IMPORT	|_InterlockedDecrement|
	IMPORT	|_InterlockedDecrement_rel|
	IMPORT	|_InterlockedExchange|
	IMPORT	|_InterlockedIncrement|
	IMPORT	|_InterlockedIncrement_nf|
	IMPORT	|_InterlockedOr|
	IMPORT	|__GSHandlerCheck|
	IMPORT	|__GSHandlerCheck_EH|
	IMPORT	|__chkstk|
	IMPORT	|__security_pop_cookie|
	IMPORT	|__security_push_cookie|
	IMPORT	|memcpy|
	IMPORT	|memset|
	IMPORT	|strcmp|
	IMPORT	|_fltused|

	AREA	|.pdata|, PDATA
|$pdata$?GetInterface@CUnknown@@QEAAJPEAUIUnknown@@PEAPEAX@Z| DCD |$LN10|
	DCD	|$unwind$?GetInterface@CUnknown@@QEAAJPEAUIUnknown@@PEAPEAX@Z|

	AREA	|.pdata|, PDATA
|$pdata$?NonDelegatingRelease@CUnknown@@UEAAKXZ| DCD |$LN17|
	DCD	|$unwind$?NonDelegatingRelease@CUnknown@@UEAAKXZ|

	AREA	|.pdata|, PDATA
|$pdata$?NonDelegatingAddRef@CUnknown@@UEAAKXZ| DCD |$LN10|
	DCD	0x1610031
	;Flags[SingleProEpi] functionLength[48] RegF[0] RegI[1] H[0] frameChainReturn[Chained] frameSize[32]

	AREA	|.pdata|, PDATA
|$pdata$?NonDelegatingQueryInterface@CUnknown@@UEAAJAEBU_GUID@@PEAPEAX@Z| DCD |$LN22|
	DCD	|$unwind$?NonDelegatingQueryInterface@CUnknown@@UEAAJAEBU_GUID@@PEAPEAX@Z|

	AREA	|.pdata|, PDATA
|$pdata$??0CUnknown@@QEAA@PEADPEAUIUnknown@@PEAJ@Z| DCD |$LN9|
	DCD	0x1620049
	;Flags[SingleProEpi] functionLength[72] RegF[0] RegI[2] H[0] frameChainReturn[Chained] frameSize[32]

	AREA	|.pdata|, PDATA
|$pdata$??0CBaseObject@@QEAA@PEAD@Z| DCD |$LN6|
	DCD	0x161002d
	;Flags[SingleProEpi] functionLength[44] RegF[0] RegI[1] H[0] frameChainReturn[Chained] frameSize[32]

	AREA	|.pdata|, PDATA
|$pdata$??_GCUnknown@@UEAAPEAXI@Z| DCD |$LN20|
	DCD	0x162004d
	;Flags[SingleProEpi] functionLength[76] RegF[0] RegI[2] H[0] frameChainReturn[Chained] frameSize[32]

	AREA	|.xdata|, DATA
|$unwind$?NonDelegatingQueryInterface@CUnknown@@UEAAJAEBU_GUID@@PEAPEAX@Z| DCD 0x8c00026
	DCD	0x400004
	DCD	0x40001e
	DCD	0x400022
	DCD	0xe3e481e1
	;Code Words[1], Epilog Count[3], E[0], X[0], Function Length[38]=152 bytes
	;Epilog Start Index[1], Epilog Start Offset[4]=16 bytes
	;Epilog Start Index[1], Epilog Start Offset[30]=120 bytes
	;Epilog Start Index[1], Epilog Start Offset[34]=136 bytes
	;set_fp
	;save_fplr_x
	;end
	;nop

	AREA	|.xdata|, DATA
|$unwind$?NonDelegatingRelease@CUnknown@@UEAAKXZ| DCD 0x10800018
	DCD	0x400010
	DCD	0x400015
	DCD	0x1d481e1
	DCD	0xe3e3e3e4
	;Code Words[2], Epilog Count[2], E[0], X[0], Function Length[24]=96 bytes
	;Epilog Start Index[1], Epilog Start Offset[16]=64 bytes
	;Epilog Start Index[1], Epilog Start Offset[21]=84 bytes
	;set_fp
	;save_fplr_x
	;save_reg_x
	;end
	;nop
	;nop
	;nop

	AREA	|.xdata|, DATA
|$unwind$?GetInterface@CUnknown@@QEAAJPEAUIUnknown@@PEAPEAX@Z| DCD 0x880000f
	DCD	0x400004
	DCD	0x40000c
	DCD	0xe3e481e1
	;Code Words[1], Epilog Count[2], E[0], X[0], Function Length[15]=60 bytes
	;Epilog Start Index[1], Epilog Start Offset[4]=16 bytes
	;Epilog Start Index[1], Epilog Start Offset[12]=48 bytes
	;set_fp
	;save_fplr_x
	;end
	;nop
; Function compile flags: /Ogtp
; File C:\Program Files (x86)\Windows Kits\10\Include\10.0.26100.0\shared\guiddef.h

	AREA	|.text$mn|, CODE, ARM64

|IsEqualGUID| PROC

; 161  :     return !memcmp(&rguid1, &rguid2, sizeof(GUID));

	ldr         x9,[x0]
	ldr         x8,[x1]
	rev         x9,x9
	rev         x8,x8
	cmp         x9,x8
	bne         |$LN3@IsEqualGUI|
	ldr         x9,[x0,#8]
	ldr         x8,[x1,#8]
	rev         x9,x9
	rev         x8,x8
	cmp         x9,x8
	bne         |$LN3@IsEqualGUI|
	mov         w8,#0
	cmp         w8,#0
	cseteq      w0
	ret
|$LN3@IsEqualGUI|
	mov         w8,#-1
	cneghs      w8,w8
	cmp         w8,#0
	cseteq      w0
	ret

	ENDP  ; |IsEqualGUID|

; Function compile flags: /Ogtp
; File C:\Program Files (x86)\Windows Kits\10\Include\10.0.26100.0\shared\guiddef.h

	AREA	|.text$mn|, CODE, ARM64

|==|	PROC

; 161  :     return !memcmp(&rguid1, &rguid2, sizeof(GUID));

	ldr         x9,[x0]
	ldr         x8,[x1]
	rev         x9,x9
	rev         x8,x8
	cmp         x9,x8
	bne         |$LN5@|
	ldr         x9,[x0,#8]
	ldr         x8,[x1,#8]
	rev         x9,x9
	rev         x8,x8
	cmp         x9,x8
	bne         |$LN5@|
	mov         w8,#0
	cmp         w8,#0

; 194  :     return !!IsEqualGUID(guidOne,guidOther);

	cseteq      w0
	ret
|$LN5@|

; 161  :     return !memcmp(&rguid1, &rguid2, sizeof(GUID));

	mov         w8,#-1
	cneghs      w8,w8
	cmp         w8,#0

; 194  :     return !!IsEqualGUID(guidOne,guidOther);

	cseteq      w0
	ret

	ENDP  ; |==|

; Function compile flags: /Ogtp
; File G:\Github\microsoft\low-latency-audio\src\uac2-asio\asio\combase.h
; File G:\Github\microsoft\low-latency-audio\src\uac2-asio\asio\combase.cpp
; File G:\Github\microsoft\low-latency-audio\src\uac2-asio\asio\combase.h

	AREA	|.text$mn|, CODE, ARM64

|??1CUnknown@@UEAA@XZ| PROC				; CUnknown::~CUnknown

; 192  :     virtual ~CUnknown() {};

	adrp        x8,|??_7CUnknown@@6B@|
	add         x8,x8,|??_7CUnknown@@6B@|
	str         x8,[x0]
; File G:\Github\microsoft\low-latency-audio\src\uac2-asio\asio\combase.cpp

; 43   :     InterlockedDecrement(&m_cObjects);

	adrp        x8,|?m_cObjects@CBaseObject@@0JA|
	add         x0,x8,|?m_cObjects@CBaseObject@@0JA|
	b           _InterlockedDecrement

	ENDP  ; |??1CUnknown@@UEAA@XZ|, CUnknown::~CUnknown

; Function compile flags: /Ogtp
; File G:\Github\microsoft\low-latency-audio\src\uac2-asio\asio\combase.h
; File G:\Github\microsoft\low-latency-audio\src\uac2-asio\asio\combase.cpp

	AREA	|.text$mn|, CODE, ARM64

|??_GCUnknown@@UEAAPEAXI@Z| PROC			; CUnknown::`scalar deleting destructor'
|$LN20|
	stp         x19,x20,[sp,#-0x10]!
	stp         fp,lr,[sp,#-0x10]!
	mov         fp,sp
; File G:\Github\microsoft\low-latency-audio\src\uac2-asio\asio\combase.h

; 192  :     virtual ~CUnknown() {};

	adrp        x8,|??_7CUnknown@@6B@|
	add         x8,x8,|??_7CUnknown@@6B@|
	mov         x19,x0
	mov         w20,w1
	str         x8,[x19]
; File G:\Github\microsoft\low-latency-audio\src\uac2-asio\asio\combase.cpp

; 43   :     InterlockedDecrement(&m_cObjects);

	adrp        x8,|?m_cObjects@CBaseObject@@0JA|
	add         x0,x8,|?m_cObjects@CBaseObject@@0JA|
	bl          _InterlockedDecrement
	tbz         w20,#0,|$LN17@scalar|
	mov         x1,#0x18
	mov         x0,x19
	bl          |??3@YAXPEAX_K@Z|
|$LN17@scalar|
	mov         x0,x19
	ldp         fp,lr,[sp],#0x10
	ldp         x19,x20,[sp],#0x10
	ret

	ENDP  ; |??_GCUnknown@@UEAAPEAXI@Z|, CUnknown::`scalar deleting destructor'

; Function compile flags: /Ogtp
; File G:\Github\microsoft\low-latency-audio\src\uac2-asio\asio\combase.cpp

	AREA	|.text$mn|, CODE, ARM64

|??0CBaseObject@@QEAA@PEAD@Z| PROC			; CBaseObject::CBaseObject

; 28   : {

|$LN6|
	str         x19,[sp,#-0x10]!
	stp         fp,lr,[sp,#-0x10]!
	mov         fp,sp
	mov         x19,x0

; 29   :     /* Increment the number of active objects */
; 30   :     InterlockedIncrement(&m_cObjects);

	adrp        x8,|?m_cObjects@CBaseObject@@0JA|
	add         x0,x8,|?m_cObjects@CBaseObject@@0JA|
	bl          _InterlockedIncrement

; 31   : 
; 32   : #ifdef DEBUG
; 33   :     m_dwCookie = DbgRegisterObjectCreation(pName);
; 34   : #endif
; 35   : }

	mov         x0,x19
	ldp         fp,lr,[sp],#0x10
	ldr         x19,[sp],#0x10
	ret

	ENDP  ; |??0CBaseObject@@QEAA@PEAD@Z|, CBaseObject::CBaseObject

; Function compile flags: /Ogtp
; File G:\Github\microsoft\low-latency-audio\src\uac2-asio\asio\combase.cpp

	AREA	|.text$mn|, CODE, ARM64

|??1CBaseObject@@QEAA@XZ| PROC				; CBaseObject::~CBaseObject

; 42   :     /* Decrement the number of objects active */
; 43   :     InterlockedDecrement(&m_cObjects);

	adrp        x8,|?m_cObjects@CBaseObject@@0JA|
	add         x0,x8,|?m_cObjects@CBaseObject@@0JA|
	b           _InterlockedDecrement

	ENDP  ; |??1CBaseObject@@QEAA@XZ|, CBaseObject::~CBaseObject

; Function compile flags: /Ogtp
; File G:\Github\microsoft\low-latency-audio\src\uac2-asio\asio\combase.cpp

	AREA	|.text$mn|, CODE, ARM64

|??0CUnknown@@QEAA@PEADPEAUIUnknown@@PEAJ@Z| PROC	; CUnknown::CUnknown

; 71   : {

|$LN9|
	stp         x19,x20,[sp,#-0x10]!
	stp         fp,lr,[sp,#-0x10]!
	mov         fp,sp
	mov         x20,x0

; 30   :     InterlockedIncrement(&m_cObjects);

	adrp        x8,|?m_cObjects@CBaseObject@@0JA|
	add         x0,x8,|?m_cObjects@CBaseObject@@0JA|
	mov         x19,x2
	bl          _InterlockedIncrement

; 71   : {

	adrp        x8,|??_7CUnknown@@6B@|
	add         x9,x8,|??_7CUnknown@@6B@|

; 31   : 
; 32   : #ifdef DEBUG
; 33   :     m_dwCookie = DbgRegisterObjectCreation(pName);
; 34   : #endif
; 35   : }
; 36   : 
; 37   : 
; 38   : /* Destructor */
; 39   : 
; 40   : CBaseObject::~CBaseObject()
; 41   : {
; 42   :     /* Decrement the number of objects active */
; 43   :     InterlockedDecrement(&m_cObjects);
; 44   : 
; 45   : #ifdef DEBUG
; 46   :     DbgRegisterObjectDestruction(m_dwCookie);
; 47   : #endif
; 48   : }
; 49   : 
; 50   : 
; 51   : /* Constructor */
; 52   : 
; 53   : // We know we use "this" in the initialization list, we also know we don't modify *phr.
; 54   : #pragma warning( disable : 4355 4100 ) 
; 55   : CUnknown::CUnknown(TCHAR *pName, LPUNKNOWN pUnk, HRESULT *phr) 
; 56   : : CBaseObject(pName)
; 57   : /* Start the object with a reference count of zero - when the      */
; 58   : /* object is queried for it's first interface this may be          */
; 59   : /* incremented depending on whether or not this object is          */
; 60   : /* currently being aggregated upon                                 */
; 61   : , m_cRef(0)
; 62   : /* Set our pointer to our IUnknown interface.                      */
; 63   : /* If we have an outer, use its, otherwise use ours.               */
; 64   : /* This pointer effectivly points to the owner of                  */
; 65   : /* this object and can be accessed by the GetOwner() method.       */
; 66   : , m_pUnknown( pUnk != 0 ? pUnk : reinterpret_cast<LPUNKNOWN>( static_cast<PNDUNKNOWN>(this) ) )

	cmp         x19,#0
	cselne      x8,x19,x20

; 72   :     // Everything we need to do has been done in the initializer list
; 73   : }

	mov         x0,x20
	stp         x9,x8,[x20]
	str         wzr,[x20,#0x10]
	ldp         fp,lr,[sp],#0x10
	ldp         x19,x20,[sp],#0x10
	ret

	ENDP  ; |??0CUnknown@@QEAA@PEADPEAUIUnknown@@PEAJ@Z|, CUnknown::CUnknown

; Function compile flags: /Ogtp

	AREA	|.text$mn|, CODE, ARM64

|??0INonDelegatingUnknown@@QEAA@XZ| PROC		; INonDelegatingUnknown::INonDelegatingUnknown
	ret

	ENDP  ; |??0INonDelegatingUnknown@@QEAA@XZ|, INonDelegatingUnknown::INonDelegatingUnknown

; Function compile flags: /Ogtp
; File G:\Github\microsoft\low-latency-audio\src\uac2-asio\asio\combase.cpp
; File C:\Program Files (x86)\Windows Kits\10\Include\10.0.26100.0\shared\guiddef.h
; File G:\Github\microsoft\low-latency-audio\src\uac2-asio\asio\combase.cpp

	AREA	|.text$mn|, CODE, ARM64

|?NonDelegatingQueryInterface@CUnknown@@UEAAJAEBU_GUID@@PEAPEAX@Z| PROC ; CUnknown::NonDelegatingQueryInterface

; 79   : {

|$LN22|
	stp         fp,lr,[sp,#-0x10]!
	mov         fp,sp

; 80   :     CheckPointer(ppv,E_POINTER);

	cbnz        x2,|$LN17@NonDelegat|
	ldr         w0,|$LN20@NonDelegat|
	ldp         fp,lr,[sp],#0x10
	ret
|$LN17@NonDelegat|
; File C:\Program Files (x86)\Windows Kits\10\Include\10.0.26100.0\shared\guiddef.h

; 161  :     return !memcmp(&rguid1, &rguid2, sizeof(GUID));

	adrp        x8,IID_IUnknown
	add         x10,x8,IID_IUnknown
	ldr         x9,[x1]
	ldr         x8,[x10]
	rev         x9,x9
	rev         x8,x8
	cmp         x9,x8
	bne         |$LN13@NonDelegat|
	ldr         x9,[x1,#8]
	ldr         x8,[x10,#8]
	rev         x9,x9
	rev         x8,x8
	cmp         x9,x8
	bne         |$LN13@NonDelegat|
	mov         w8,#0
	b           |$LN14@NonDelegat|
|$LN13@NonDelegat|
	mov         w8,#-1
	cneghs      w8,w8
|$LN14@NonDelegat|
; File G:\Github\microsoft\low-latency-audio\src\uac2-asio\asio\combase.cpp

; 85   :     if (riid == IID_IUnknown) {

	cbnz        w8,|$LN3@NonDelegat|

; 161  :     *ppv = pUnk;

	str         x0,[x2]

; 162  :     pUnk->AddRef();

	ldr         x8,[x0]
	ldr         x8,[x8,#8]
	blr         x8

; 86   :         GetInterface((LPUNKNOWN) (PNDUNKNOWN) this, ppv);
; 87   :         return NOERROR;

	mov         w0,#0
	ldp         fp,lr,[sp],#0x10
	ret
|$LN3@NonDelegat|

; 88   :     } else {
; 89   :         *ppv = NULL;

	str         xzr,[x2]

; 90   :         return E_NOINTERFACE;

	ldr         w0,|$LN21@NonDelegat|
	ldp         fp,lr,[sp],#0x10
	ret
|$LN20@NonDelegat|
	DCD         0x80004003
|$LN21@NonDelegat|
	DCD         0x80004002

	ENDP  ; |?NonDelegatingQueryInterface@CUnknown@@UEAAJAEBU_GUID@@PEAPEAX@Z|, CUnknown::NonDelegatingQueryInterface

; Function compile flags: /Ogtp
; File G:\Github\microsoft\low-latency-audio\src\uac2-asio\asio\combase.cpp

	AREA	|.text$mn|, CODE, ARM64

|?NonDelegatingAddRef@CUnknown@@UEAAKXZ| PROC		; CUnknown::NonDelegatingAddRef

; 110  : {

|$LN10|
	str         x19,[sp,#-0x10]!
	stp         fp,lr,[sp,#-0x10]!
	mov         fp,sp
	mov         x19,x0

; 111  :     LONG lRef = InterlockedIncrement( &m_cRef );

	add         x0,x19,#0x10
	bl          _InterlockedIncrement

; 112  :     ASSERT(lRef > 0);
; 113  :     DbgLog((LOG_MEMORY,3,TEXT("    Obj %d ref++ = %d"),
; 114  :            m_dwCookie, m_cRef));
; 115  :     return max(ULONG(m_cRef), 1ul);

	ldr         w8,[x19,#0x10]

; 104  :     return a > b ? a : b;

	cmp         w8,#1
	csinchi     w0,w8,wzr
	ldp         fp,lr,[sp],#0x10
	ldr         x19,[sp],#0x10
	ret

	ENDP  ; |?NonDelegatingAddRef@CUnknown@@UEAAKXZ|, CUnknown::NonDelegatingAddRef

; Function compile flags: /Ogtp
; File G:\Github\microsoft\low-latency-audio\src\uac2-asio\asio\combase.cpp

	AREA	|.text$mn|, CODE, ARM64

|?NonDelegatingRelease@CUnknown@@UEAAKXZ| PROC		; CUnknown::NonDelegatingRelease

; 123  : {

|$LN17|
	str         x19,[sp,#-0x10]!
	stp         fp,lr,[sp,#-0x10]!
	mov         fp,sp
	mov         x19,x0

; 124  :     /* If the reference count drops to zero delete ourselves */
; 125  : 
; 126  :     LONG lRef = InterlockedDecrement( &m_cRef );

	add         x0,x19,#0x10
	bl          _InterlockedDecrement

; 127  :     ASSERT(lRef >= 0);
; 128  : 
; 129  :     DbgLog((LOG_MEMORY,3,TEXT("    Object %d ref-- = %d"),
; 130  : 	    m_dwCookie, m_cRef));
; 131  :     if (lRef == 0) {

	ldr         w8,[x19,#0x10]
	cbnz        w0,|$LN2@NonDelegat|

; 132  : 
; 133  :         // COM rules say we must protect against re-entrancy.
; 134  :         // If we are an aggregator and we hold our own interfaces
; 135  :         // on the aggregatee, the QI for these interfaces will
; 136  :         // addref ourselves. So after doing the QI we must release
; 137  :         // a ref count on ourselves. Then, before releasing the
; 138  :         // private interface, we must addref ourselves. When we do
; 139  :         // this from the destructor here it will result in the ref
; 140  :         // count going to 1 and then back to 0 causing us to
; 141  :         // re-enter the destructor. Hence we add an extra refcount here
; 142  :         // once we know we will delete the object.
; 143  :         // for an example aggregator see filgraph\distrib.cpp.
; 144  : 
; 145  :         m_cRef++;

	add         w8,w8,#1
	str         w8,[x19,#0x10]

; 146  : 
; 147  :         delete this;

	ldr         x8,[x19]
	mov         w1,#1
	mov         x0,x19
	ldr         x8,[x8,#0x18]
	blr         x8

; 148  :         return ULONG(0);

	mov         w0,#0
	ldp         fp,lr,[sp],#0x10
	ldr         x19,[sp],#0x10
	ret
|$LN2@NonDelegat|

; 104  :     return a > b ? a : b;

	cmp         w8,#1
	csinchi     w0,w8,wzr
	ldp         fp,lr,[sp],#0x10
	ldr         x19,[sp],#0x10
	ret

	ENDP  ; |?NonDelegatingRelease@CUnknown@@UEAAKXZ|, CUnknown::NonDelegatingRelease

; Function compile flags: /Ogtp
; File G:\Github\microsoft\low-latency-audio\src\uac2-asio\asio\combase.cpp

	AREA	|.text$mn|, CODE, ARM64

|?GetInterface@CUnknown@@QEAAJPEAUIUnknown@@PEAPEAX@Z| PROC ; CUnknown::GetInterface

; 159  : {

|$LN10|
	stp         fp,lr,[sp,#-0x10]!
	mov         fp,sp

; 160  :     CheckPointer(ppv, E_POINTER);

	cbnz        x2,|$LN6@GetInterfa|
	ldr         w0,|$LN9@GetInterfa|
	ldp         fp,lr,[sp],#0x10
	ret
|$LN6@GetInterfa|

; 161  :     *ppv = pUnk;

	str         x1,[x2]

; 162  :     pUnk->AddRef();

	ldr         x8,[x1]
	mov         x0,x1
	ldr         x8,[x8,#8]
	blr         x8

; 163  :     return NOERROR;

	mov         w0,#0
	ldp         fp,lr,[sp],#0x10
	ret
|$LN9@GetInterfa|
	DCD         0x80004003

	ENDP  ; |?GetInterface@CUnknown@@QEAAJPEAUIUnknown@@PEAPEAX@Z|, CUnknown::GetInterface

; Function compile flags: /Ogtp
; File G:\Github\microsoft\low-latency-audio\src\uac2-asio\asio\combase.cpp

	AREA	|.text$mn|, CODE, ARM64

|??$max@K@@YAKAEBK0@Z| PROC				; max<unsigned long>

; 103  : {

	ldr         w9,[x0]

; 104  :     return a > b ? a : b;

	ldr         w8,[x1]
	cmp         w9,w8
	csells      w0,w8,w9
	ret

	ENDP  ; |??$max@K@@YAKAEBK0@Z|, max<unsigned long>

	END
