; Listing generated by Microsoft (R) Optimizing Compiler Version 19.44.35216.0 

	TTL	g:\github\microsoft\low-latency-audio\src\vsfiles\intermediate\usbasio\arm64\release\usbasio.obj
	;ARM64

	AREA	|.drectve|, DRECTVE

	EXPORT	|?g_Templates@@3PAVCFactoryTemplate@@A| [ DATA ] ; g_Templates
	EXPORT	|?g_NumOfTemplates@@3HA| [ DATA ]	; g_NumOfTemplates
	EXPORT	|??_C@_00CNPNBAHC@@| [ DATA ]		; `string'
	EXPORT	|??_C@_0BC@EOODALEL@Unknown?5exception@| [ DATA ] ; `string'
	EXPORT	|??_C@_09FBNMMHMJ@Exception@| [ DATA ]	; `string'
	EXPORT	|??_C@_08PHCNGLJD@ReturnNt@| [ DATA ]	; `string'
	EXPORT	|??_C@_08KFPKLAKH@ReturnHr@| [ DATA ]	; `string'
	EXPORT	|??_C@_05LKGDKHFF@LogNt@| [ DATA ]	; `string'
	EXPORT	|??_C@_05OILEHMGB@LogHr@| [ DATA ]	; `string'
	EXPORT	|??_C@_08IAOKKAJK@FailFast@| [ DATA ]	; `string'
	EXPORT	|??_C@_1CC@NCIPMFAO@?$AA?$CF?$AAh?$AAs?$AA?$CI?$AA?$CF?$AAu?$AA?$CJ?$AA?2?$AA?$CF?$AAh?$AAs?$AA?$CB?$AA?$CF?$AAp?$AA?3@| [ DATA ] ; `string'
	EXPORT	|??_C@_1BC@HOGHCIFF@?$AA?$CF?$AAh?$AAs?$AA?$CB?$AA?$CF?$AAp?$AA?3?$AA?5@| [ DATA ] ; `string'
	EXPORT	|??_C@_1BM@EAHLIJPA@?$AA?$CI?$AAc?$AAa?$AAl?$AAl?$AAe?$AAr?$AA?3?$AA?5?$AA?$CF?$AAp?$AA?$CJ?$AA?5@| [ DATA ] ; `string'
	EXPORT	|??_C@_1DC@MFHOKFOG@?$AA?$CF?$AAh?$AAs?$AA?$CI?$AA?$CF?$AAd?$AA?$CJ?$AA?5?$AAt?$AAi?$AAd?$AA?$CI?$AA?$CF?$AAx?$AA?$CJ@| [ DATA ] ; `string'
	EXPORT	|??_C@_19NMAFMAH@?$AA?5?$AA?5?$AA?5?$AA?5@| [ DATA ] ; `string'
	EXPORT	|??_C@_1BG@MCLOHHAM@?$AAM?$AAs?$AAg?$AA?3?$AA?$FL?$AA?$CF?$AAw?$AAs?$AA?$FN?$AA?5@| [ DATA ] ; `string'
	EXPORT	|??_C@_1CG@CGJKEFKG@?$AAC?$AAa?$AAl?$AAl?$AAC?$AAo?$AAn?$AAt?$AAe?$AAx?$AAt?$AA?3?$AA?$FL?$AA?$CF?$AAh@| [ DATA ] ; `string'
	EXPORT	|??_C@_1BI@PKOCHLJN@?$AA?$FL?$AA?$CF?$AAh?$AAs?$AA?$CI?$AA?$CF?$AAh?$AAs?$AA?$CJ?$AA?$FN?$AA?6@| [ DATA ] ; `string'
	EXPORT	|??_C@_1O@PJKHPDBK@?$AA?$FL?$AA?$CF?$AAh?$AAs?$AA?$FN?$AA?6@| [ DATA ] ; `string'
	EXPORT	|??_C@_13LBAGMAIH@?$AA?6@| [ DATA ]	; `string'
	EXPORT	|??_C@_1BO@MFOKJHPK@?$AAk?$AAe?$AAr?$AAn?$AAe?$AAl?$AAb?$AAa?$AAs?$AAe?$AA?4?$AAd?$AAl?$AAl@| [ DATA ] ; `string'
	EXPORT	|??_C@_0BH@EEDPADAA@RaiseFailFastException@| [ DATA ] ; `string'
	EXPORT	|??_C@_0O@KIMGFJMA@WIL?5Exception@| [ DATA ] ; `string'
	EXPORT	|??_C@_1CI@KEGLKJIE@?$AAs?$AAt?$AAd?$AA?3?$AA?3?$AAe?$AAx?$AAc?$AAe?$AAp?$AAt?$AAi?$AAo?$AAn?$AA?3@| [ DATA ] ; `string'
	EXPORT	|??_C@_0CE@FGCAAGLA@Software?2Microsoft?2Windows?5USB?5@| [ DATA ] ; `string'
	EXPORT	|??_C@_0BC@CNPFEPCO@FixedSamplingRate@| [ DATA ] ; `string'
	EXPORT	|??_C@_0N@FDBGAPPM@PeriodFrames@| [ DATA ] ; `string'
	EXPORT	|??_C@_0BE@NOAOMEBF@ClassicFramesPerIrp@| [ DATA ] ; `string'
	EXPORT	|??_C@_0BF@IAHDLOFO@ClassicFramesPerIrp2@| [ DATA ] ; `string'
	EXPORT	|??_C@_0N@BNFIBEN@MaxIrpNumber@| [ DATA ] ; `string'
	EXPORT	|??_C@_0BD@JPDMMNEG@FirstPacketLatency@| [ DATA ] ; `string'
	EXPORT	|??_C@_0O@DDKFKBEA@PreSendFrames@| [ DATA ] ; `string'
	EXPORT	|??_C@_0BB@PIAJBBGI@OutputFrameDelay@| [ DATA ] ; `string'
	EXPORT	|??_C@_0BK@JNKNPGNG@DelayedOutputBufferSwitch@| [ DATA ] ; `string'
	EXPORT	|??_C@_0L@ONBBLLLB@AsioDevice@| [ DATA ] ; `string'
	EXPORT	|??_C@_0BJ@ENDJMLOO@OutBufferOperationOffset@| [ DATA ] ; `string'
	EXPORT	|??_C@_0N@DLKKJNAP@OutHubOffset@| [ DATA ] ; `string'
	EXPORT	|??_C@_0BI@IIKKMOIC@InBufferOperationOffset@| [ DATA ] ; `string'
	EXPORT	|??_C@_0M@IIIMLOLG@InHubOffset@| [ DATA ] ; `string'
	EXPORT	|??_C@_0BF@BAAHAIB@BufferThreadPriority@| [ DATA ] ; `string'
	EXPORT	|??_C@_0BB@GLAIOBJJ@DropoutDetection@| [ DATA ] ; `string'
	EXPORT	|??_C@_0BH@ECDADGG@OutBulkOperationOffset@| [ DATA ] ; `string'
	EXPORT	|??_C@_0O@CHCBIFB@USBAudio2?9ACX@| [ DATA ] ; `string'
	EXPORT	|??_C@_0O@LGMBKNOO@RenderDevice0@| [ DATA ] ; `string'
	EXPORT	|??_C@_1BG@NOBPGPPM@?$AAY?$AAS?$AAU?$AAS?$AAB?$AA_?$AAA?$AAS?$AAI?$AAO@| [ DATA ] ; `string'
	EXPORT	|??_C@_09OOLPICH@Apartment@| [ DATA ]	; `string'
	EXPORT	|??_C@_0BC@LDCENIFA@USB?5ASIO?5?$CIARM64X?$CJ@| [ DATA ] ; `string'
	EXPORT	|??_C@_0M@BFGLKKGE@USBAsio?4dll@| [ DATA ] ; `string'
	EXPORT	|??_C@_0BO@KGBEPONM@Register?5Server?5failed?5?$CB?5?$CI?$CFd?$CJ@| [ DATA ] ; `string'
	EXPORT	|??_C@_0CA@OPFFDHMA@Unregister?5Server?5failed?5?$CB?5?$CI?$CFd?$CJ@| [ DATA ] ; `string'
	EXPORT	|??_C@_08KPIIIDA@CUSBAsio@| [ DATA ]	; `string'
	EXPORT	|??_C@_02KPKOKMHB@?$CFS@| [ DATA ]	; `string'
	EXPORT	|??_C@_0L@CIJEIFL@channel?5?$CFu@| [ DATA ] ; `string'
	EXPORT	|??_C@_0BI@EKCPACDK@USBAsioControlPanel?4exe@| [ DATA ] ; `string'
	EXPORT	|??_C@_06DIJPEION@?$CFs?$CFs?$CFs@| [ DATA ] ; `string'
	EXPORT	|??_C@_09FJFDCAPM@Pro?5Audio@| [ DATA ]	; `string'
	EXPORT	|_GUID_6994ad04_93ef_11d0_a3cc_00a0c9223196| [ DATA ]
	EXPORT	|??_R4IASIO@@6B@| [ DATA ]		; IASIO::`RTTI Complete Object Locator'
	EXPORT	|??_R4exception@std@@6B@| [ DATA ]	; std::exception::`RTTI Complete Object Locator'
	EXPORT	|??_R3IASIO@@8| [ DATA ]		; IASIO::`RTTI Class Hierarchy Descriptor'
	EXPORT	|??_R3CUSBAsio@@8| [ DATA ]		; CUSBAsio::`RTTI Class Hierarchy Descriptor'
	EXPORT	|??_R0?AVbad_alloc@std@@@8| [ DATA ]	; std::bad_alloc `RTTI Type Descriptor'
	EXPORT	|g_pfnResultLoggingCallback| [ DATA ]
	EXPORT	|?g_pfnResultFromCaughtException@wil@@3P6AJX_EEA| [ DATA ] ; wil::g_pfnResultFromCaughtException
	EXPORT	|?g_resultMessageCallbackSet@details@wil@@3_NA| [ DATA ] ; wil::details::g_resultMessageCallbackSet
	EXPORT	|?g_pfnFormatNtStatusMsg@details@wil@@3P6AXJPEA_WK@ZEA| [ DATA ] ; wil::details::g_pfnFormatNtStatusMsg
	EXPORT	|g_pfnResultFromCaughtException_CppWinRt| [ DATA ]
	EXPORT	|g_pfnResultFromCaughtException_WinRt| [ DATA ]
	EXPORT	|??_R17?0A@EA@INonDelegatingUnknown@@8| [ DATA ] ; INonDelegatingUnknown::`RTTI Base Class Descriptor at (8,-1,0,64)'
	EXPORT	|??_R3ResultException@wil@@8| [ DATA ]	; wil::ResultException::`RTTI Class Hierarchy Descriptor'
	EXPORT	|??_R1A@?0A@EA@IASIO@@8| [ DATA ]	; IASIO::`RTTI Base Class Descriptor at (0,-1,0,64)'
	EXPORT	|??_R2CUSBAsio@@8| [ DATA ]		; CUSBAsio::`RTTI Base Class Array'
	EXPORT	|??_7CUSBAsio@@6BCUnknown@@@| [ DATA ]	; CUSBAsio::`vftable'
	EXPORT	|?s_fModuleValid@?1??GetCurrentModuleName@details@wil@@YAPEBDXZ@4_NC| [ DATA ] ; `wil::details::GetCurrentModuleName'::`2'::s_fModuleValid
	EXPORT	|?s_hrErrorLast@?1??RecordFailFast@details@wil@@YAHJ@Z@4JC| [ DATA ] ; `wil::details::RecordFailFast'::`2'::s_hrErrorLast
	EXPORT	|??_7IASIO@@6B@| [ DATA ]		; IASIO::`vftable'
	EXPORT	|??_R1A@?0A@EA@exception@std@@8| [ DATA ] ; std::exception::`RTTI Base Class Descriptor at (0,-1,0,64)'
	EXPORT	|??_7CUSBAsio@@6BIASIO@@@| [ DATA ]	; CUSBAsio::`vftable'
	EXPORT	|??_R1BA@?0A@EA@CBaseObject@@8| [ DATA ] ; CBaseObject::`RTTI Base Class Descriptor at (16,-1,0,64)'
	EXPORT	|??_R1A@?0A@EA@ResultException@wil@@8| [ DATA ] ; wil::ResultException::`RTTI Base Class Descriptor at (0,-1,0,64)'
	EXPORT	|??_R0?AVResultException@wil@@@8| [ DATA ] ; wil::ResultException `RTTI Type Descriptor'
	EXPORT	|??_R2IASIO@@8| [ DATA ]		; IASIO::`RTTI Base Class Array'
	EXPORT	|??_R2ResultException@wil@@8| [ DATA ]	; wil::ResultException::`RTTI Base Class Array'
	EXPORT	|?s_szModule@?1??GetCurrentModuleName@details@wil@@YAPEBDXZ@4PADA| [ DATA ] ; `wil::details::GetCurrentModuleName'::`2'::s_szModule
	EXPORT	|??_R2exception@std@@8| [ DATA ]	; std::exception::`RTTI Base Class Array'
	EXPORT	|??_R4CUSBAsio@@6BCUnknown@@@| [ DATA ]	; CUSBAsio::`RTTI Complete Object Locator'
	EXPORT	|KSPROPSETID_LowLatencyAudio| [ DATA ]
	EXPORT	|_CTA2?AVResultException@wil@@| [ DATA ]
	EXPORT	|??_R17?0A@EA@CUnknown@@8| [ DATA ]	; CUnknown::`RTTI Base Class Descriptor at (8,-1,0,64)'
	EXPORT	|??_7exception@std@@6B@| [ DATA ]	; std::exception::`vftable'
	EXPORT	|??_R3exception@std@@8| [ DATA ]	; std::exception::`RTTI Class Hierarchy Descriptor'
	EXPORT	|??_R0?AVCUSBAsio@@@8| [ DATA ]		; CUSBAsio `RTTI Type Descriptor'
	EXPORT	|?IID_ASIO_DRIVER@@3U_GUID@@A| [ DATA ]	; IID_ASIO_DRIVER
	EXPORT	|??_R4ResultException@wil@@6B@| [ DATA ] ; wil::ResultException::`RTTI Complete Object Locator'
	EXPORT	|??_R0?AUIASIO@@@8| [ DATA ]		; IASIO `RTTI Type Descriptor'
	EXPORT	|??_R1A@?0A@EA@CUSBAsio@@8| [ DATA ]	; CUSBAsio::`RTTI Base Class Descriptor at (0,-1,0,64)'
	EXPORT	|??_R4CUSBAsio@@6BIASIO@@@| [ DATA ]	; CUSBAsio::`RTTI Complete Object Locator'
	EXPORT	|??_7ResultException@wil@@6B@| [ DATA ]	; wil::ResultException::`vftable'
	EXPORT	|_CT??_R0?AVexception@std@@@8??0exception@std@@QEAA@AEBV01@@Z24| [ DATA ]
	EXPORT	|_CT??_R0?AVResultException@wil@@@8??0ResultException@wil@@QEAA@AEBV01@@Z208| [ DATA ]
	EXPORT	|??_R0?AVexception@std@@@8| [ DATA ]	; std::exception `RTTI Type Descriptor'
	EXPORT	|_TI2?AVResultException@wil@@| [ DATA ]
	IMPORT	|_splitpath_s|
	IMPORT	|__imp_QueryPerformanceCounter|
	IMPORT	|__imp_CreateEventA|
	IMPORT	|__imp_DebugBreak|
	IMPORT	|__imp_CreateProcessA|
	IMPORT	|__imp_LoadStringA|
	IMPORT	|__imp_GetModuleHandleW|
	IMPORT	|__imp_GetProcessHeap|
	IMPORT	|__imp_DeleteCriticalSection|
	IMPORT	|__imp_AvSetMmThreadCharacteristicsA|
	IMPORT	|__imp_GetProcAddress|
	IMPORT	|__imp_AvSetMmThreadPriority|
	IMPORT	|??_U@YAPEAX_K@Z|			; operator new[]
	IMPORT	|__imp_HeapAlloc|
	IMPORT	|__imp_ResetEvent|
	IMPORT	|__imp_CloseHandle|
	IMPORT	|_errno|
	IMPORT	|__stdio_common_vswprintf|
	IMPORT	|__imp_QueryPerformanceFrequency|
	IMPORT	|__imp_SetEvent|
	IMPORT	|__imp_K32GetModuleFileNameExA|
	IMPORT	|__imp_FormatMessageW|
	IMPORT	|_purecall|
	IMPORT	|__imp_Sleep|
	IMPORT	|_invalid_parameter_noinfo|
	IMPORT	|__imp_MessageBoxA|
	IMPORT	|__std_exception_copy|
	IMPORT	|__imp_GetCurrentThreadId|
	IMPORT	|__imp_WaitForSingleObject|
	IMPORT	|__imp_InitializeCriticalSectionEx|
	IMPORT	|_beginthreadex|
	IMPORT	|__imp_LeaveCriticalSection|
	IMPORT	|__imp_SetThreadPriority|
	IMPORT	|__imp_WaitForMultipleObjects|
	IMPORT	|__imp_GetModuleHandleExW|
	IMPORT	|__imp_GetCurrentProcess|
	IMPORT	|__imp_EnterCriticalSection|
	IMPORT	|__imp_HeapFree|
	IMPORT	|__imp_timeGetTime|
	IMPORT	|??_V@YAXPEAX@Z|			; operator delete[]
	IMPORT	|__std_exception_destroy|

	AREA	|.bss|, NOINIT
|g_pfnResultLoggingCallback| % 0x8

	AREA	|.bss|, NOINIT
|?g_pfnResultFromCaughtException@wil@@3P6AJX_EEA| % 0x8	; wil::g_pfnResultFromCaughtException

	AREA	|.bss|, NOINIT
|?g_resultMessageCallbackSet@details@wil@@3_NA| % 0x1	; wil::details::g_resultMessageCallbackSet

	AREA	|.bss|, NOINIT
|?g_pfnFormatNtStatusMsg@details@wil@@3P6AXJPEA_WK@ZEA| % 0x8 ; wil::details::g_pfnFormatNtStatusMsg

	AREA	|.bss|, NOINIT
|g_pfnResultFromCaughtException_CppWinRt| % 0x8

	AREA	|.bss|, NOINIT
|g_pfnResultFromCaughtException_WinRt| % 0x8

	AREA	|.bss|, NOINIT
|?s_fModuleValid@?1??GetCurrentModuleName@details@wil@@YAPEBDXZ@4_NC| % 0x1 ; `wil::details::GetCurrentModuleName'::`2'::s_fModuleValid

	AREA	|.bss|, NOINIT
|?s_hrErrorLast@?1??RecordFailFast@details@wil@@YAHJ@Z@4JC| % 0x4 ; `wil::details::RecordFailFast'::`2'::s_hrErrorLast

	AREA	|.bss|, NOINIT
|?s_szModule@?1??GetCurrentModuleName@details@wil@@YAPEBDXZ@4PADA| % 0x40 ; `wil::details::GetCurrentModuleName'::`2'::s_szModule

	AREA	|.xdata$x|, DATA, READONLY
|_TI2?AVResultException@wil@@| DCD 0x0
	DCD	|??1ResultException@wil@@UEAA@XZ|
	DCD	0x0
	DCD	|_CTA2?AVResultException@wil@@|

	AREA	|.data$r|, DATA
|??_R0?AVexception@std@@@8| DCQ |??_7type_info@@6B@|, 0	; std::exception `RTTI Type Descriptor'
	DCQ	0x0000000000000000
	DCB	".?AVexception@std@@", 0x0

	AREA	|.xdata$x|, DATA, READONLY
|_CT??_R0?AVResultException@wil@@@8??0ResultException@wil@@QEAA@AEBV01@@Z208| DCD 0x0
	DCD	|??_R0?AVResultException@wil@@@8|
	DCD	0x0
	DCD	0xffffffff
	%	4
	DCD	0xd0
	DCD	|??0ResultException@wil@@QEAA@AEBV01@@Z|

	AREA	|.xdata$x|, DATA, READONLY
|_CT??_R0?AVexception@std@@@8??0exception@std@@QEAA@AEBV01@@Z24| DCD 0x0
	DCD	|??_R0?AVexception@std@@@8|
	DCD	0x0
	DCD	0xffffffff
	%	4
	DCD	0x18
	DCD	|??0exception@std@@QEAA@AEBV01@@Z|

	AREA	|.rdata|, DATA, READONLY
|??_7ResultException@wil@@6B@| DCQ |??_R4ResultException@wil@@6B@|, 0 ; wil::ResultException::`vftable'
	DCQ	|??_EResultException@wil@@UEAAPEAXI@Z|, 0
	DCQ	|?what@ResultException@wil@@UEBAPEBDXZ|, 0

	AREA	|.rdata$r|, DATA, READONLY
|??_R4CUSBAsio@@6BIASIO@@@| DCD 0x1			; CUSBAsio::`RTTI Complete Object Locator'
	DCD	0x0
	DCD	0x0
	DCD	|??_R0?AVCUSBAsio@@@8|
	DCD	|??_R3CUSBAsio@@8|
	DCD	|??_R4CUSBAsio@@6BIASIO@@@|

	AREA	|.rdata$r|, DATA, READONLY
|??_R1A@?0A@EA@CUSBAsio@@8| DCD |??_R0?AVCUSBAsio@@@8|	; CUSBAsio::`RTTI Base Class Descriptor at (0,-1,0,64)'
	DCD	0x5
	DCD	0x0
	DCD	0xffffffff
	DCD	0x0
	DCD	0x40
	DCD	|??_R3CUSBAsio@@8|

	AREA	|.data$rs|, DATA
|??_R0?AUIASIO@@@8| DCQ |??_7type_info@@6B@|, 0		; IASIO `RTTI Type Descriptor'
	DCQ	0x0000000000000000
	DCB	".?AUIASIO@@", 0x0

	AREA	|.rdata$r|, DATA, READONLY
|??_R4ResultException@wil@@6B@| DCD 0x1			; wil::ResultException::`RTTI Complete Object Locator'
	DCD	0x0
	DCD	0x0
	DCD	|??_R0?AVResultException@wil@@@8|
	DCD	|??_R3ResultException@wil@@8|
	DCD	|??_R4ResultException@wil@@6B@|

	AREA	|.data$rs|, DATA
|??_R0?AVCUSBAsio@@@8| DCQ |??_7type_info@@6B@|, 0	; CUSBAsio `RTTI Type Descriptor'
	DCQ	0x0000000000000000
	DCB	".?AVCUSBAsio@@", 0x0

	AREA	|.rdata$r|, DATA, READONLY
|??_R3exception@std@@8| DCD 0x0				; std::exception::`RTTI Class Hierarchy Descriptor'
	DCD	0x0
	DCD	0x1
	DCD	|??_R2exception@std@@8|

	AREA	|.rdata|, DATA, READONLY
|??_7exception@std@@6B@| DCQ |??_R4exception@std@@6B@|, 0 ; std::exception::`vftable'
	DCQ	|??_Eexception@std@@UEAAPEAXI@Z|, 0
	DCQ	|?what@exception@std@@UEBAPEBDXZ|, 0

	AREA	|.rdata$r|, DATA, READONLY
|??_R17?0A@EA@CUnknown@@8| DCD |??_R0?AVCUnknown@@@8|	; CUnknown::`RTTI Base Class Descriptor at (8,-1,0,64)'
	DCD	0x2
	DCD	0x8
	DCD	0xffffffff
	DCD	0x0
	DCD	0x40
	DCD	|??_R3CUnknown@@8|

	AREA	|.xdata$x|, DATA, READONLY
|_CTA2?AVResultException@wil@@| DCD 0x2
	DCD	|_CT??_R0?AVResultException@wil@@@8??0ResultException@wil@@QEAA@AEBV01@@Z208|
	DCD	|_CT??_R0?AVexception@std@@@8??0exception@std@@QEAA@AEBV01@@Z24|

	AREA	|.rdata|, DATA, READONLY
|KSPROPSETID_LowLatencyAudio| DCD 0x16af08f
	DCW	0xf499
	DCW	0x4637
	DCB	0xb7
	DCB	0xa5
	DCB	0xaf
	DCB	0xc0
	DCB	0x1c
	DCB	0x86
	DCB	0x27
	DCB	0x6f

	AREA	|.rdata$r|, DATA, READONLY
|??_R4CUSBAsio@@6BCUnknown@@@| DCD 0x1			; CUSBAsio::`RTTI Complete Object Locator'
	DCD	0x8
	DCD	0x0
	DCD	|??_R0?AVCUSBAsio@@@8|
	DCD	|??_R3CUSBAsio@@8|
	DCD	|??_R4CUSBAsio@@6BCUnknown@@@|

	AREA	|.rdata$r|, DATA, READONLY
|??_R2exception@std@@8| DCD |??_R1A@?0A@EA@exception@std@@8| ; std::exception::`RTTI Base Class Array'
	%	3

	AREA	|.rdata$r|, DATA, READONLY
|??_R2ResultException@wil@@8| DCD |??_R1A@?0A@EA@ResultException@wil@@8| ; wil::ResultException::`RTTI Base Class Array'
	DCD	|??_R1A@?0A@EA@exception@std@@8|
	%	3

	AREA	|.rdata$r|, DATA, READONLY
|??_R2IASIO@@8| DCD |??_R1A@?0A@EA@IASIO@@8|		; IASIO::`RTTI Base Class Array'
	DCD	|??_R1A@?0A@EA@IUnknown@@8|
	%	3

	AREA	|.data$r|, DATA
|??_R0?AVResultException@wil@@@8| DCQ |??_7type_info@@6B@|, 0 ; wil::ResultException `RTTI Type Descriptor'
	DCQ	0x0000000000000000
	DCB	".?AVResultException@wil@@", 0x0

	AREA	|.rdata$r|, DATA, READONLY
|??_R1A@?0A@EA@ResultException@wil@@8| DCD |??_R0?AVResultException@wil@@@8| ; wil::ResultException::`RTTI Base Class Descriptor at (0,-1,0,64)'
	DCD	0x1
	DCD	0x0
	DCD	0xffffffff
	DCD	0x0
	DCD	0x40
	DCD	|??_R3ResultException@wil@@8|

	AREA	|.rdata$r|, DATA, READONLY
|??_R1BA@?0A@EA@CBaseObject@@8| DCD |??_R0?AVCBaseObject@@@8| ; CBaseObject::`RTTI Base Class Descriptor at (16,-1,0,64)'
	DCD	0x0
	DCD	0x10
	DCD	0xffffffff
	DCD	0x0
	DCD	0x40
	DCD	|??_R3CBaseObject@@8|

	AREA	|.rdata|, DATA, READONLY
|??_7CUSBAsio@@6BIASIO@@@| DCQ |??_R4CUSBAsio@@6BIASIO@@@|, 0 ; CUSBAsio::`vftable'
	DCQ	|?QueryInterface@CUSBAsio@@UEAAJAEBU_GUID@@PEAPEAX@Z|, 0
	DCQ	|?AddRef@CUSBAsio@@UEAAKXZ|, 0
	DCQ	|?Release@CUSBAsio@@UEAAKXZ|, 0
	DCQ	|?init@CUSBAsio@@UEAAJPEAX@Z|, 0
	DCQ	|?getDriverName@CUSBAsio@@UEAAXPEAD@Z|, 0
	DCQ	|?getDriverVersion@CUSBAsio@@UEAAJXZ|, 0
	DCQ	|?getErrorMessage@CUSBAsio@@UEAAXPEAD@Z|, 0
	DCQ	|?start@CUSBAsio@@UEAAJXZ|, 0
	DCQ	|?stop@CUSBAsio@@UEAAJXZ|, 0
	DCQ	|?getChannels@CUSBAsio@@UEAAJPEAJ0@Z|, 0
	DCQ	|?getLatencies@CUSBAsio@@UEAAJPEAJ0@Z|, 0
	DCQ	|?getBufferSize@CUSBAsio@@UEAAJPEAJ000@Z|, 0
	DCQ	|?canSampleRate@CUSBAsio@@UEAAJN@Z|, 0
	DCQ	|?getSampleRate@CUSBAsio@@UEAAJPEAN@Z|, 0
	DCQ	|?setSampleRate@CUSBAsio@@UEAAJN@Z|, 0
	DCQ	|?getClockSources@CUSBAsio@@UEAAJPEAUASIOClockSource@@PEAJ@Z|, 0
	DCQ	|?setClockSource@CUSBAsio@@UEAAJJ@Z|, 0
	DCQ	|?getSamplePosition@CUSBAsio@@UEAAJPEAUASIOSamples@@PEAUASIOTimeStamp@@@Z|, 0
	DCQ	|?getChannelInfo@CUSBAsio@@UEAAJPEAUASIOChannelInfo@@@Z|, 0
	DCQ	|?createBuffers@CUSBAsio@@UEAAJPEAUASIOBufferInfo@@JJPEAUASIOCallbacks@@@Z|, 0
	DCQ	|?disposeBuffers@CUSBAsio@@UEAAJXZ|, 0
	DCQ	|?controlPanel@CUSBAsio@@UEAAJXZ|, 0
	DCQ	|?future@CUSBAsio@@UEAAJJPEAX@Z|, 0
	DCQ	|?outputReady@CUSBAsio@@UEAAJXZ|, 0

	AREA	|.rdata$r|, DATA, READONLY
|??_R1A@?0A@EA@exception@std@@8| DCD |??_R0?AVexception@std@@@8| ; std::exception::`RTTI Base Class Descriptor at (0,-1,0,64)'
	DCD	0x0
	DCD	0x0
	DCD	0xffffffff
	DCD	0x0
	DCD	0x40
	DCD	|??_R3exception@std@@8|

	AREA	|.rdata|, DATA, READONLY
|??_7IASIO@@6B@| DCQ |??_R4IASIO@@6B@|, 0		; IASIO::`vftable'
	DCQ	|_purecall|, 0
	DCQ	|_purecall|, 0
	DCQ	|_purecall|, 0
	DCQ	|_purecall|, 0
	DCQ	|_purecall|, 0
	DCQ	|_purecall|, 0
	DCQ	|_purecall|, 0
	DCQ	|_purecall|, 0
	DCQ	|_purecall|, 0
	DCQ	|_purecall|, 0
	DCQ	|_purecall|, 0
	DCQ	|_purecall|, 0
	DCQ	|_purecall|, 0
	DCQ	|_purecall|, 0
	DCQ	|_purecall|, 0
	DCQ	|_purecall|, 0
	DCQ	|_purecall|, 0
	DCQ	|_purecall|, 0
	DCQ	|_purecall|, 0
	DCQ	|_purecall|, 0
	DCQ	|_purecall|, 0
	DCQ	|_purecall|, 0
	DCQ	|_purecall|, 0
	DCQ	|_purecall|, 0

	AREA	|.rdata|, DATA, READONLY
|??_7CUSBAsio@@6BCUnknown@@@| DCQ |??_R4CUSBAsio@@6BCUnknown@@@|, 0 ; CUSBAsio::`vftable'
	DCQ	|?NonDelegatingQueryInterface@CUSBAsio@@UEAAJAEBU_GUID@@PEAPEAX@Z|, 0
	DCQ	|?NonDelegatingAddRef@CUnknown@@UEAAKXZ|, 0
	DCQ	|?NonDelegatingRelease@CUnknown@@UEAAKXZ|, 0
	DCQ	|??_ECUSBAsio@@W7EAAPEAXI@Z|, 0

	AREA	|.rdata$r|, DATA, READONLY
|??_R2CUSBAsio@@8| DCD |??_R1A@?0A@EA@CUSBAsio@@8|	; CUSBAsio::`RTTI Base Class Array'
	DCD	|??_R1A@?0A@EA@IASIO@@8|
	DCD	|??_R1A@?0A@EA@IUnknown@@8|
	DCD	|??_R17?0A@EA@CUnknown@@8|
	DCD	|??_R17?0A@EA@INonDelegatingUnknown@@8|
	DCD	|??_R1BA@?0A@EA@CBaseObject@@8|
	%	3

	AREA	|.interprocess|, DATA
|?g_WorkerThread@@3JA| DCD 0x0				; g_WorkerThread
|?g_AsioResetThread@@3JA| DCD 0x0			; g_AsioResetThread
|?g_Instance@@3JA| DCD 0x0				; g_Instance

	AREA	|.rdata$r|, DATA, READONLY
|??_R1A@?0A@EA@IASIO@@8| DCD |??_R0?AUIASIO@@@8|	; IASIO::`RTTI Base Class Descriptor at (0,-1,0,64)'
	DCD	0x1
	DCD	0x0
	DCD	0xffffffff
	DCD	0x0
	DCD	0x40
	DCD	|??_R3IASIO@@8|

	AREA	|.rdata$r|, DATA, READONLY
|??_R3ResultException@wil@@8| DCD 0x0			; wil::ResultException::`RTTI Class Hierarchy Descriptor'
	DCD	0x0
	DCD	0x2
	DCD	|??_R2ResultException@wil@@8|

	AREA	|.rdata$r|, DATA, READONLY
|??_R17?0A@EA@INonDelegatingUnknown@@8| DCD |??_R0?AUINonDelegatingUnknown@@@8| ; INonDelegatingUnknown::`RTTI Base Class Descriptor at (8,-1,0,64)'
	DCD	0x0
	DCD	0x8
	DCD	0xffffffff
	DCD	0x0
	DCD	0x40
	DCD	|??_R3INonDelegatingUnknown@@8|

	AREA	|.data$r|, DATA
|??_R0?AVbad_alloc@std@@@8| DCQ |??_7type_info@@6B@|, 0	; std::bad_alloc `RTTI Type Descriptor'
	DCQ	0x0000000000000000
	DCB	".?AVbad_alloc@std@@", 0x0

	AREA	|.rdata$r|, DATA, READONLY
|??_R3CUSBAsio@@8| DCD 0x0				; CUSBAsio::`RTTI Class Hierarchy Descriptor'
	DCD	0x1
	DCD	0x6
	DCD	|??_R2CUSBAsio@@8|

	AREA	|.rdata$r|, DATA, READONLY
|??_R3IASIO@@8| DCD 0x0					; IASIO::`RTTI Class Hierarchy Descriptor'
	DCD	0x0
	DCD	0x2
	DCD	|??_R2IASIO@@8|

	AREA	|.rdata$r|, DATA, READONLY
|??_R4exception@std@@6B@| DCD 0x1			; std::exception::`RTTI Complete Object Locator'
	DCD	0x0
	DCD	0x0
	DCD	|??_R0?AVexception@std@@@8|
	DCD	|??_R3exception@std@@8|
	DCD	|??_R4exception@std@@6B@|

	AREA	|.rdata$r|, DATA, READONLY
|??_R4IASIO@@6B@| DCD 0x1				; IASIO::`RTTI Complete Object Locator'
	DCD	0x0
	DCD	0x0
	DCD	|??_R0?AUIASIO@@@8|
	DCD	|??_R3IASIO@@8|
	DCD	|??_R4IASIO@@6B@|

	AREA	|.rdata|, DATA, READONLY
|_GUID_6994ad04_93ef_11d0_a3cc_00a0c9223196| DCD 0x6994ad04
	DCW	0x93ef
	DCW	0x11d0
	DCB	0xa3
	DCB	0xcc
	DCB	0x0
	DCB	0xa0
	DCB	0xc9
	DCB	0x22
	DCB	0x31
	DCB	0x96

	AREA	|.rdata|, DATA, READONLY
|??_C@_09FJFDCAPM@Pro?5Audio@| DCB "Pro Audio", 0x0	; `string'

	AREA	|.rdata|, DATA, READONLY
|??_C@_06DIJPEION@?$CFs?$CFs?$CFs@| DCB "%s%s%s", 0x0	; `string'

	AREA	|.rdata|, DATA, READONLY
|??_C@_0BI@EKCPACDK@USBAsioControlPanel?4exe@| DCB "USBAsioControlPanel.e"
	DCB	"xe", 0x0				; `string'

	AREA	|.rdata|, DATA, READONLY
|??_C@_0L@CIJEIFL@channel?5?$CFu@| DCB "channel %u", 0x0 ; `string'

	AREA	|.rdata|, DATA, READONLY
|??_C@_02KPKOKMHB@?$CFS@| DCB "%S", 0x0			; `string'

	AREA	|.rdata|, DATA, READONLY
|??_C@_08KPIIIDA@CUSBAsio@| DCB "CUSBAsio", 0x0		; `string'

	AREA	|.rdata|, DATA, READONLY
|??_C@_0CA@OPFFDHMA@Unregister?5Server?5failed?5?$CB?5?$CI?$CFd?$CJ@| DCB "U"
	DCB	"nregister Server failed ! (%d)", 0x0	; `string'

	AREA	|.rdata|, DATA, READONLY
|??_C@_0BO@KGBEPONM@Register?5Server?5failed?5?$CB?5?$CI?$CFd?$CJ@| DCB "R"
	DCB	"egister Server failed ! (%d)", 0x0	; `string'

	AREA	|.rdata|, DATA, READONLY
|??_C@_0M@BFGLKKGE@USBAsio?4dll@| DCB "USBAsio.dll", 0x0 ; `string'

	AREA	|.rdata|, DATA, READONLY
|??_C@_0BC@LDCENIFA@USB?5ASIO?5?$CIARM64X?$CJ@| DCB "USB ASIO (ARM64X)", 0x0 ; `string'

	AREA	|.rdata|, DATA, READONLY
|??_C@_09OOLPICH@Apartment@| DCB "Apartment", 0x0	; `string'

	AREA	|.rdata|, DATA, READONLY
|??_C@_1BG@NOBPGPPM@?$AAY?$AAS?$AAU?$AAS?$AAB?$AA_?$AAA?$AAS?$AAI?$AAO@| DCB "Y"
	DCB	0x0, "S", 0x0, "U", 0x0, "S", 0x0, "B", 0x0, "_", 0x0, "A"
	DCB	0x0, "S", 0x0, "I", 0x0, "O", 0x0, 0x0, 0x0 ; `string'

	AREA	|.rdata|, DATA, READONLY
|??_C@_0O@LGMBKNOO@RenderDevice0@| DCB "RenderDevice0", 0x0 ; `string'

	AREA	|.rdata|, DATA, READONLY
|??_C@_0O@CHCBIFB@USBAudio2?9ACX@| DCB "USBAudio2-ACX", 0x0 ; `string'

	AREA	|.rdata|, DATA, READONLY
|??_C@_0BH@ECDADGG@OutBulkOperationOffset@| DCB "OutBulkOperationOffset", 0x0 ; `string'

	AREA	|.rdata|, DATA, READONLY
|??_C@_0BB@GLAIOBJJ@DropoutDetection@| DCB "DropoutDetection", 0x0 ; `string'

	AREA	|.rdata|, DATA, READONLY
|??_C@_0BF@BAAHAIB@BufferThreadPriority@| DCB "BufferThreadPriority", 0x0 ; `string'

	AREA	|.rdata|, DATA, READONLY
|??_C@_0M@IIIMLOLG@InHubOffset@| DCB "InHubOffset", 0x0	; `string'

	AREA	|.rdata|, DATA, READONLY
|??_C@_0BI@IIKKMOIC@InBufferOperationOffset@| DCB "InBufferOperationOffse"
	DCB	"t", 0x0				; `string'

	AREA	|.rdata|, DATA, READONLY
|??_C@_0N@DLKKJNAP@OutHubOffset@| DCB "OutHubOffset", 0x0 ; `string'

	AREA	|.rdata|, DATA, READONLY
|??_C@_0BJ@ENDJMLOO@OutBufferOperationOffset@| DCB "OutBufferOperationOff"
	DCB	"set", 0x0				; `string'

	AREA	|.rdata|, DATA, READONLY
|??_C@_0L@ONBBLLLB@AsioDevice@| DCB "AsioDevice", 0x0	; `string'

	AREA	|.rdata|, DATA, READONLY
|??_C@_0BK@JNKNPGNG@DelayedOutputBufferSwitch@| DCB "DelayedOutputBufferS"
	DCB	"witch", 0x0				; `string'

	AREA	|.rdata|, DATA, READONLY
|??_C@_0BB@PIAJBBGI@OutputFrameDelay@| DCB "OutputFrameDelay", 0x0 ; `string'

	AREA	|.rdata|, DATA, READONLY
|??_C@_0O@DDKFKBEA@PreSendFrames@| DCB "PreSendFrames", 0x0 ; `string'

	AREA	|.rdata|, DATA, READONLY
|??_C@_0BD@JPDMMNEG@FirstPacketLatency@| DCB "FirstPacketLatency", 0x0 ; `string'

	AREA	|.rdata|, DATA, READONLY
|??_C@_0N@BNFIBEN@MaxIrpNumber@| DCB "MaxIrpNumber", 0x0 ; `string'

	AREA	|.rdata|, DATA, READONLY
|??_C@_0BF@IAHDLOFO@ClassicFramesPerIrp2@| DCB "ClassicFramesPerIrp2", 0x0 ; `string'

	AREA	|.rdata|, DATA, READONLY
|??_C@_0BE@NOAOMEBF@ClassicFramesPerIrp@| DCB "ClassicFramesPerIrp", 0x0 ; `string'

	AREA	|.rdata|, DATA, READONLY
|??_C@_0N@FDBGAPPM@PeriodFrames@| DCB "PeriodFrames", 0x0 ; `string'

	AREA	|.rdata|, DATA, READONLY
|??_C@_0BC@CNPFEPCO@FixedSamplingRate@| DCB "FixedSamplingRate", 0x0 ; `string'

	AREA	|.rdata|, DATA, READONLY
|??_C@_0CE@FGCAAGLA@Software?2Microsoft?2Windows?5USB?5@| DCB "Software\\"
	DCB	"Microsoft\\Windows USB ASIO", 0x0	; `string'

	AREA	|.rdata|, DATA, READONLY
|??_C@_1CI@KEGLKJIE@?$AAs?$AAt?$AAd?$AA?3?$AA?3?$AAe?$AAx?$AAc?$AAe?$AAp?$AAt?$AAi?$AAo?$AAn?$AA?3@| DCB "s"
	DCB	0x0, "t", 0x0, "d", 0x0, ":", 0x0, ":", 0x0, "e", 0x0, "x"
	DCB	0x0, "c", 0x0, "e", 0x0, "p", 0x0, "t", 0x0, "i", 0x0, "o"
	DCB	0x0, "n", 0x0, ":", 0x0, " ", 0x0, "%", 0x0, "h", 0x0, "s"
	DCB	0x0, 0x0, 0x0				; `string'

	AREA	|.rdata|, DATA, READONLY
|??_C@_0O@KIMGFJMA@WIL?5Exception@| DCB "WIL Exception", 0x0 ; `string'

	AREA	|.rdata|, DATA, READONLY
|??_C@_0BH@EEDPADAA@RaiseFailFastException@| DCB "RaiseFailFastException", 0x0 ; `string'

	AREA	|.rdata|, DATA, READONLY
|??_C@_1BO@MFOKJHPK@?$AAk?$AAe?$AAr?$AAn?$AAe?$AAl?$AAb?$AAa?$AAs?$AAe?$AA?4?$AAd?$AAl?$AAl@| DCB "k"
	DCB	0x0, "e", 0x0, "r", 0x0, "n", 0x0, "e", 0x0, "l", 0x0, "b"
	DCB	0x0, "a", 0x0, "s", 0x0, "e", 0x0, ".", 0x0, "d", 0x0, "l"
	DCB	0x0, "l", 0x0, 0x0, 0x0			; `string'

	AREA	|.rdata|, DATA, READONLY
|??_C@_13LBAGMAIH@?$AA?6@| DCB 0xa, 0x0, 0x0, 0x0	; `string'

	AREA	|.rdata|, DATA, READONLY
|??_C@_1O@PJKHPDBK@?$AA?$FL?$AA?$CF?$AAh?$AAs?$AA?$FN?$AA?6@| DCB "[", 0x0
	DCB	"%", 0x0, "h", 0x0, "s", 0x0, "]", 0x0, 0xa, 0x0, 0x0, 0x0 ; `string'

	AREA	|.rdata|, DATA, READONLY
|??_C@_1BI@PKOCHLJN@?$AA?$FL?$AA?$CF?$AAh?$AAs?$AA?$CI?$AA?$CF?$AAh?$AAs?$AA?$CJ?$AA?$FN?$AA?6@| DCB "["
	DCB	0x0, "%", 0x0, "h", 0x0, "s", 0x0, "(", 0x0, "%", 0x0, "h"
	DCB	0x0, "s", 0x0, ")", 0x0, "]", 0x0, 0xa, 0x0, 0x0, 0x0 ; `string'

	AREA	|.rdata|, DATA, READONLY
|??_C@_1CG@CGJKEFKG@?$AAC?$AAa?$AAl?$AAl?$AAC?$AAo?$AAn?$AAt?$AAe?$AAx?$AAt?$AA?3?$AA?$FL?$AA?$CF?$AAh@| DCB "C"
	DCB	0x0, "a", 0x0, "l", 0x0, "l", 0x0, "C", 0x0, "o", 0x0, "n"
	DCB	0x0, "t", 0x0, "e", 0x0, "x", 0x0, "t", 0x0, ":", 0x0, "["
	DCB	0x0, "%", 0x0, "h", 0x0, "s", 0x0, "]", 0x0, " ", 0x0, 0x0
	DCB	0x0					; `string'

	AREA	|.rdata|, DATA, READONLY
|??_C@_1BG@MCLOHHAM@?$AAM?$AAs?$AAg?$AA?3?$AA?$FL?$AA?$CF?$AAw?$AAs?$AA?$FN?$AA?5@| DCB "M"
	DCB	0x0, "s", 0x0, "g", 0x0, ":", 0x0, "[", 0x0, "%", 0x0, "w"
	DCB	0x0, "s", 0x0, "]", 0x0, " ", 0x0, 0x0, 0x0 ; `string'

	AREA	|.rdata|, DATA, READONLY
|??_C@_19NMAFMAH@?$AA?5?$AA?5?$AA?5?$AA?5@| DCB " ", 0x0, " ", 0x0, " ", 0x0
	DCB	" ", 0x0, 0x0, 0x0			; `string'

	AREA	|.rdata|, DATA, READONLY
|??_C@_1DC@MFHOKFOG@?$AA?$CF?$AAh?$AAs?$AA?$CI?$AA?$CF?$AAd?$AA?$CJ?$AA?5?$AAt?$AAi?$AAd?$AA?$CI?$AA?$CF?$AAx?$AA?$CJ@| DCB "%"
	DCB	0x0, "h", 0x0, "s", 0x0, "(", 0x0, "%", 0x0, "d", 0x0, ")"
	DCB	0x0, " ", 0x0, "t", 0x0, "i", 0x0, "d", 0x0, "(", 0x0, "%"
	DCB	0x0, "x", 0x0, ")", 0x0, " ", 0x0, "%", 0x0, "0", 0x0, "8"
	DCB	0x0, "X", 0x0, " ", 0x0, "%", 0x0, "w", 0x0, "s", 0x0, 0x0
	DCB	0x0					; `string'

	AREA	|.rdata|, DATA, READONLY
|??_C@_1BM@EAHLIJPA@?$AA?$CI?$AAc?$AAa?$AAl?$AAl?$AAe?$AAr?$AA?3?$AA?5?$AA?$CF?$AAp?$AA?$CJ?$AA?5@| DCB "("
	DCB	0x0, "c", 0x0, "a", 0x0, "l", 0x0, "l", 0x0, "e", 0x0, "r"
	DCB	0x0, ":", 0x0, " ", 0x0, "%", 0x0, "p", 0x0, ")", 0x0, " "
	DCB	0x0, 0x0, 0x0				; `string'

	AREA	|.rdata|, DATA, READONLY
|??_C@_1BC@HOGHCIFF@?$AA?$CF?$AAh?$AAs?$AA?$CB?$AA?$CF?$AAp?$AA?3?$AA?5@| DCB "%"
	DCB	0x0, "h", 0x0, "s", 0x0, "!", 0x0, "%", 0x0, "p", 0x0, ":"
	DCB	0x0, " ", 0x0, 0x0, 0x0			; `string'

	AREA	|.rdata|, DATA, READONLY
|??_C@_1CC@NCIPMFAO@?$AA?$CF?$AAh?$AAs?$AA?$CI?$AA?$CF?$AAu?$AA?$CJ?$AA?2?$AA?$CF?$AAh?$AAs?$AA?$CB?$AA?$CF?$AAp?$AA?3@| DCB "%"
	DCB	0x0, "h", 0x0, "s", 0x0, "(", 0x0, "%", 0x0, "u", 0x0, ")"
	DCB	0x0, "\\", 0x0, "%", 0x0, "h", 0x0, "s", 0x0, "!", 0x0, "%"
	DCB	0x0, "p", 0x0, ":", 0x0, " ", 0x0, 0x0, 0x0 ; `string'

	AREA	|.rdata|, DATA, READONLY
|??_C@_08IAOKKAJK@FailFast@| DCB "FailFast", 0x0	; `string'

	AREA	|.rdata|, DATA, READONLY
|??_C@_05OILEHMGB@LogHr@| DCB "LogHr", 0x0		; `string'

	AREA	|.rdata|, DATA, READONLY
|??_C@_05LKGDKHFF@LogNt@| DCB "LogNt", 0x0		; `string'

	AREA	|.rdata|, DATA, READONLY
|??_C@_08KFPKLAKH@ReturnHr@| DCB "ReturnHr", 0x0	; `string'

	AREA	|.rdata|, DATA, READONLY
|??_C@_08PHCNGLJD@ReturnNt@| DCB "ReturnNt", 0x0	; `string'

	AREA	|.rdata|, DATA, READONLY
|??_C@_09FBNMMHMJ@Exception@| DCB "Exception", 0x0	; `string'

	AREA	|.rdata|, DATA, READONLY
|??_C@_0BC@EOODALEL@Unknown?5exception@| DCB "Unknown exception", 0x0 ; `string'

	AREA	|.rdata|, DATA, READONLY
|??_C@_00CNPNBAHC@@| DCB 0x0				; `string'

	AREA	|.rdata|, DATA, READONLY
|?g_NumOfTemplates@@3HA| DCD 0x1			; g_NumOfTemplates
	%	4
|?c_PeriodFramesValueName@@3PEBDEB| DCQ |??_C@_0N@FDBGAPPM@PeriodFrames@|, 0 ; c_PeriodFramesValueName
|?c_RegistryKeyName@@3PEBDEB| DCQ |??_C@_0CE@FGCAAGLA@Software?2Microsoft?2Windows?5USB?5@|, 0 ; c_RegistryKeyName
|?c_DropoutDetectionName@@3PEBDEB| DCQ |??_C@_0BB@GLAIOBJJ@DropoutDetection@|, 0 ; c_DropoutDetectionName
|?c_FirstPacketLatencyValueName@@3PEBDEB| DCQ |??_C@_0BD@JPDMMNEG@FirstPacketLatency@|, 0 ; c_FirstPacketLatencyValueName
|?c_OutputHubOffsetName@@3PEBDEB| DCQ |??_C@_0N@DLKKJNAP@OutHubOffset@|, 0 ; c_OutputHubOffsetName
|?c_FrameRateList@@3QBKB| DCD 0x2b11			; c_FrameRateList
	DCD	0x5622
	DCD	0x7d00
	DCD	0xac44
	DCD	0xbb80
	DCD	0x15888
	DCD	0x17700
	DCD	0x2b110
	DCD	0x2ee00
	DCD	0x56220
	DCD	0x5dc00
	DCD	0xac440
	DCD	0xbb800
	%	4
|?c_BufferThreadPriorityName@@3PEBDEB| DCQ |??_C@_0BF@BAAHAIB@BufferThreadPriority@|, 0 ; c_BufferThreadPriorityName
|?c_OutputFrameDelayValueName@@3PEBDEB| DCQ |??_C@_0BB@PIAJBBGI@OutputFrameDelay@|, 0 ; c_OutputFrameDelayValueName
|?c_ClassicFramesPerIrp2ValueName@@3PEBDEB| DCQ |??_C@_0BF@IAHDLOFO@ClassicFramesPerIrp2@|, 0 ; c_ClassicFramesPerIrp2ValueName
|?c_ReferenceName@@3PEBDEB| DCQ |??_C@_0O@LGMBKNOO@RenderDevice0@|, 0 ; c_ReferenceName
|?c_DelayedOutputBufferSwitchName@@3PEBDEB| DCQ |??_C@_0BK@JNKNPGNG@DelayedOutputBufferSwitch@|, 0 ; c_DelayedOutputBufferSwitchName
|?c_AsioDeviceValueName@@3PEBDEB| DCQ |??_C@_0L@ONBBLLLB@AsioDevice@|, 0 ; c_AsioDeviceValueName
|?c_ClassicFramesPerIrpValueName@@3PEBDEB| DCQ |??_C@_0BE@NOAOMEBF@ClassicFramesPerIrp@|, 0 ; c_ClassicFramesPerIrpValueName
|?c_ServiceName@@3PEBDEB| DCQ |??_C@_0O@CHCBIFB@USBAudio2?9ACX@|, 0 ; c_ServiceName
|?c_PreSendFramesValueName@@3PEBDEB| DCQ |??_C@_0O@DDKFKBEA@PreSendFrames@|, 0 ; c_PreSendFramesValueName
|?c_MaxIrpNumberValueName@@3PEBDEB| DCQ |??_C@_0N@BNFIBEN@MaxIrpNumber@|, 0 ; c_MaxIrpNumberValueName
|?c_FixedSamplingRateValueName@@3PEBDEB| DCQ |??_C@_0BC@CNPFEPCO@FixedSamplingRate@|, 0 ; c_FixedSamplingRateValueName
|?c_InputBufferOperationOffsetName@@3PEBDEB| DCQ |??_C@_0BI@IIKKMOIC@InBufferOperationOffset@|, 0 ; c_InputBufferOperationOffsetName
|?c_OutputBufferOperationOffsetName@@3PEBDEB| DCQ |??_C@_0BJ@ENDJMLOO@OutBufferOperationOffset@|, 0 ; c_OutputBufferOperationOffsetName
|?c_InputHubOffsetName@@3PEBDEB| DCQ |??_C@_0M@IIIMLOLG@InHubOffset@|, 0 ; c_InputHubOffsetName

	AREA	|.data|, DATA
|?g_Templates@@3PAVCFactoryTemplate@@A| DCQ |??_C@_1BG@NOBPGPPM@?$AAY?$AAS?$AAU?$AAS?$AAB?$AA_?$AAA?$AAS?$AAI?$AAO@|, 0 ; g_Templates
	DCQ	|?IID_ASIO_DRIVER@@3U_GUID@@A|, 0
	DCQ	|?CreateInstance@CUSBAsio@@SAPEAVCUnknown@@PEAUIUnknown@@PEAJ@Z|, 0
	%	8
|?IID_ASIO_DRIVER@@3U_GUID@@A| DCD 0x327468a4		; IID_ASIO_DRIVER
	DCW	0x1351
	DCW	0x4930
	DCB	0xbb
	DCB	0x6b
	DCB	0xf
	DCB	0xeb
	DCB	0x69
	DCB	0xbf
	DCB	0x5d
	DCB	0x70
	EXPORT	|??_ECUSBAsio@@W7EAAPEAXI@Z|		; [thunk]:CUSBAsio::`vector deleting destructor'
	EXPORT	|?is_valid@?$resource_policy@PEAU_RTL_CRITICAL_SECTION@@P6AXPEAU1@@Z$1?LeaveCriticalSection@@YAX0@ZU?$integral_constant@_K$00@wistd@@PEAU1@PEAU1@$0A@$$T@details@wil@@SA_NPEAU_RTL_CRITICAL_SECTION@@@Z| ; wil::details::resource_policy<_RTL_CRITICAL_SECTION *,void (__cdecl*)(_RTL_CRITICAL_SECTION *),&LeaveCriticalSection,wistd::integral_constant<unsigned __int64,1>,_RTL_CRITICAL_SECTION *,_RTL_CRITICAL_SECTION *,0,std::nullptr_t>::is_valid
	EXPORT	|??0?$unique_storage@U?$resource_policy@PEAU_RTL_CRITICAL_SECTION@@P6AXPEAU1@@Z$1?LeaveCriticalSection@@YAX0@ZU?$integral_constant@_K$00@wistd@@PEAU1@PEAU1@$0A@$$T@details@wil@@@details@wil@@QEAA@PEAU_RTL_CRITICAL_SECTION@@@Z| ; wil::details::unique_storage<wil::details::resource_policy<_RTL_CRITICAL_SECTION *,void (__cdecl*)(_RTL_CRITICAL_SECTION *),&LeaveCriticalSection,wistd::integral_constant<unsigned __int64,1>,_RTL_CRITICAL_SECTION *,_RTL_CRITICAL_SECTION *,0,std::nullptr_t> >::unique_storage<wil::details::resource_policy<_RTL_CRITICAL_SECTION *,void (__cdecl*)(_RTL_CRITICAL_SECTION *),&LeaveCriticalSection,wistd::integral_constant<unsigned __int64,1>,_RTL_CRITICAL_SECTION *,_RTL_CRITICAL_SECTION *,0,std::nullptr_t> >
	EXPORT	|?close@?$close_invoke_helper@$00P6AXPEAU_RTL_CRITICAL_SECTION@@@Z$1?LeaveCriticalSection@@YAX0@ZPEAU1@@details@wil@@SAXPEAU_RTL_CRITICAL_SECTION@@@Z| ; wil::details::close_invoke_helper<1,void (__cdecl*)(_RTL_CRITICAL_SECTION *),&LeaveCriticalSection,_RTL_CRITICAL_SECTION *>::close
	EXPORT	|??$forward@AEAPEAU_RTL_CRITICAL_SECTION@@@wistd@@YAAEAPEAU_RTL_CRITICAL_SECTION@@AEAPEAU1@@Z| ; wistd::forward<_RTL_CRITICAL_SECTION * &>
	EXPORT	|??$assign_to_opt_param@PEBD@wil@@YAXPEAPEBDPEBD@Z| ; wil::assign_to_opt_param<char const *>
	EXPORT	|??$assign_null_to_opt_param@PEBD@wil@@YAXPEAPEBD@Z| ; wil::assign_null_to_opt_param<char const *>
	EXPORT	|??$assign_to_opt_param@PEB_W@wil@@YAXPEAPEB_WPEB_W@Z| ; wil::assign_to_opt_param<wchar_t const *>
	EXPORT	|??$assign_null_to_opt_param@PEB_W@wil@@YAXPEAPEB_W@Z| ; wil::assign_null_to_opt_param<wchar_t const *>
	EXPORT	|??1?$unique_storage@U?$resource_policy@PEAU_RTL_CRITICAL_SECTION@@P6AXPEAU1@@Z$1?LeaveCriticalSection@@YAX0@ZU?$integral_constant@_K$00@wistd@@PEAU1@PEAU1@$0A@$$T@details@wil@@@details@wil@@QEAA@XZ| ; wil::details::unique_storage<wil::details::resource_policy<_RTL_CRITICAL_SECTION *,void (__cdecl*)(_RTL_CRITICAL_SECTION *),&LeaveCriticalSection,wistd::integral_constant<unsigned __int64,1>,_RTL_CRITICAL_SECTION *,_RTL_CRITICAL_SECTION *,0,std::nullptr_t> >::~unique_storage<wil::details::resource_policy<_RTL_CRITICAL_SECTION *,void (__cdecl*)(_RTL_CRITICAL_SECTION *),&LeaveCriticalSection,wistd::integral_constant<unsigned __int64,1>,_RTL_CRITICAL_SECTION *,_RTL_CRITICAL_SECTION *,0,std::nullptr_t> >
	EXPORT	|??$?0AEAPEAU_RTL_CRITICAL_SECTION@@$$V@?$unique_any_t@V?$unique_storage@U?$resource_policy@PEAU_RTL_CRITICAL_SECTION@@P6AXPEAU1@@Z$1?LeaveCriticalSection@@YAX0@ZU?$integral_constant@_K$00@wistd@@PEAU1@PEAU1@$0A@$$T@details@wil@@@details@wil@@@wil@@QEAA@AEAPEAU_RTL_CRITICAL_SECTION@@@Z| ; wil::unique_any_t<wil::details::unique_storage<wil::details::resource_policy<_RTL_CRITICAL_SECTION *,void (__cdecl*)(_RTL_CRITICAL_SECTION *),&LeaveCriticalSection,wistd::integral_constant<unsigned __int64,1>,_RTL_CRITICAL_SECTION *,_RTL_CRITICAL_SECTION *,0,std::nullptr_t> > >::unique_any_t<wil::details::unique_storage<wil::details::resource_policy<_RTL_CRITICAL_SECTION *,void (__cdecl*)(_RTL_CRITICAL_SECTION *),&LeaveCriticalSection,wistd::integral_constant<unsigned __int64,1>,_RTL_CRITICAL_SECTION *,_RTL_CRITICAL_SECTION *,0,std::nullptr_t> > ><_RTL_CRITICAL_SECTION * &>
	EXPORT	|??$WriteResultString@PEBD@details@wil@@YAPEAEPEAE0PEBDPEAPEBD@Z| ; wil::details::WriteResultString<char const *>
	EXPORT	|??$WriteResultString@PEB_W@details@wil@@YAPEAEPEAE0PEB_WPEAPEB_W@Z| ; wil::details::WriteResultString<wchar_t const *>
	EXPORT	|??$GetProcAddress@P6AXPEAU_EXCEPTION_RECORD@@PEAU_CONTEXT@@K@Z@details@wil@@YAP6AXPEAU_EXCEPTION_RECORD@@PEAU_CONTEXT@@K@ZPEAUHINSTANCE__@@PEBD@Z| ; wil::details::GetProcAddress<void (__cdecl*)(_EXCEPTION_RECORD *,_CONTEXT *,unsigned long)>
	EXPORT	|??$assign_to_opt_param@I@wil@@YAXPEAII@Z| ; wil::assign_to_opt_param<unsigned int>
	EXPORT	|?WorkerThread@CUSBAsio@@CAIPEAX@Z|	; CUSBAsio::WorkerThread
	EXPORT	|?ThreadStop@CUSBAsio@@AEAAXXZ|		; CUSBAsio::ThreadStop
	EXPORT	|?ThreadStart@CUSBAsio@@AEAAXXZ|	; CUSBAsio::ThreadStart
	EXPORT	|?AsioResetThread@CUSBAsio@@CAIPEAX@Z|	; CUSBAsio::AsioResetThread
	EXPORT	|?RequestClockInfoChange@CUSBAsio@@AEAA_NXZ| ; CUSBAsio::RequestClockInfoChange
	EXPORT	|?ObtainDeviceParameter@CUSBAsio@@AEAA_NXZ| ; CUSBAsio::ObtainDeviceParameter
	EXPORT	|?GetDesiredPath@CUSBAsio@@AEAA_NXZ|	; CUSBAsio::GetDesiredPath
	EXPORT	|?ExecuteControlPanel@CUSBAsio@@AEAA_NXZ| ; CUSBAsio::ExecuteControlPanel
	EXPORT	|?ApplySettings@CUSBAsio@@AEAA_NXZ|	; CUSBAsio::ApplySettings
	EXPORT	|?MeasureLatency@CUSBAsio@@AEAA_NXZ|	; CUSBAsio::MeasureLatency
	EXPORT	|?outputReady@CUSBAsio@@UEAAJXZ|	; CUSBAsio::outputReady
	EXPORT	|?GetSupportedSampleFormats@CUSBAsio@@CAKXZ| ; CUSBAsio::GetSupportedSampleFormats
	EXPORT	|?BufferSwitchX@CUSBAsio@@AEAAXXZ|	; CUSBAsio::BufferSwitchX
	EXPORT	|?BufferSwitch@CUSBAsio@@QEAAXXZ|	; CUSBAsio::BufferSwitch
	EXPORT	|?future@CUSBAsio@@UEAAJJPEAX@Z|	; CUSBAsio::future
	EXPORT	|?controlPanel@CUSBAsio@@UEAAJXZ|	; CUSBAsio::controlPanel
	EXPORT	|?disposeBuffers@CUSBAsio@@UEAAJXZ|	; CUSBAsio::disposeBuffers
	EXPORT	|?createBuffers@CUSBAsio@@UEAAJPEAUASIOBufferInfo@@JJPEAUASIOCallbacks@@@Z| ; CUSBAsio::createBuffers
	EXPORT	|?getChannelInfo@CUSBAsio@@UEAAJPEAUASIOChannelInfo@@@Z| ; CUSBAsio::getChannelInfo
	EXPORT	|?getSamplePosition@CUSBAsio@@UEAAJPEAUASIOSamples@@PEAUASIOTimeStamp@@@Z| ; CUSBAsio::getSamplePosition
	EXPORT	|?setClockSource@CUSBAsio@@UEAAJJ@Z|	; CUSBAsio::setClockSource
	EXPORT	|?getClockSources@CUSBAsio@@UEAAJPEAUASIOClockSource@@PEAJ@Z| ; CUSBAsio::getClockSources
	EXPORT	|?setSampleRate@CUSBAsio@@UEAAJN@Z|	; CUSBAsio::setSampleRate
	EXPORT	|?getSampleRate@CUSBAsio@@UEAAJPEAN@Z|	; CUSBAsio::getSampleRate
	EXPORT	|?canSampleRate@CUSBAsio@@UEAAJN@Z|	; CUSBAsio::canSampleRate
	EXPORT	|?getBufferSize@CUSBAsio@@UEAAJPEAJ000@Z| ; CUSBAsio::getBufferSize
	EXPORT	|?getLatencies@CUSBAsio@@UEAAJPEAJ0@Z|	; CUSBAsio::getLatencies
	EXPORT	|?__autoclassinit2@?$unique_any_t@V?$unique_storage@U?$resource_policy@PEAU_RTL_CRITICAL_SECTION@@P6AXPEAU1@@Z$1?LeaveCriticalSection@@YAX0@ZU?$integral_constant@_K$00@wistd@@PEAU1@PEAU1@$0A@$$T@details@wil@@@details@wil@@@wil@@QEAAX_K@Z| ; wil::unique_any_t<wil::details::unique_storage<wil::details::resource_policy<_RTL_CRITICAL_SECTION *,void (__cdecl*)(_RTL_CRITICAL_SECTION *),&LeaveCriticalSection,wistd::integral_constant<unsigned __int64,1>,_RTL_CRITICAL_SECTION *,_RTL_CRITICAL_SECTION *,0,std::nullptr_t> > >::__autoclassinit2
	EXPORT	|?getChannels@CUSBAsio@@UEAAJPEAJ0@Z|	; CUSBAsio::getChannels
	EXPORT	|?stop@CUSBAsio@@UEAAJXZ|		; CUSBAsio::stop
	EXPORT	|?start@CUSBAsio@@UEAAJXZ|		; CUSBAsio::start
	EXPORT	|?init@CUSBAsio@@UEAAJPEAX@Z|		; CUSBAsio::init
	EXPORT	|?getErrorMessage@CUSBAsio@@UEAAXPEAD@Z| ; CUSBAsio::getErrorMessage
	EXPORT	|?getDriverVersion@CUSBAsio@@UEAAJXZ|	; CUSBAsio::getDriverVersion
	EXPORT	|?getDriverName@CUSBAsio@@UEAAXPEAD@Z|	; CUSBAsio::getDriverName
	EXPORT	|??1CUSBAsio@@UEAA@XZ|			; CUSBAsio::~CUSBAsio
	EXPORT	|??0IASIO@@QEAA@XZ|			; IASIO::IASIO
	EXPORT	|??_GCUSBAsio@@UEAAPEAXI@Z|		; CUSBAsio::`scalar deleting destructor'
	EXPORT	|??0CUSBAsio@@QEAA@PEAUIUnknown@@PEAJ@Z| ; CUSBAsio::CUSBAsio
	EXPORT	|?NonDelegatingQueryInterface@CUSBAsio@@UEAAJAEBU_GUID@@PEAPEAX@Z| ; CUSBAsio::NonDelegatingQueryInterface
	EXPORT	|?__autoclassinit2@CUSBAsio@@QEAAX_K@Z|	; CUSBAsio::__autoclassinit2
	EXPORT	|?CreateInstance@CUSBAsio@@SAPEAVCUnknown@@PEAUIUnknown@@PEAJ@Z| ; CUSBAsio::CreateInstance
	EXPORT	|?Release@CUSBAsio@@UEAAKXZ|		; CUSBAsio::Release
	EXPORT	|?AddRef@CUSBAsio@@UEAAKXZ|		; CUSBAsio::AddRef
	EXPORT	|?QueryInterface@CUSBAsio@@UEAAJAEBU_GUID@@PEAPEAX@Z| ; CUSBAsio::QueryInterface
	EXPORT	|?toInt@@YAHW4UACSampleType@@@Z|	; toInt
	EXPORT	|?toInt@@YAHW4UserThreadStatuses@@@Z|	; toInt
	EXPORT	|?toInt@@YAHW4DeviceStatuses@@@Z|	; toInt
	EXPORT	|?toULong@@YAKW4UACSampleFormat@@@Z|	; toULong
	EXPORT	|?GetOwner@CUnknown@@QEBAPEAUIUnknown@@XZ| ; CUnknown::GetOwner
	EXPORT	|?lock@critical_section@wil@@QEAA?AV?$unique_any_t@V?$unique_storage@U?$resource_policy@PEAU_RTL_CRITICAL_SECTION@@P6AXPEAU1@@Z$1?LeaveCriticalSection@@YAX0@ZU?$integral_constant@_K$00@wistd@@PEAU1@PEAU1@$0A@$$T@details@wil@@@details@wil@@@2@XZ| ; wil::critical_section::lock
	EXPORT	|??1critical_section@wil@@QEAA@XZ|	; wil::critical_section::~critical_section
	EXPORT	|??0critical_section@wil@@QEAA@K@Z|	; wil::critical_section::critical_section
	EXPORT	|??1?$unique_any_t@V?$unique_storage@U?$resource_policy@PEAU_RTL_CRITICAL_SECTION@@P6AXPEAU1@@Z$1?LeaveCriticalSection@@YAX0@ZU?$integral_constant@_K$00@wistd@@PEAU1@PEAU1@$0A@$$T@details@wil@@@details@wil@@@wil@@QEAA@XZ| ; wil::unique_any_t<wil::details::unique_storage<wil::details::resource_policy<_RTL_CRITICAL_SECTION *,void (__cdecl*)(_RTL_CRITICAL_SECTION *),&LeaveCriticalSection,wistd::integral_constant<unsigned __int64,1>,_RTL_CRITICAL_SECTION *,_RTL_CRITICAL_SECTION *,0,std::nullptr_t> > >::~unique_any_t<wil::details::unique_storage<wil::details::resource_policy<_RTL_CRITICAL_SECTION *,void (__cdecl*)(_RTL_CRITICAL_SECTION *),&LeaveCriticalSection,wistd::integral_constant<unsigned __int64,1>,_RTL_CRITICAL_SECTION *,_RTL_CRITICAL_SECTION *,0,std::nullptr_t> > >
	EXPORT	|?EnterCriticalSection@wil@@YA?AV?$unique_any_t@V?$unique_storage@U?$resource_policy@PEAU_RTL_CRITICAL_SECTION@@P6AXPEAU1@@Z$1?LeaveCriticalSection@@YAX0@ZU?$integral_constant@_K$00@wistd@@PEAU1@PEAU1@$0A@$$T@details@wil@@@details@wil@@@1@PEAU_RTL_CRITICAL_SECTION@@@Z| ; wil::EnterCriticalSection
	EXPORT	|?RunFunctorWithExceptionFilter@details@wil@@YAJAEAUIFunctor@12@AEAUIFunctorHost@12@PEAX@Z| ; wil::details::RunFunctorWithExceptionFilter
	EXPORT	|?ResultFromCaughtExceptionInternal@details@wil@@YA?AUResultStatus@12@PEA_W_KPEA_N@Z| ; wil::details::ResultFromCaughtExceptionInternal
	EXPORT	|??0StoredFailureInfo@wil@@QEAA@AEBV01@@Z| ; wil::StoredFailureInfo::StoredFailureInfo
	EXPORT	|??0ResultException@wil@@QEAA@AEBV01@@Z| ; wil::ResultException::ResultException
	EXPORT	|?ThrowResultExceptionInternal@details@wil@@YAXAEBUFailureInfo@2@@Z| ; wil::details::ThrowResultExceptionInternal
	EXPORT	|?Rethrow@details@wil@@YAXXZ|		; wil::details::Rethrow
	EXPORT	|?RecognizeCaughtExceptionFromCallback@details@wil@@YAJPEA_W_K@Z| ; wil::details::RecognizeCaughtExceptionFromCallback
	EXPORT	|?MaybeGetExceptionString@details@wil@@YAXAEBVexception@std@@PEA_W_K@Z| ; wil::details::MaybeGetExceptionString
	EXPORT	|?MaybeGetExceptionString@details@wil@@YAXAEBVResultException@2@PEA_W_K@Z| ; wil::details::MaybeGetExceptionString
	EXPORT	|??1StoredFailureInfo@wil@@QEAA@XZ|	; wil::StoredFailureInfo::~StoredFailureInfo
	EXPORT	|??1ResultException@wil@@UEAA@XZ|	; wil::ResultException::~ResultException
	EXPORT	|??_GResultException@wil@@UEAAPEAXI@Z|	; wil::ResultException::`scalar deleting destructor'
	EXPORT	|?what@ResultException@wil@@UEBAPEBDXZ|	; wil::ResultException::what
	EXPORT	|?GetFailureInfo@ResultException@wil@@QEBAAEBUFailureInfo@2@XZ| ; wil::ResultException::GetFailureInfo
	EXPORT	|??0ResultException@wil@@QEAA@AEBUFailureInfo@1@@Z| ; wil::ResultException::ResultException
	EXPORT	|?SetFailureInfo@StoredFailureInfo@wil@@QEAAXAEBUFailureInfo@2@@Z| ; wil::StoredFailureInfo::SetFailureInfo
	EXPORT	|?GetFailureInfo@StoredFailureInfo@wil@@QEBAAEBUFailureInfo@2@XZ| ; wil::StoredFailureInfo::GetFailureInfo
	EXPORT	|??0StoredFailureInfo@wil@@QEAA@AEBUFailureInfo@1@@Z| ; wil::StoredFailureInfo::StoredFailureInfo
	EXPORT	|?WilInitialize_ResultMacros_DesktopOrSystem_SuppressPrivateApiUse@wil@@YAXXZ| ; wil::WilInitialize_ResultMacros_DesktopOrSystem_SuppressPrivateApiUse
	EXPORT	|?ResultStringSize@details@wil@@YA_KPEB_W@Z| ; wil::details::ResultStringSize
	EXPORT	|?ResultStringSize@details@wil@@YA_KPEBD@Z| ; wil::details::ResultStringSize
	EXPORT	|?HrToNtStatus@details@wil@@YAJJ@Z|	; wil::details::HrToNtStatus
	EXPORT	|?WilDynamicLoadRaiseFailFastException@details@wil@@YAXPEAU_EXCEPTION_RECORD@@PEAU_CONTEXT@@K@Z| ; wil::details::WilDynamicLoadRaiseFailFastException
	EXPORT	|?DebugBreak@details@wil@@YAXXZ|	; wil::details::DebugBreak
	EXPORT	|?GetCurrentModuleName@details@wil@@YAPEBDXZ| ; wil::details::GetCurrentModuleName
	EXPORT	|?K32GetModuleInformation@details@wil@@YA_NPEAXPEAIPEAD_K@Z| ; wil::details::K32GetModuleInformation
	EXPORT	|?RecordFailFast@details@wil@@YAHJ@Z|	; wil::details::RecordFailFast
	EXPORT	|?assign@shared_buffer@details@wil@@AEAAXPEAJ_K@Z| ; wil::details::shared_buffer::assign
	EXPORT	|?unique@shared_buffer@details@wil@@QEBA_NXZ| ; wil::details::shared_buffer::unique
	EXPORT	|??Bshared_buffer@details@wil@@QEBA_NXZ| ; wil::details::shared_buffer::operator bool
	EXPORT	|?size@shared_buffer@details@wil@@QEBA_KXZ| ; wil::details::shared_buffer::size
	EXPORT	|?get@shared_buffer@details@wil@@QEBAPEAXPEA_K@Z| ; wil::details::shared_buffer::get
	EXPORT	|?create@shared_buffer@details@wil@@QEAA_N_K@Z| ; wil::details::shared_buffer::create
	EXPORT	|?create@shared_buffer@details@wil@@QEAA_NPEBX_K@Z| ; wil::details::shared_buffer::create
	EXPORT	|?reset@shared_buffer@details@wil@@QEAAXXZ| ; wil::details::shared_buffer::reset
	EXPORT	|??1shared_buffer@details@wil@@QEAA@XZ|	; wil::details::shared_buffer::~shared_buffer
	EXPORT	|??0shared_buffer@details@wil@@QEAA@AEBV012@@Z| ; wil::details::shared_buffer::shared_buffer
	EXPORT	|??0shared_buffer@details@wil@@QEAA@XZ|	; wil::details::shared_buffer::shared_buffer
	EXPORT	|?FromFailureInfo@ResultStatus@details@wil@@SA?AU123@AEBUFailureInfo@3@@Z| ; wil::details::ResultStatus::FromFailureInfo
	EXPORT	|?FromResult@ResultStatus@details@wil@@SA?AU123@J@Z| ; wil::details::ResultStatus::FromResult
	EXPORT	|?GetFailureLogString@wil@@YAJPEA_W_KAEBUFailureInfo@1@@Z| ; wil::GetFailureLogString
	EXPORT	|?LogStringPrintf@details@wil@@YAPEA_WPEA_WPEB_W1ZZ| ; wil::details::LogStringPrintf
	EXPORT	|??_Gexception@std@@UEAAPEAXI@Z|	; std::exception::`scalar deleting destructor'
	EXPORT	|?what@exception@std@@UEBAPEBDXZ|	; std::exception::what
	EXPORT	|??1exception@std@@UEAA@XZ|		; std::exception::~exception
	EXPORT	|??0exception@std@@QEAA@AEBV01@@Z|	; std::exception::exception
	EXPORT	|??0exception@std@@QEAA@XZ|		; std::exception::exception
	EXPORT	|?StringCchPrintfW@@YAJPEA_W_KPEB_WZZ|	; StringCchPrintfW
	EXPORT	|?StringCchVPrintfW@@YAJPEA_W_KPEB_WPEAD@Z| ; StringCchVPrintfW
	EXPORT	|?StringCchCopyA@@YAJPEAD_KPEBD@Z|	; StringCchCopyA
	EXPORT	|_vsnwprintf|
	EXPORT	|_vsnwprintf_l|
	EXPORT	|?RegisterAsioDriver@@YAJXZ|		; RegisterAsioDriver
	EXPORT	|?UnregisterAsioDriver@@YAJXZ|		; UnregisterAsioDriver
	EXPORT	|g_header_init_WilInitialize_ResultMacros_DesktopOrSystem_SuppressPrivateApiUse| [ DATA ]
	EXPORT	|g_header_init_InitializeResultExceptions| [ DATA ]
	IMPORT	|??_Eexception@std@@UEAAPEAXI@Z|, WEAK |??_Gexception@std@@UEAAPEAXI@Z| ; std::exception::`vector deleting destructor', std::exception::`scalar deleting destructor'
	IMPORT	|??_ECUSBAsio@@UEAAPEAXI@Z|, WEAK |??_GCUSBAsio@@UEAAPEAXI@Z| ; CUSBAsio::`vector deleting destructor', CUSBAsio::`scalar deleting destructor'
	IMPORT	|??_EResultException@wil@@UEAAPEAXI@Z|, WEAK |??_GResultException@wil@@UEAAPEAXI@Z| ; wil::ResultException::`vector deleting destructor', wil::ResultException::`scalar deleting destructor'

	AREA	|.pdata|, PDATA
|$pdata$?close@?$close_invoke_helper@$00P6AXPEAU_RTL_CRITICAL_SECTION@@@Z$1?LeaveCriticalSection@@YAX0@ZPEAU1@@details@wil@@SAXPEAU_RTL_CRITICAL_SECTION@@@Z| DCD |$LN8|
	DCD	0xe0001d
	;Flags[SingleProEpi] functionLength[28] RegF[0] RegI[0] H[0] frameChainReturn[Chained] frameSize[16]

	AREA	|.pdata|, PDATA
|$pdata$?reset@?$lambda_call@V<lambda_1>@?1??createBuffers@CUSBAsio@@UEAAJPEAUASIOBufferInfo@@JJPEAUASIOCallbacks@@@Z@@details@wil@@QEAAXXZ| DCD |?reset@?$lambda_call@V<lambda_1>@?1??createBuffers@CUSBAsio@@UEAAJPEAUASIOBufferInfo@@JJPEAUASIOCallbacks@@@Z@@details@wil@@QEAAXXZ|
	DCD	|$unwind$?reset@?$lambda_call@V<lambda_1>@?1??createBuffers@CUSBAsio@@UEAAJPEAUASIOBufferInfo@@JJPEAUASIOCallbacks@@@Z@@details@wil@@QEAAXXZ|

	AREA	|.pdata|, PDATA
|$pdata$??1?$unique_storage@U?$resource_policy@PEAU_RTL_CRITICAL_SECTION@@P6AXPEAU1@@Z$1?LeaveCriticalSection@@YAX0@ZU?$integral_constant@_K$00@wistd@@PEAU1@PEAU1@$0A@$$T@details@wil@@@details@wil@@QEAA@XZ| DCD |$LN18|
	DCD	0xe00025
	;Flags[SingleProEpi] functionLength[36] RegF[0] RegI[0] H[0] frameChainReturn[Chained] frameSize[16]

	AREA	|.pdata|, PDATA
|$pdata$??1?$lambda_call@V<lambda_1>@?1??createBuffers@CUSBAsio@@UEAAJPEAUASIOBufferInfo@@JJPEAUASIOCallbacks@@@Z@@details@wil@@QEAA@XZ| DCD |??1?$lambda_call@V<lambda_1>@?1??createBuffers@CUSBAsio@@UEAAJPEAUASIOBufferInfo@@JJPEAUASIOCallbacks@@@Z@@details@wil@@QEAA@XZ|
	DCD	|$unwind$??1?$lambda_call@V<lambda_1>@?1??createBuffers@CUSBAsio@@UEAAJPEAUASIOBufferInfo@@JJPEAUASIOCallbacks@@@Z@@details@wil@@QEAA@XZ|

	AREA	|.pdata|, PDATA
|$pdata$??$WriteResultString@PEBD@details@wil@@YAPEAEPEAE0PEBDPEAPEBD@Z| DCD |$LN27|
	DCD	|$unwind$??$WriteResultString@PEBD@details@wil@@YAPEAEPEAE0PEBDPEAPEBD@Z|

	AREA	|.pdata|, PDATA
|$pdata$??$WriteResultString@PEB_W@details@wil@@YAPEAEPEAE0PEB_WPEAPEB_W@Z| DCD |$LN27|
	DCD	|$unwind$??$WriteResultString@PEB_W@details@wil@@YAPEAEPEAE0PEB_WPEAPEB_W@Z|

	AREA	|.pdata|, PDATA
|$pdata$??$GetProcAddress@P6AXPEAU_EXCEPTION_RECORD@@PEAU_CONTEXT@@K@Z@details@wil@@YAP6AXPEAU_EXCEPTION_RECORD@@PEAU_CONTEXT@@K@ZPEAUHINSTANCE__@@PEBD@Z| DCD |$LN8|
	DCD	0xe00025
	;Flags[SingleProEpi] functionLength[36] RegF[0] RegI[0] H[0] frameChainReturn[Chained] frameSize[16]

	AREA	|.pdata|, PDATA
|$pdata$?WorkerThread@CUSBAsio@@CAIPEAX@Z| DCD |$LN198|
	DCD	|$unwind$?WorkerThread@CUSBAsio@@CAIPEAX@Z|

	AREA	|.pdata|, PDATA
|$pdata$?ThreadStop@CUSBAsio@@AEAAXXZ| DCD |$LN14|
	DCD	|$unwind$?ThreadStop@CUSBAsio@@AEAAXXZ|

	AREA	|.pdata|, PDATA
|$pdata$?ThreadStart@CUSBAsio@@AEAAXXZ| DCD |$LN10|
	DCD	0x1610071
	;Flags[SingleProEpi] functionLength[112] RegF[0] RegI[1] H[0] frameChainReturn[Chained] frameSize[32]

	AREA	|.pdata|, PDATA
|$pdata$?AsioResetThread@CUSBAsio@@CAIPEAX@Z| DCD |$LN108|
	DCD	|$unwind$?AsioResetThread@CUSBAsio@@CAIPEAX@Z|

	AREA	|.pdata|, PDATA
|$pdata$?dtor$0@?0??AsioResetThread@CUSBAsio@@CAIPEAX@Z@4HA| DCD |?dtor$0@?0??AsioResetThread@CUSBAsio@@CAIPEAX@Z@4HA|
	DCD	|$unwind$?dtor$0@?0??AsioResetThread@CUSBAsio@@CAIPEAX@Z@4HA|

	AREA	|.pdata|, PDATA
|$pdata$?dtor$1@?0??AsioResetThread@CUSBAsio@@CAIPEAX@Z@4HA| DCD |?dtor$1@?0??AsioResetThread@CUSBAsio@@CAIPEAX@Z@4HA|
	DCD	|$unwind$?dtor$1@?0??AsioResetThread@CUSBAsio@@CAIPEAX@Z@4HA|

	AREA	|.pdata|, PDATA
|$pdata$?RequestClockInfoChange@CUSBAsio@@AEAA_NXZ| DCD |$LN106|
	DCD	|$unwind$?RequestClockInfoChange@CUSBAsio@@AEAA_NXZ|

	AREA	|.pdata|, PDATA
|$pdata$?dtor$0@?0??RequestClockInfoChange@CUSBAsio@@AEAA_NXZ@4HA| DCD |?dtor$0@?0??RequestClockInfoChange@CUSBAsio@@AEAA_NXZ@4HA|
	DCD	|$unwind$?dtor$0@?0??RequestClockInfoChange@CUSBAsio@@AEAA_NXZ@4HA|

	AREA	|.pdata|, PDATA
|$pdata$?ObtainDeviceParameter@CUSBAsio@@AEAA_NXZ| DCD |$LN184|
	DCD	|$unwind$?ObtainDeviceParameter@CUSBAsio@@AEAA_NXZ|

	AREA	|.pdata|, PDATA
|$pdata$?dtor$0@?0??ObtainDeviceParameter@CUSBAsio@@AEAA_NXZ@4HA| DCD |?dtor$0@?0??ObtainDeviceParameter@CUSBAsio@@AEAA_NXZ@4HA|
	DCD	|$unwind$?dtor$0@?0??ObtainDeviceParameter@CUSBAsio@@AEAA_NXZ@4HA|

	AREA	|.pdata|, PDATA
|$pdata$?GetDesiredPath@CUSBAsio@@AEAA_NXZ| DCD |$LN12|
	DCD	|$unwind$?GetDesiredPath@CUSBAsio@@AEAA_NXZ|

	AREA	|.pdata|, PDATA
|$pdata$?ExecuteControlPanel@CUSBAsio@@AEAA_NXZ| DCD |$LN6|
	DCD	|$unwind$?ExecuteControlPanel@CUSBAsio@@AEAA_NXZ|

	AREA	|.pdata|, PDATA
|$pdata$?ApplySettings@CUSBAsio@@AEAA_NXZ| DCD |$LN28|
	DCD	|$unwind$?ApplySettings@CUSBAsio@@AEAA_NXZ|

	AREA	|.pdata|, PDATA
|$pdata$0$?ApplySettings@CUSBAsio@@AEAA_NXZ| DCD |$LN28|+180
	DCD	|$unwind$0$?ApplySettings@CUSBAsio@@AEAA_NXZ|

	AREA	|.pdata|, PDATA
|$pdata$1$?ApplySettings@CUSBAsio@@AEAA_NXZ| DCD |$LN28|+1064
	DCD	|$unwind$1$?ApplySettings@CUSBAsio@@AEAA_NXZ|

	AREA	|.pdata|, PDATA
|$pdata$?outputReady@CUSBAsio@@UEAAJXZ| DCD |$LN49|
	DCD	|$unwind$?outputReady@CUSBAsio@@UEAAJXZ|

	AREA	|.pdata|, PDATA
|$pdata$0$?outputReady@CUSBAsio@@UEAAJXZ| DCD |$LN49|+20
	DCD	|$unwind$0$?outputReady@CUSBAsio@@UEAAJXZ|

	AREA	|.pdata|, PDATA
|$pdata$1$?outputReady@CUSBAsio@@UEAAJXZ| DCD |$LN49|+152
	DCD	|$unwind$1$?outputReady@CUSBAsio@@UEAAJXZ|

	AREA	|.pdata|, PDATA
|$pdata$?BufferSwitchX@CUSBAsio@@AEAAXXZ| DCD |$LN6|
	DCD	0x1610055
	;Flags[SingleProEpi] functionLength[84] RegF[0] RegI[1] H[0] frameChainReturn[Chained] frameSize[32]

	AREA	|.pdata|, PDATA
|$pdata$0$?BufferSwitch@CUSBAsio@@QEAAXXZ| DCD |$LN19|+8
	DCD	|$unwind$0$?BufferSwitch@CUSBAsio@@QEAAXXZ|

	AREA	|.pdata|, PDATA
|$pdata$?future@CUSBAsio@@UEAAJJPEAX@Z| DCD |$LN137|
	DCD	|$unwind$?future@CUSBAsio@@UEAAJJPEAX@Z|

	AREA	|.pdata|, PDATA
|$pdata$?controlPanel@CUSBAsio@@UEAAJXZ| DCD |$LN9|
	DCD	|$unwind$?controlPanel@CUSBAsio@@UEAAJXZ|

	AREA	|.pdata|, PDATA
|$pdata$?disposeBuffers@CUSBAsio@@UEAAJXZ| DCD |$LN141|
	DCD	|$unwind$?disposeBuffers@CUSBAsio@@UEAAJXZ|

	AREA	|.pdata|, PDATA
|$pdata$?dtor$0@?0??disposeBuffers@CUSBAsio@@UEAAJXZ@4HA| DCD |?dtor$0@?0??disposeBuffers@CUSBAsio@@UEAAJXZ@4HA|
	DCD	|$unwind$?dtor$0@?0??disposeBuffers@CUSBAsio@@UEAAJXZ@4HA|

	AREA	|.pdata|, PDATA
|$pdata$?dtor$1@?0??disposeBuffers@CUSBAsio@@UEAAJXZ@4HA| DCD |?dtor$1@?0??disposeBuffers@CUSBAsio@@UEAAJXZ@4HA|
	DCD	|$unwind$?dtor$1@?0??disposeBuffers@CUSBAsio@@UEAAJXZ@4HA|

	AREA	|.pdata|, PDATA
|$pdata$?createBuffers@CUSBAsio@@UEAAJPEAUASIOBufferInfo@@JJPEAUASIOCallbacks@@@Z| DCD |$LN824|
	DCD	|$unwind$?createBuffers@CUSBAsio@@UEAAJPEAUASIOBufferInfo@@JJPEAUASIOCallbacks@@@Z|

	AREA	|.pdata|, PDATA
|$pdata$?dtor$0@?0??createBuffers@CUSBAsio@@UEAAJPEAUASIOBufferInfo@@JJPEAUASIOCallbacks@@@Z@4HA| DCD |?dtor$0@?0??createBuffers@CUSBAsio@@UEAAJPEAUASIOBufferInfo@@JJPEAUASIOCallbacks@@@Z@4HA|
	DCD	|$unwind$?dtor$0@?0??createBuffers@CUSBAsio@@UEAAJPEAUASIOBufferInfo@@JJPEAUASIOCallbacks@@@Z@4HA|

	AREA	|.pdata|, PDATA
|$pdata$?dtor$1@?0??createBuffers@CUSBAsio@@UEAAJPEAUASIOBufferInfo@@JJPEAUASIOCallbacks@@@Z@4HA| DCD |?dtor$1@?0??createBuffers@CUSBAsio@@UEAAJPEAUASIOBufferInfo@@JJPEAUASIOCallbacks@@@Z@4HA|
	DCD	|$unwind$?dtor$1@?0??createBuffers@CUSBAsio@@UEAAJPEAUASIOBufferInfo@@JJPEAUASIOCallbacks@@@Z@4HA|

	AREA	|.pdata|, PDATA
|$pdata$?dtor$2@?0??createBuffers@CUSBAsio@@UEAAJPEAUASIOBufferInfo@@JJPEAUASIOCallbacks@@@Z@4HA| DCD |?dtor$2@?0??createBuffers@CUSBAsio@@UEAAJPEAUASIOBufferInfo@@JJPEAUASIOCallbacks@@@Z@4HA|
	DCD	|$unwind$?dtor$2@?0??createBuffers@CUSBAsio@@UEAAJPEAUASIOBufferInfo@@JJPEAUASIOCallbacks@@@Z@4HA|

	AREA	|.pdata|, PDATA
|$pdata$?dtor$3@?0??createBuffers@CUSBAsio@@UEAAJPEAUASIOBufferInfo@@JJPEAUASIOCallbacks@@@Z@4HA| DCD |?dtor$3@?0??createBuffers@CUSBAsio@@UEAAJPEAUASIOBufferInfo@@JJPEAUASIOCallbacks@@@Z@4HA|
	DCD	|$unwind$?dtor$3@?0??createBuffers@CUSBAsio@@UEAAJPEAUASIOBufferInfo@@JJPEAUASIOCallbacks@@@Z@4HA|

	AREA	|.pdata|, PDATA
|$pdata$?getChannelInfo@CUSBAsio@@UEAAJPEAUASIOChannelInfo@@@Z| DCD |$LN118|
	DCD	|$unwind$?getChannelInfo@CUSBAsio@@UEAAJPEAUASIOChannelInfo@@@Z|

	AREA	|.pdata|, PDATA
|$pdata$0$?getChannelInfo@CUSBAsio@@UEAAJPEAUASIOChannelInfo@@@Z| DCD |$LN118|+16
	DCD	|$unwind$0$?getChannelInfo@CUSBAsio@@UEAAJPEAUASIOChannelInfo@@@Z|

	AREA	|.pdata|, PDATA
|$pdata$1$?getChannelInfo@CUSBAsio@@UEAAJPEAUASIOChannelInfo@@@Z| DCD |$LN118|+396
	DCD	|$unwind$1$?getChannelInfo@CUSBAsio@@UEAAJPEAUASIOChannelInfo@@@Z|

	AREA	|.pdata|, PDATA
|$pdata$2$?getChannelInfo@CUSBAsio@@UEAAJPEAUASIOChannelInfo@@@Z| DCD |$LN118|+408
	DCD	|$unwind$2$?getChannelInfo@CUSBAsio@@UEAAJPEAUASIOChannelInfo@@@Z|

	AREA	|.pdata|, PDATA
|$pdata$3$?getChannelInfo@CUSBAsio@@UEAAJPEAUASIOChannelInfo@@@Z| DCD |$LN118|+436
	DCD	|$unwind$3$?getChannelInfo@CUSBAsio@@UEAAJPEAUASIOChannelInfo@@@Z|

	AREA	|.pdata|, PDATA
|$pdata$4$?getChannelInfo@CUSBAsio@@UEAAJPEAUASIOChannelInfo@@@Z| DCD |$LN118|+452
	DCD	|$unwind$4$?getChannelInfo@CUSBAsio@@UEAAJPEAUASIOChannelInfo@@@Z|

	AREA	|.pdata|, PDATA
|$pdata$5$?getChannelInfo@CUSBAsio@@UEAAJPEAUASIOChannelInfo@@@Z| DCD |$LN118|+464
	DCD	|$unwind$5$?getChannelInfo@CUSBAsio@@UEAAJPEAUASIOChannelInfo@@@Z|

	AREA	|.pdata|, PDATA
|$pdata$?setClockSource@CUSBAsio@@UEAAJJ@Z| DCD |$LN150|
	DCD	|$unwind$?setClockSource@CUSBAsio@@UEAAJJ@Z|

	AREA	|.pdata|, PDATA
|$pdata$?dtor$0@?0??setClockSource@CUSBAsio@@UEAAJJ@Z@4HA| DCD |?dtor$0@?0??setClockSource@CUSBAsio@@UEAAJJ@Z@4HA|
	DCD	|$unwind$?dtor$0@?0??setClockSource@CUSBAsio@@UEAAJJ@Z@4HA|

	AREA	|.pdata|, PDATA
|$pdata$?dtor$1@?0??setClockSource@CUSBAsio@@UEAAJJ@Z@4HA| DCD |?dtor$1@?0??setClockSource@CUSBAsio@@UEAAJJ@Z@4HA|
	DCD	|$unwind$?dtor$1@?0??setClockSource@CUSBAsio@@UEAAJJ@Z@4HA|

	AREA	|.pdata|, PDATA
|$pdata$?getClockSources@CUSBAsio@@UEAAJPEAUASIOClockSource@@PEAJ@Z| DCD |$LN81|
	DCD	|$unwind$?getClockSources@CUSBAsio@@UEAAJPEAUASIOClockSource@@PEAJ@Z|

	AREA	|.pdata|, PDATA
|$pdata$0$?getClockSources@CUSBAsio@@UEAAJPEAUASIOClockSource@@PEAJ@Z| DCD |$LN81|+16
	DCD	|$unwind$0$?getClockSources@CUSBAsio@@UEAAJPEAUASIOClockSource@@PEAJ@Z|

	AREA	|.pdata|, PDATA
|$pdata$1$?getClockSources@CUSBAsio@@UEAAJPEAUASIOClockSource@@PEAJ@Z| DCD |$LN81|+184
	DCD	|$unwind$1$?getClockSources@CUSBAsio@@UEAAJPEAUASIOClockSource@@PEAJ@Z|

	AREA	|.pdata|, PDATA
|$pdata$2$?getClockSources@CUSBAsio@@UEAAJPEAUASIOClockSource@@PEAJ@Z| DCD |$LN81|+196
	DCD	|$unwind$2$?getClockSources@CUSBAsio@@UEAAJPEAUASIOClockSource@@PEAJ@Z|

	AREA	|.pdata|, PDATA
|$pdata$3$?getClockSources@CUSBAsio@@UEAAJPEAUASIOClockSource@@PEAJ@Z| DCD |$LN81|+368
	DCD	|$unwind$3$?getClockSources@CUSBAsio@@UEAAJPEAUASIOClockSource@@PEAJ@Z|

	AREA	|.pdata|, PDATA
|$pdata$?setSampleRate@CUSBAsio@@UEAAJN@Z| DCD |$LN235|
	DCD	|$unwind$?setSampleRate@CUSBAsio@@UEAAJN@Z|

	AREA	|.pdata|, PDATA
|$pdata$?dtor$0@?0??setSampleRate@CUSBAsio@@UEAAJN@Z@4HA| DCD |?dtor$0@?0??setSampleRate@CUSBAsio@@UEAAJN@Z@4HA|
	DCD	|$unwind$?dtor$0@?0??setSampleRate@CUSBAsio@@UEAAJN@Z@4HA|

	AREA	|.pdata|, PDATA
|$pdata$?dtor$1@?0??setSampleRate@CUSBAsio@@UEAAJN@Z@4HA| DCD |?dtor$1@?0??setSampleRate@CUSBAsio@@UEAAJN@Z@4HA|
	DCD	|$unwind$?dtor$1@?0??setSampleRate@CUSBAsio@@UEAAJN@Z@4HA|

	AREA	|.pdata|, PDATA
|$pdata$?getSampleRate@CUSBAsio@@UEAAJPEAN@Z| DCD |$LN48|
	DCD	|$unwind$?getSampleRate@CUSBAsio@@UEAAJPEAN@Z|

	AREA	|.pdata|, PDATA
|$pdata$0$?getSampleRate@CUSBAsio@@UEAAJPEAN@Z| DCD |$LN48|+32
	DCD	|$unwind$0$?getSampleRate@CUSBAsio@@UEAAJPEAN@Z|

	AREA	|.pdata|, PDATA
|$pdata$1$?getSampleRate@CUSBAsio@@UEAAJPEAN@Z| DCD |$LN48|+140
	DCD	|$unwind$1$?getSampleRate@CUSBAsio@@UEAAJPEAN@Z|

	AREA	|.pdata|, PDATA
|$pdata$2$?getSampleRate@CUSBAsio@@UEAAJPEAN@Z| DCD |$LN48|+152
	DCD	|$unwind$2$?getSampleRate@CUSBAsio@@UEAAJPEAN@Z|

	AREA	|.pdata|, PDATA
|$pdata$3$?getSampleRate@CUSBAsio@@UEAAJPEAN@Z| DCD |$LN48|+164
	DCD	|$unwind$3$?getSampleRate@CUSBAsio@@UEAAJPEAN@Z|

	AREA	|.pdata|, PDATA
|$pdata$?canSampleRate@CUSBAsio@@UEAAJN@Z| DCD |$LN82|
	DCD	|$unwind$?canSampleRate@CUSBAsio@@UEAAJN@Z|

	AREA	|.pdata|, PDATA
|$pdata$0$?canSampleRate@CUSBAsio@@UEAAJN@Z| DCD |$LN82|+24
	DCD	|$unwind$0$?canSampleRate@CUSBAsio@@UEAAJN@Z|

	AREA	|.pdata|, PDATA
|$pdata$1$?canSampleRate@CUSBAsio@@UEAAJN@Z| DCD |$LN82|+88
	DCD	|$unwind$1$?canSampleRate@CUSBAsio@@UEAAJN@Z|

	AREA	|.pdata|, PDATA
|$pdata$2$?canSampleRate@CUSBAsio@@UEAAJN@Z| DCD |$LN82|+100
	DCD	|$unwind$2$?canSampleRate@CUSBAsio@@UEAAJN@Z|

	AREA	|.pdata|, PDATA
|$pdata$3$?canSampleRate@CUSBAsio@@UEAAJN@Z| DCD |$LN82|+256
	DCD	|$unwind$3$?canSampleRate@CUSBAsio@@UEAAJN@Z|

	AREA	|.pdata|, PDATA
|$pdata$4$?canSampleRate@CUSBAsio@@UEAAJN@Z| DCD |$LN82|+268
	DCD	|$unwind$4$?canSampleRate@CUSBAsio@@UEAAJN@Z|

	AREA	|.pdata|, PDATA
|$pdata$5$?canSampleRate@CUSBAsio@@UEAAJN@Z| DCD |$LN82|+276
	DCD	|$unwind$5$?canSampleRate@CUSBAsio@@UEAAJN@Z|

	AREA	|.pdata|, PDATA
|$pdata$?getLatencies@CUSBAsio@@UEAAJPEAJ0@Z| DCD |$LN15|
	DCD	|$unwind$?getLatencies@CUSBAsio@@UEAAJPEAJ0@Z|

	AREA	|.pdata|, PDATA
|$pdata$0$?getLatencies@CUSBAsio@@UEAAJPEAJ0@Z| DCD |$LN15|+32
	DCD	|$unwind$0$?getLatencies@CUSBAsio@@UEAAJPEAJ0@Z|

	AREA	|.pdata|, PDATA
|$pdata$1$?getLatencies@CUSBAsio@@UEAAJPEAJ0@Z| DCD |$LN15|+124
	DCD	|$unwind$1$?getLatencies@CUSBAsio@@UEAAJPEAJ0@Z|

	AREA	|.pdata|, PDATA
|$pdata$2$?getLatencies@CUSBAsio@@UEAAJPEAJ0@Z| DCD |$LN15|+136
	DCD	|$unwind$2$?getLatencies@CUSBAsio@@UEAAJPEAJ0@Z|

	AREA	|.pdata|, PDATA
|$pdata$3$?getLatencies@CUSBAsio@@UEAAJPEAJ0@Z| DCD |$LN15|+144
	DCD	|$unwind$3$?getLatencies@CUSBAsio@@UEAAJPEAJ0@Z|

	AREA	|.pdata|, PDATA
|$pdata$?getChannels@CUSBAsio@@UEAAJPEAJ0@Z| DCD |$LN51|
	DCD	|$unwind$?getChannels@CUSBAsio@@UEAAJPEAJ0@Z|

	AREA	|.pdata|, PDATA
|$pdata$0$?getChannels@CUSBAsio@@UEAAJPEAJ0@Z| DCD |$LN51|+24
	DCD	|$unwind$0$?getChannels@CUSBAsio@@UEAAJPEAJ0@Z|

	AREA	|.pdata|, PDATA
|$pdata$1$?getChannels@CUSBAsio@@UEAAJPEAJ0@Z| DCD |$LN51|+136
	DCD	|$unwind$1$?getChannels@CUSBAsio@@UEAAJPEAJ0@Z|

	AREA	|.pdata|, PDATA
|$pdata$2$?getChannels@CUSBAsio@@UEAAJPEAJ0@Z| DCD |$LN51|+148
	DCD	|$unwind$2$?getChannels@CUSBAsio@@UEAAJPEAJ0@Z|

	AREA	|.pdata|, PDATA
|$pdata$3$?getChannels@CUSBAsio@@UEAAJPEAJ0@Z| DCD |$LN51|+160
	DCD	|$unwind$3$?getChannels@CUSBAsio@@UEAAJPEAJ0@Z|

	AREA	|.pdata|, PDATA
|$pdata$4$?getChannels@CUSBAsio@@UEAAJPEAJ0@Z| DCD |$LN51|+172
	DCD	|$unwind$4$?getChannels@CUSBAsio@@UEAAJPEAJ0@Z|

	AREA	|.pdata|, PDATA
|$pdata$5$?getChannels@CUSBAsio@@UEAAJPEAJ0@Z| DCD |$LN51|+188
	DCD	|$unwind$5$?getChannels@CUSBAsio@@UEAAJPEAJ0@Z|

	AREA	|.pdata|, PDATA
|$pdata$0$?stop@CUSBAsio@@UEAAJXZ| DCD |$LN21|+12
	DCD	|$unwind$0$?stop@CUSBAsio@@UEAAJXZ|

	AREA	|.pdata|, PDATA
|$pdata$2$?stop@CUSBAsio@@UEAAJXZ| DCD |$LN21|+184
	DCD	|$unwind$2$?stop@CUSBAsio@@UEAAJXZ|

	AREA	|.pdata|, PDATA
|$pdata$0$?start@CUSBAsio@@UEAAJXZ| DCD |$LN18|+12
	DCD	|$unwind$0$?start@CUSBAsio@@UEAAJXZ|

	AREA	|.pdata|, PDATA
|$pdata$2$?start@CUSBAsio@@UEAAJXZ| DCD |$LN18|+188
	DCD	|$unwind$2$?start@CUSBAsio@@UEAAJXZ|

	AREA	|.pdata|, PDATA
|$pdata$??1CUSBAsio@@UEAA@XZ| DCD |$LN37|
	DCD	|$unwind$??1CUSBAsio@@UEAA@XZ|

	AREA	|.pdata|, PDATA
|$pdata$??_GCUSBAsio@@UEAAPEAXI@Z| DCD |$LN43|
	DCD	|$unwind$??_GCUSBAsio@@UEAAPEAXI@Z|

	AREA	|.pdata|, PDATA
|$pdata$??0CUSBAsio@@QEAA@PEAUIUnknown@@PEAJ@Z| DCD |$LN211|
	DCD	|$unwind$??0CUSBAsio@@QEAA@PEAUIUnknown@@PEAJ@Z|

	AREA	|.pdata|, PDATA
|$pdata$?dtor$0@?0???0CUSBAsio@@QEAA@PEAUIUnknown@@PEAJ@Z@4HA| DCD |?dtor$0@?0???0CUSBAsio@@QEAA@PEAUIUnknown@@PEAJ@Z@4HA|
	DCD	|$unwind$?dtor$0@?0???0CUSBAsio@@QEAA@PEAUIUnknown@@PEAJ@Z@4HA|

	AREA	|.pdata|, PDATA
|$pdata$?dtor$1@?0???0CUSBAsio@@QEAA@PEAUIUnknown@@PEAJ@Z@4HA| DCD |?dtor$1@?0???0CUSBAsio@@QEAA@PEAUIUnknown@@PEAJ@Z@4HA|
	DCD	|$unwind$?dtor$1@?0???0CUSBAsio@@QEAA@PEAUIUnknown@@PEAJ@Z@4HA|

	AREA	|.pdata|, PDATA
|$pdata$?dtor$2@?0???0CUSBAsio@@QEAA@PEAUIUnknown@@PEAJ@Z@4HA| DCD |?dtor$2@?0???0CUSBAsio@@QEAA@PEAUIUnknown@@PEAJ@Z@4HA|
	DCD	|$unwind$?dtor$2@?0???0CUSBAsio@@QEAA@PEAUIUnknown@@PEAJ@Z@4HA|

	AREA	|.pdata|, PDATA
|$pdata$?dtor$3@?0???0CUSBAsio@@QEAA@PEAUIUnknown@@PEAJ@Z@4HA| DCD |?dtor$3@?0???0CUSBAsio@@QEAA@PEAUIUnknown@@PEAJ@Z@4HA|
	DCD	|$unwind$?dtor$3@?0???0CUSBAsio@@QEAA@PEAUIUnknown@@PEAJ@Z@4HA|

	AREA	|.pdata|, PDATA
|$pdata$?NonDelegatingQueryInterface@CUSBAsio@@UEAAJAEBU_GUID@@PEAPEAX@Z| DCD |$LN33|
	DCD	|$unwind$?NonDelegatingQueryInterface@CUSBAsio@@UEAAJAEBU_GUID@@PEAPEAX@Z|

	AREA	|.pdata|, PDATA
|$pdata$?CreateInstance@CUSBAsio@@SAPEAVCUnknown@@PEAUIUnknown@@PEAJ@Z| DCD |$LN243|
	DCD	|$unwind$?CreateInstance@CUSBAsio@@SAPEAVCUnknown@@PEAUIUnknown@@PEAJ@Z|

	AREA	|.pdata|, PDATA
|$pdata$?dtor$0@?0??CreateInstance@CUSBAsio@@SAPEAVCUnknown@@PEAUIUnknown@@PEAJ@Z@4HA| DCD |?dtor$0@?0??CreateInstance@CUSBAsio@@SAPEAVCUnknown@@PEAUIUnknown@@PEAJ@Z@4HA|
	DCD	|$unwind$?dtor$0@?0??CreateInstance@CUSBAsio@@SAPEAVCUnknown@@PEAUIUnknown@@PEAJ@Z@4HA|

	AREA	|.pdata|, PDATA
|$pdata$?dtor$1@?0??CreateInstance@CUSBAsio@@SAPEAVCUnknown@@PEAUIUnknown@@PEAJ@Z@4HA| DCD |?dtor$1@?0??CreateInstance@CUSBAsio@@SAPEAVCUnknown@@PEAUIUnknown@@PEAJ@Z@4HA|
	DCD	|$unwind$?dtor$1@?0??CreateInstance@CUSBAsio@@SAPEAVCUnknown@@PEAUIUnknown@@PEAJ@Z@4HA|

	AREA	|.pdata|, PDATA
|$pdata$?dtor$2@?0??CreateInstance@CUSBAsio@@SAPEAVCUnknown@@PEAUIUnknown@@PEAJ@Z@4HA| DCD |?dtor$2@?0??CreateInstance@CUSBAsio@@SAPEAVCUnknown@@PEAUIUnknown@@PEAJ@Z@4HA|
	DCD	|$unwind$?dtor$2@?0??CreateInstance@CUSBAsio@@SAPEAVCUnknown@@PEAUIUnknown@@PEAJ@Z@4HA|

	AREA	|.pdata|, PDATA
|$pdata$?dtor$3@?0??CreateInstance@CUSBAsio@@SAPEAVCUnknown@@PEAUIUnknown@@PEAJ@Z@4HA| DCD |?dtor$3@?0??CreateInstance@CUSBAsio@@SAPEAVCUnknown@@PEAUIUnknown@@PEAJ@Z@4HA|
	DCD	|$unwind$?dtor$3@?0??CreateInstance@CUSBAsio@@SAPEAVCUnknown@@PEAUIUnknown@@PEAJ@Z@4HA|

	AREA	|.pdata|, PDATA
|$pdata$?dtor$4@?0??CreateInstance@CUSBAsio@@SAPEAVCUnknown@@PEAUIUnknown@@PEAJ@Z@4HA| DCD |?dtor$4@?0??CreateInstance@CUSBAsio@@SAPEAVCUnknown@@PEAUIUnknown@@PEAJ@Z@4HA|
	DCD	|$unwind$?dtor$4@?0??CreateInstance@CUSBAsio@@SAPEAVCUnknown@@PEAUIUnknown@@PEAJ@Z@4HA|

	AREA	|.pdata|, PDATA
|$pdata$?getNanoSeconds@@YAXPEAUASIOTimeStamp@@@Z| DCD |?getNanoSeconds@@YAXPEAUASIOTimeStamp@@@Z|
	DCD	0x1610059
	;Flags[SingleProEpi] functionLength[88] RegF[0] RegI[1] H[0] frameChainReturn[Chained] frameSize[32]

	AREA	|.pdata|, PDATA
|$pdata$?lock@critical_section@wil@@QEAA?AV?$unique_any_t@V?$unique_storage@U?$resource_policy@PEAU_RTL_CRITICAL_SECTION@@P6AXPEAU1@@Z$1?LeaveCriticalSection@@YAX0@ZU?$integral_constant@_K$00@wistd@@PEAU1@PEAU1@$0A@$$T@details@wil@@@details@wil@@@2@XZ| DCD |$LN21|
	DCD	0x1620035
	;Flags[SingleProEpi] functionLength[52] RegF[0] RegI[2] H[0] frameChainReturn[Chained] frameSize[32]

	AREA	|.pdata|, PDATA
|$pdata$??1critical_section@wil@@QEAA@XZ| DCD |$LN8|
	DCD	0xe0001d
	;Flags[SingleProEpi] functionLength[28] RegF[0] RegI[0] H[0] frameChainReturn[Chained] frameSize[16]

	AREA	|.pdata|, PDATA
|$pdata$??0critical_section@wil@@QEAA@K@Z| DCD |$LN8|
	DCD	0x1610035
	;Flags[SingleProEpi] functionLength[52] RegF[0] RegI[1] H[0] frameChainReturn[Chained] frameSize[32]

	AREA	|.pdata|, PDATA
|$pdata$??1?$unique_any_t@V?$unique_storage@U?$resource_policy@PEAU_RTL_CRITICAL_SECTION@@P6AXPEAU1@@Z$1?LeaveCriticalSection@@YAX0@ZU?$integral_constant@_K$00@wistd@@PEAU1@PEAU1@$0A@$$T@details@wil@@@details@wil@@@wil@@QEAA@XZ| DCD |$LN21|
	DCD	0xe00025
	;Flags[SingleProEpi] functionLength[36] RegF[0] RegI[0] H[0] frameChainReturn[Chained] frameSize[16]

	AREA	|.pdata|, PDATA
|$pdata$?EnterCriticalSection@wil@@YA?AV?$unique_any_t@V?$unique_storage@U?$resource_policy@PEAU_RTL_CRITICAL_SECTION@@P6AXPEAU1@@Z$1?LeaveCriticalSection@@YAX0@ZU?$integral_constant@_K$00@wistd@@PEAU1@PEAU1@$0A@$$T@details@wil@@@details@wil@@@1@PEAU_RTL_CRITICAL_SECTION@@@Z| DCD |$LN16|
	DCD	0x1620039
	;Flags[SingleProEpi] functionLength[56] RegF[0] RegI[2] H[0] frameChainReturn[Chained] frameSize[32]

	AREA	|.pdata|, PDATA
|$pdata$?RunFunctorWithExceptionFilter@details@wil@@YAJAEAUIFunctor@12@AEAUIFunctorHost@12@PEAX@Z| DCD |$LN12|
	DCD	|$unwind$?RunFunctorWithExceptionFilter@details@wil@@YAJAEAUIFunctor@12@AEAUIFunctorHost@12@PEAX@Z|

	AREA	|.pdata|, PDATA
|$pdata$?catch$0@?0??RunFunctorWithExceptionFilter@details@wil@@YAJAEAUIFunctor@12@AEAUIFunctorHost@12@PEAX@Z@4HA| DCD |?catch$0@?0??RunFunctorWithExceptionFilter@details@wil@@YAJAEAUIFunctor@12@AEAUIFunctorHost@12@PEAX@Z@4HA|
	DCD	|$unwind$?catch$0@?0??RunFunctorWithExceptionFilter@details@wil@@YAJAEAUIFunctor@12@AEAUIFunctorHost@12@PEAX@Z@4HA|

	AREA	|.pdata|, PDATA
|$pdata$?ResultFromCaughtExceptionInternal@details@wil@@YA?AUResultStatus@12@PEA_W_KPEA_N@Z| DCD |$LN84|
	DCD	|$unwind$?ResultFromCaughtExceptionInternal@details@wil@@YA?AUResultStatus@12@PEA_W_KPEA_N@Z|

	AREA	|.pdata|, PDATA
|$pdata$?catch$0@?0??ResultFromCaughtExceptionInternal@details@wil@@YA?AUResultStatus@12@PEA_W_KPEA_N@Z@4HA| DCD |?catch$0@?0??ResultFromCaughtExceptionInternal@details@wil@@YA?AUResultStatus@12@PEA_W_KPEA_N@Z@4HA|
	DCD	|$unwind$?catch$0@?0??ResultFromCaughtExceptionInternal@details@wil@@YA?AUResultStatus@12@PEA_W_KPEA_N@Z@4HA|

	AREA	|.pdata|, PDATA
|$pdata$?catch$1@?0??ResultFromCaughtExceptionInternal@details@wil@@YA?AUResultStatus@12@PEA_W_KPEA_N@Z@4HA| DCD |?catch$1@?0??ResultFromCaughtExceptionInternal@details@wil@@YA?AUResultStatus@12@PEA_W_KPEA_N@Z@4HA|
	DCD	|$unwind$?catch$1@?0??ResultFromCaughtExceptionInternal@details@wil@@YA?AUResultStatus@12@PEA_W_KPEA_N@Z@4HA|

	AREA	|.pdata|, PDATA
|$pdata$?catch$2@?0??ResultFromCaughtExceptionInternal@details@wil@@YA?AUResultStatus@12@PEA_W_KPEA_N@Z@4HA| DCD |?catch$2@?0??ResultFromCaughtExceptionInternal@details@wil@@YA?AUResultStatus@12@PEA_W_KPEA_N@Z@4HA|
	DCD	|$unwind$?catch$2@?0??ResultFromCaughtExceptionInternal@details@wil@@YA?AUResultStatus@12@PEA_W_KPEA_N@Z@4HA|

	AREA	|.pdata|, PDATA
|$pdata$?catch$3@?0??ResultFromCaughtExceptionInternal@details@wil@@YA?AUResultStatus@12@PEA_W_KPEA_N@Z@4HA| DCD |?catch$3@?0??ResultFromCaughtExceptionInternal@details@wil@@YA?AUResultStatus@12@PEA_W_KPEA_N@Z@4HA|
	DCD	|$unwind$?catch$3@?0??ResultFromCaughtExceptionInternal@details@wil@@YA?AUResultStatus@12@PEA_W_KPEA_N@Z@4HA|

	AREA	|.pdata|, PDATA
|$pdata$?catch$4@?0??ResultFromCaughtExceptionInternal@details@wil@@YA?AUResultStatus@12@PEA_W_KPEA_N@Z@4HA| DCD |?catch$4@?0??ResultFromCaughtExceptionInternal@details@wil@@YA?AUResultStatus@12@PEA_W_KPEA_N@Z@4HA|
	DCD	|$unwind$?catch$4@?0??ResultFromCaughtExceptionInternal@details@wil@@YA?AUResultStatus@12@PEA_W_KPEA_N@Z@4HA|

	AREA	|.pdata|, PDATA
|$pdata$?catch$5@?0??ResultFromCaughtExceptionInternal@details@wil@@YA?AUResultStatus@12@PEA_W_KPEA_N@Z@4HA| DCD |?catch$5@?0??ResultFromCaughtExceptionInternal@details@wil@@YA?AUResultStatus@12@PEA_W_KPEA_N@Z@4HA|
	DCD	|$unwind$?catch$5@?0??ResultFromCaughtExceptionInternal@details@wil@@YA?AUResultStatus@12@PEA_W_KPEA_N@Z@4HA|

	AREA	|.pdata|, PDATA
|$pdata$?catch$6@?0??ResultFromCaughtExceptionInternal@details@wil@@YA?AUResultStatus@12@PEA_W_KPEA_N@Z@4HA| DCD |?catch$6@?0??ResultFromCaughtExceptionInternal@details@wil@@YA?AUResultStatus@12@PEA_W_KPEA_N@Z@4HA|
	DCD	|$unwind$?catch$6@?0??ResultFromCaughtExceptionInternal@details@wil@@YA?AUResultStatus@12@PEA_W_KPEA_N@Z@4HA|

	AREA	|.pdata|, PDATA
|$pdata$??0StoredFailureInfo@wil@@QEAA@AEBV01@@Z| DCD |$LN23|
	DCD	|$unwind$??0StoredFailureInfo@wil@@QEAA@AEBV01@@Z|

	AREA	|.pdata|, PDATA
|$pdata$0$??0StoredFailureInfo@wil@@QEAA@AEBV01@@Z| DCD |$LN23|+72
	DCD	|$unwind$0$??0StoredFailureInfo@wil@@QEAA@AEBV01@@Z|

	AREA	|.pdata|, PDATA
|$pdata$1$??0StoredFailureInfo@wil@@QEAA@AEBV01@@Z| DCD |$LN23|+100
	DCD	|$unwind$1$??0StoredFailureInfo@wil@@QEAA@AEBV01@@Z|

	AREA	|.pdata|, PDATA
|$pdata$??0ResultException@wil@@QEAA@AEBV01@@Z| DCD |$LN40|
	DCD	0x16200b1
	;Flags[SingleProEpi] functionLength[176] RegF[0] RegI[2] H[0] frameChainReturn[Chained] frameSize[32]

	AREA	|.pdata|, PDATA
|$pdata$?ThrowResultExceptionInternal@details@wil@@YAXAEBUFailureInfo@2@@Z| DCD |$LN7|
	DCD	|$unwind$?ThrowResultExceptionInternal@details@wil@@YAXAEBUFailureInfo@2@@Z|

	AREA	|.pdata|, PDATA
|$pdata$?RecognizeCaughtExceptionFromCallback@details@wil@@YAJPEA_W_K@Z| DCD |$LN22|
	DCD	|$unwind$?RecognizeCaughtExceptionFromCallback@details@wil@@YAJPEA_W_K@Z|

	AREA	|.pdata|, PDATA
|$pdata$?catch$0@?0??RecognizeCaughtExceptionFromCallback@details@wil@@YAJPEA_W_K@Z@4HA| DCD |?catch$0@?0??RecognizeCaughtExceptionFromCallback@details@wil@@YAJPEA_W_K@Z@4HA|
	DCD	|$unwind$?catch$0@?0??RecognizeCaughtExceptionFromCallback@details@wil@@YAJPEA_W_K@Z@4HA|

	AREA	|.pdata|, PDATA
|$pdata$?catch$1@?0??RecognizeCaughtExceptionFromCallback@details@wil@@YAJPEA_W_K@Z@4HA| DCD |?catch$1@?0??RecognizeCaughtExceptionFromCallback@details@wil@@YAJPEA_W_K@Z@4HA|
	DCD	|$unwind$?catch$1@?0??RecognizeCaughtExceptionFromCallback@details@wil@@YAJPEA_W_K@Z@4HA|

	AREA	|.pdata|, PDATA
|$pdata$0$?MaybeGetExceptionString@details@wil@@YAXAEBVexception@std@@PEA_W_K@Z| DCD |$LN10|+4
	DCD	|$unwind$0$?MaybeGetExceptionString@details@wil@@YAXAEBVexception@std@@PEA_W_K@Z|

	AREA	|.pdata|, PDATA
|$pdata$0$??1StoredFailureInfo@wil@@QEAA@XZ| DCD |$LN19|+8
	DCD	|$unwind$0$??1StoredFailureInfo@wil@@QEAA@XZ|

	AREA	|.pdata|, PDATA
|$pdata$??1ResultException@wil@@UEAA@XZ| DCD |$LN32|
	DCD	0x16200a1
	;Flags[SingleProEpi] functionLength[160] RegF[0] RegI[2] H[0] frameChainReturn[Chained] frameSize[32]

	AREA	|.pdata|, PDATA
|$pdata$??_GResultException@wil@@UEAAPEAXI@Z| DCD |$LN38|
	DCD	0x1e300c1
	;Flags[SingleProEpi] functionLength[192] RegF[0] RegI[3] H[0] frameChainReturn[Chained] frameSize[48]

	AREA	|.pdata|, PDATA
|$pdata$?what@ResultException@wil@@UEBAPEBDXZ| DCD |$LN29|
	DCD	|$unwind$?what@ResultException@wil@@UEBAPEBDXZ|

	AREA	|.pdata|, PDATA
|$pdata$??0ResultException@wil@@QEAA@AEBUFailureInfo@1@@Z| DCD |$LN22|
	DCD	0x1610045
	;Flags[SingleProEpi] functionLength[68] RegF[0] RegI[1] H[0] frameChainReturn[Chained] frameSize[32]

	AREA	|.pdata|, PDATA
|$pdata$?SetFailureInfo@StoredFailureInfo@wil@@QEAAXAEBUFailureInfo@2@@Z| DCD |$LN362|
	DCD	0x26607cd
	;Flags[SingleProEpi] functionLength[1996] RegF[0] RegI[6] H[0] frameChainReturn[Chained] frameSize[64]

	AREA	|.pdata|, PDATA
|$pdata$??0StoredFailureInfo@wil@@QEAA@AEBUFailureInfo@1@@Z| DCD |$LN11|
	DCD	0x1610029
	;Flags[SingleProEpi] functionLength[40] RegF[0] RegI[1] H[0] frameChainReturn[Chained] frameSize[32]

	AREA	|.pdata|, PDATA
|$pdata$?WilDynamicLoadRaiseFailFastException@details@wil@@YAXPEAU_EXCEPTION_RECORD@@PEAU_CONTEXT@@K@Z| DCD |$LN14|
	DCD	0x1e3006d
	;Flags[SingleProEpi] functionLength[108] RegF[0] RegI[3] H[0] frameChainReturn[Chained] frameSize[48]

	AREA	|.pdata|, PDATA
|$pdata$?DebugBreak@details@wil@@YAXXZ| DCD |$LN8|
	DCD	0xe0001d
	;Flags[SingleProEpi] functionLength[28] RegF[0] RegI[0] H[0] frameChainReturn[Chained] frameSize[16]

	AREA	|.pdata|, PDATA
|$pdata$0$?GetCurrentModuleName@details@wil@@YAPEBDXZ| DCD |$LN59|+24
	DCD	|$unwind$0$?GetCurrentModuleName@details@wil@@YAPEBDXZ|

	AREA	|.pdata|, PDATA
|$pdata$?K32GetModuleInformation@details@wil@@YA_NPEAXPEAIPEAD_K@Z| DCD |$LN56|
	DCD	|$unwind$?K32GetModuleInformation@details@wil@@YA_NPEAXPEAIPEAD_K@Z|

	AREA	|.pdata|, PDATA
|$pdata$?assign@shared_buffer@details@wil@@AEAAXPEAJ_K@Z| DCD |$LN15|
	DCD	0x1e4007d
	;Flags[SingleProEpi] functionLength[124] RegF[0] RegI[4] H[0] frameChainReturn[Chained] frameSize[48]

	AREA	|.pdata|, PDATA
|$pdata$?create@shared_buffer@details@wil@@QEAA_N_K@Z| DCD |$LN29|
	DCD	|$unwind$?create@shared_buffer@details@wil@@QEAA_N_K@Z|

	AREA	|.pdata|, PDATA
|$pdata$?create@shared_buffer@details@wil@@QEAA_NPEBX_K@Z| DCD |$LN26|
	DCD	|$unwind$?create@shared_buffer@details@wil@@QEAA_NPEBX_K@Z|

	AREA	|.pdata|, PDATA
|$pdata$0$?reset@shared_buffer@details@wil@@QEAAXXZ| DCD |$LN13|+8
	DCD	|$unwind$0$?reset@shared_buffer@details@wil@@QEAAXXZ|

	AREA	|.pdata|, PDATA
|$pdata$0$??1shared_buffer@details@wil@@QEAA@XZ| DCD |$LN16|+8
	DCD	|$unwind$0$??1shared_buffer@details@wil@@QEAA@XZ|

	AREA	|.pdata|, PDATA
|$pdata$??0shared_buffer@details@wil@@QEAA@AEBV012@@Z| DCD |$LN20|
	DCD	|$unwind$??0shared_buffer@details@wil@@QEAA@AEBV012@@Z|

	AREA	|.pdata|, PDATA
|$pdata$0$??0shared_buffer@details@wil@@QEAA@AEBV012@@Z| DCD |$LN20|+24
	DCD	|$unwind$0$??0shared_buffer@details@wil@@QEAA@AEBV012@@Z|

	AREA	|.pdata|, PDATA
|$pdata$1$??0shared_buffer@details@wil@@QEAA@AEBV012@@Z| DCD |$LN20|+52
	DCD	|$unwind$1$??0shared_buffer@details@wil@@QEAA@AEBV012@@Z|

	AREA	|.pdata|, PDATA
|$pdata$?FromFailureInfo@ResultStatus@details@wil@@SA?AU123@AEBUFailureInfo@3@@Z| DCD |$LN6|
	DCD	0x800021
	;Flags[SingleProEpi] functionLength[32] RegF[0] RegI[0] H[0] frameChainReturn[UnChained] frameSize[16]

	AREA	|.pdata|, PDATA
|$pdata$?FromResult@ResultStatus@details@wil@@SA?AU123@J@Z| DCD |$LN6|
	DCD	0x1600025
	;Flags[SingleProEpi] functionLength[36] RegF[0] RegI[0] H[0] frameChainReturn[Chained] frameSize[32]

	AREA	|.pdata|, PDATA
|$pdata$?GetFailureLogString@wil@@YAJPEA_W_KAEBUFailureInfo@1@@Z| DCD |$LN44|
	DCD	|$unwind$?GetFailureLogString@wil@@YAJPEA_W_KAEBUFailureInfo@1@@Z|

	AREA	|.pdata|, PDATA
|$pdata$?LogStringPrintf@details@wil@@YAPEA_WPEA_WPEB_W1ZZ| DCD |$LN36|
	DCD	|$unwind$?LogStringPrintf@details@wil@@YAPEA_WPEA_WPEB_W1ZZ|

	AREA	|.pdata|, PDATA
|$pdata$??_Gexception@std@@UEAAPEAXI@Z| DCD |$LN15|
	DCD	0x1620049
	;Flags[SingleProEpi] functionLength[72] RegF[0] RegI[2] H[0] frameChainReturn[Chained] frameSize[32]

	AREA	|.pdata|, PDATA
|$pdata$??0exception@std@@QEAA@AEBV01@@Z| DCD |$LN8|
	DCD	0x1610045
	;Flags[SingleProEpi] functionLength[68] RegF[0] RegI[1] H[0] frameChainReturn[Chained] frameSize[32]

	AREA	|.pdata|, PDATA
|$pdata$?StringVPrintfWorkerW@@YAJPEA_W_KPEA_KPEB_WPEAD@Z| DCD |?StringVPrintfWorkerW@@YAJPEA_W_KPEA_KPEB_WPEAD@Z|
	DCD	0x2650089
	;Flags[SingleProEpi] functionLength[136] RegF[0] RegI[5] H[0] frameChainReturn[Chained] frameSize[64]

	AREA	|.pdata|, PDATA
|$pdata$?StringCchPrintfW@@YAJPEA_W_KPEB_WZZ| DCD |$LN29|
	DCD	|$unwind$?StringCchPrintfW@@YAJPEA_W_KPEB_WZZ|

	AREA	|.pdata|, PDATA
|$pdata$?StringCchVPrintfW@@YAJPEA_W_KPEB_WPEAD@Z| DCD |$LN29|
	DCD	|$unwind$?StringCchVPrintfW@@YAJPEA_W_KPEB_WPEAD@Z|

	AREA	|.pdata|, PDATA
|$pdata$_vsnwprintf| DCD |$LN8|
	DCD	0x1e4005d
	;Flags[SingleProEpi] functionLength[92] RegF[0] RegI[4] H[0] frameChainReturn[Chained] frameSize[48]

	AREA	|.pdata|, PDATA
|$pdata$_vsnwprintf_l| DCD |$LN6|
	DCD	0x1e4005d
	;Flags[SingleProEpi] functionLength[92] RegF[0] RegI[4] H[0] frameChainReturn[Chained] frameSize[48]

	AREA	|.pdata|, PDATA
|$pdata$0$memcpy_s| DCD |memcpy_s|+12
	DCD	|$unwind$0$memcpy_s|

	AREA	|.pdata|, PDATA
|$pdata$2$memcpy_s| DCD |memcpy_s|+80
	DCD	|$unwind$2$memcpy_s|

	AREA	|.pdata|, PDATA
|$pdata$4$memcpy_s| DCD |memcpy_s|+124
	DCD	|$unwind$4$memcpy_s|

	AREA	|.pdata|, PDATA
|$pdata$?RegisterAsioDriver@@YAJXZ| DCD |$LN10|
	DCD	|$unwind$?RegisterAsioDriver@@YAJXZ|

	AREA	|.pdata|, PDATA
|$pdata$0$?RegisterAsioDriver@@YAJXZ| DCD |$LN10|+36
	DCD	|$unwind$0$?RegisterAsioDriver@@YAJXZ|

	AREA	|.pdata|, PDATA
|$pdata$1$?RegisterAsioDriver@@YAJXZ| DCD |$LN10|+128
	DCD	|$unwind$1$?RegisterAsioDriver@@YAJXZ|

	AREA	|.pdata|, PDATA
|$pdata$?UnregisterAsioDriver@@YAJXZ| DCD |$LN10|
	DCD	|$unwind$?UnregisterAsioDriver@@YAJXZ|

	AREA	|.pdata|, PDATA
|$pdata$0$?UnregisterAsioDriver@@YAJXZ| DCD |$LN10|+36
	DCD	|$unwind$0$?UnregisterAsioDriver@@YAJXZ|

	AREA	|.pdata|, PDATA
|$pdata$1$?UnregisterAsioDriver@@YAJXZ| DCD |$LN10|+128
	DCD	|$unwind$1$?UnregisterAsioDriver@@YAJXZ|

	AREA	|.data|, DATA
|g_header_init_InitializeResultExceptions| DCB 0x1

	AREA	|.data|, DATA
|g_header_init_WilInitialize_ResultMacros_DesktopOrSystem_SuppressPrivateApiUse| DCB 0x1

	AREA	|.xdata|, DATA
|$unwind$1$?UnregisterAsioDriver@@YAJXZ| DCD 0x19700004
	DCD	0x83e101e5
	DCD	0x830108e4
	DCD	0xe3e3e3e4
	DCD	|__GSHandlerCheck|
	DCD	0xffffffd8
	;Code Words[3], Epilog Start Index[5], E[1], X[1], Function Length[4]=16 bytes
	;end_c
	;alloc_s
	;set_fp
	;save_fplr_x
	;end
	;alloc_s
	;alloc_s
	;save_fplr_x
	;end
	;nop
	;nop
	;nop

	AREA	|.xdata|, DATA
|$unwind$0$?UnregisterAsioDriver@@YAJXZ| DCD 0x10500017
	DCD	0x16
	DCD	0x1e514d0
	DCD	0xe3e483e1
	DCD	|__GSHandlerCheck|
	DCD	0xffffffd8
	;Code Words[2], Epilog Count[1], E[0], X[1], Function Length[23]=92 bytes
	;Epilog Start Index[0], Epilog Start Offset[22]=88 bytes
	;save_reg
	;end_c
	;alloc_s
	;set_fp
	;save_fplr_x
	;end
	;nop

	AREA	|.xdata|, DATA
|$unwind$?UnregisterAsioDriver@@YAJXZ| DCD 0x8100009
	DCD	0xe483e101
	DCD	|__GSHandlerCheck|
	DCD	0xffffffd8
	;Code Words[1], Epilog Count[0], E[0], X[1], Function Length[9]=36 bytes
	;alloc_s
	;set_fp
	;save_fplr_x
	;end

	AREA	|.xdata|, DATA
|$unwind$1$?RegisterAsioDriver@@YAJXZ| DCD 0x19700004
	DCD	0x83e101e5
	DCD	0x830108e4
	DCD	0xe3e3e3e4
	DCD	|__GSHandlerCheck|
	DCD	0xffffffd8
	;Code Words[3], Epilog Start Index[5], E[1], X[1], Function Length[4]=16 bytes
	;end_c
	;alloc_s
	;set_fp
	;save_fplr_x
	;end
	;alloc_s
	;alloc_s
	;save_fplr_x
	;end
	;nop
	;nop
	;nop

	AREA	|.xdata|, DATA
|$unwind$0$?RegisterAsioDriver@@YAJXZ| DCD 0x10500017
	DCD	0x16
	DCD	0x1e514d0
	DCD	0xe3e483e1
	DCD	|__GSHandlerCheck|
	DCD	0xffffffd8
	;Code Words[2], Epilog Count[1], E[0], X[1], Function Length[23]=92 bytes
	;Epilog Start Index[0], Epilog Start Offset[22]=88 bytes
	;save_reg
	;end_c
	;alloc_s
	;set_fp
	;save_fplr_x
	;end
	;nop

	AREA	|.xdata|, DATA
|$unwind$?RegisterAsioDriver@@YAJXZ| DCD 0x8100009
	DCD	0xe483e101
	DCD	|__GSHandlerCheck|
	DCD	0xffffffd8
	;Code Words[1], Epilog Count[0], E[0], X[1], Function Length[9]=36 bytes
	;alloc_s
	;set_fp
	;save_fplr_x
	;end

	AREA	|.xdata|, DATA
|$unwind$4$memcpy_s| DCD 0x1040000e
	DCD	0x80000b
	DCD	0xd081e1e5
	DCD	0xe3e42482
	;Code Words[2], Epilog Count[1], E[0], X[0], Function Length[14]=56 bytes
	;Epilog Start Index[2], Epilog Start Offset[11]=44 bytes
	;end_c
	;set_fp
	;save_fplr_x
	;save_reg
	;save_r19r20_x
	;end
	;nop

	AREA	|.xdata|, DATA
|$unwind$2$memcpy_s| DCD 0x1040000a
	DCD	0x800007
	DCD	0xd081e1e5
	DCD	0xe3e42482
	;Code Words[2], Epilog Count[1], E[0], X[0], Function Length[10]=40 bytes
	;Epilog Start Index[2], Epilog Start Offset[7]=28 bytes
	;end_c
	;set_fp
	;save_fplr_x
	;save_reg
	;save_r19r20_x
	;end
	;nop

	AREA	|.xdata|, DATA
|$unwind$0$memcpy_s| DCD 0x10400010
	DCD	0x40000d
	DCD	0x82d081e1
	DCD	0xe3e4e524
	;Code Words[2], Epilog Count[1], E[0], X[0], Function Length[16]=64 bytes
	;Epilog Start Index[1], Epilog Start Offset[13]=52 bytes
	;set_fp
	;save_fplr_x
	;save_reg
	;save_r19r20_x
	;end_c
	;end
	;nop

	AREA	|.xdata|, DATA
|$unwind$?StringCchVPrintfW@@YAJPEA_W_KPEB_WPEAD@Z| DCD 0x10800030
	DCD	0x40000f
	DCD	0x400029
	DCD	0x4d181e1
	DCD	0xe42682c8
	;Code Words[2], Epilog Count[2], E[0], X[0], Function Length[48]=192 bytes
	;Epilog Start Index[1], Epilog Start Offset[15]=60 bytes
	;Epilog Start Index[1], Epilog Start Offset[41]=164 bytes
	;set_fp
	;save_fplr_x
	;save_reg
	;save_regp
	;save_r19r20_x
	;end

	AREA	|.xdata|, DATA
|$unwind$?StringCchPrintfW@@YAJPEA_W_KPEB_WZZ| DCD 0x28800034
	DCD	0x2c00011
	DCD	0x2c0002c
	DCD	0xe3e381e1
	DCD	0xc804d1e3
	DCD	0x81e42a82
	DCD	0x82c804d1
	DCD	0xe3e3e42a
	;Code Words[5], Epilog Count[2], E[0], X[0], Function Length[52]=208 bytes
	;Epilog Start Index[11], Epilog Start Offset[17]=68 bytes
	;Epilog Start Index[11], Epilog Start Offset[44]=176 bytes
	;set_fp
	;save_fplr_x
	;nop
	;nop
	;nop
	;save_reg
	;save_regp
	;save_r19r20_x
	;end
	;save_fplr_x
	;save_reg
	;save_regp
	;save_r19r20_x
	;end
	;nop
	;nop

	AREA	|.xdata|, DATA
|$unwind$?LogStringPrintf@details@wil@@YAPEA_WPEA_WPEB_W1ZZ| DCD 0x22600036
	DCD	0xe3e383e1
	DCD	0x2a82c8e3
	DCD	0x82c883e4
	DCD	0xe3e3e42a
	;Code Words[4], Epilog Start Index[9], E[1], X[0], Function Length[54]=216 bytes
	;set_fp
	;save_fplr_x
	;nop
	;nop
	;nop
	;save_regp
	;save_r19r20_x
	;end
	;save_fplr_x
	;save_regp
	;save_r19r20_x
	;end
	;nop
	;nop

	AREA	|.xdata|, DATA
|$ip2state$?GetFailureLogString@wil@@YAJPEA_W_KAEBUFailureInfo@1@@Z| DCD |?GetFailureLogString@wil@@YAJPEA_W_KAEBUFailureInfo@1@@Z|+108
	DCD	0xffffffff
	DCD	|?GetFailureLogString@wil@@YAJPEA_W_KAEBUFailureInfo@1@@Z|+732
	DCD	0x0

	AREA	|.rdata|, DATA, READONLY
|$cppxdata$?GetFailureLogString@wil@@YAJPEA_W_KAEBUFailureInfo@1@@Z| DCD 0x19930522
	DCD	0x0
	DCD	0x0
	DCD	0x0
	DCD	0x0
	DCD	0x2
	DCD	|$ip2state$?GetFailureLogString@wil@@YAJPEA_W_KAEBUFailureInfo@1@@Z|
	DCD	0xfffffd90
	DCD	0x0
	DCD	0x5

	AREA	|.xdata|, DATA
|$unwind$?GetFailureLogString@wil@@YAJPEA_W_KAEBUFailureInfo@1@@Z| DCD 0x385000bb
	DCD	0x30000af
	DCD	0x88c9e101
	DCD	0x84c806c9
	DCD	0xe48902c8
	DCD	0xc90121c0
	DCD	0xc806c988
	DCD	0x8902c884
	DCD	0xe3e3e3e4
	DCD	|__GSHandlerCheck_EH|
	DCD	|$cppxdata$?GetFailureLogString@wil@@YAJPEA_W_KAEBUFailureInfo@1@@Z|
	DCD	0xffffffab
	;Code Words[7], Epilog Count[1], E[0], X[1], Function Length[187]=748 bytes
	;Epilog Start Index[12], Epilog Start Offset[175]=700 bytes
	;alloc_s
	;set_fp
	;save_regp
	;save_regp
	;save_regp
	;save_regp
	;save_fplr_x
	;end
	;alloc_m
	;alloc_s
	;save_regp
	;save_regp
	;save_regp
	;save_regp
	;save_fplr_x
	;end
	;nop
	;nop
	;nop

	AREA	|.xdata|, DATA
|$unwind$1$??0shared_buffer@details@wil@@QEAA@AEBV012@@Z| DCD 0x10a00003
	DCD	0x181e1e5
	DCD	0xe3e3e3e4
	;Code Words[2], Epilog Start Index[2], E[1], X[0], Function Length[3]=12 bytes
	;end_c
	;set_fp
	;save_fplr_x
	;alloc_s
	;end
	;nop
	;nop
	;nop

	AREA	|.xdata|, DATA
|$unwind$0$??0shared_buffer@details@wil@@QEAA@AEBV012@@Z| DCD 0x10400007
	DCD	0x6
	DCD	0xe1e502d0
	DCD	0xe3e40181
	;Code Words[2], Epilog Count[1], E[0], X[0], Function Length[7]=28 bytes
	;Epilog Start Index[0], Epilog Start Offset[6]=24 bytes
	;save_reg
	;end_c
	;set_fp
	;save_fplr_x
	;alloc_s
	;end
	;nop

	AREA	|.xdata|, DATA
|$unwind$??0shared_buffer@details@wil@@QEAA@AEBV012@@Z| DCD 0x8000006
	DCD	0xe40181e1
	;Code Words[1], Epilog Count[0], E[0], X[0], Function Length[6]=24 bytes
	;set_fp
	;save_fplr_x
	;alloc_s
	;end

	AREA	|.xdata|, DATA
|$unwind$0$??1shared_buffer@details@wil@@QEAA@XZ| DCD 0x10400013
	DCD	0x400011
	DCD	0xe52281e1
	DCD	0xe3e3e3e4
	;Code Words[2], Epilog Count[1], E[0], X[0], Function Length[19]=76 bytes
	;Epilog Start Index[1], Epilog Start Offset[17]=68 bytes
	;set_fp
	;save_fplr_x
	;save_r19r20_x
	;end_c
	;end
	;nop
	;nop
	;nop

	AREA	|.xdata|, DATA
|$unwind$0$?reset@shared_buffer@details@wil@@QEAAXXZ| DCD 0x10400013
	DCD	0x400011
	DCD	0xe52281e1
	DCD	0xe3e3e3e4
	;Code Words[2], Epilog Count[1], E[0], X[0], Function Length[19]=76 bytes
	;Epilog Start Index[1], Epilog Start Offset[17]=68 bytes
	;set_fp
	;save_fplr_x
	;save_r19r20_x
	;end_c
	;end
	;nop
	;nop
	;nop

	AREA	|.xdata|, DATA
|$unwind$?create@shared_buffer@details@wil@@QEAA_NPEBX_K@Z| DCD 0x10c0003f
	DCD	0x400016
	DCD	0x400025
	DCD	0x40003b
	DCD	0x82c881e1
	DCD	0xe3e3e424
	;Code Words[2], Epilog Count[3], E[0], X[0], Function Length[63]=252 bytes
	;Epilog Start Index[1], Epilog Start Offset[22]=88 bytes
	;Epilog Start Index[1], Epilog Start Offset[37]=148 bytes
	;Epilog Start Index[1], Epilog Start Offset[59]=236 bytes
	;set_fp
	;save_fplr_x
	;save_regp
	;save_r19r20_x
	;end
	;nop
	;nop

	AREA	|.xdata|, DATA
|$unwind$?create@shared_buffer@details@wil@@QEAA_N_K@Z| DCD 0x10c0003f
	DCD	0x400016
	DCD	0x400025
	DCD	0x40003b
	DCD	0x82c881e1
	DCD	0xe3e3e424
	;Code Words[2], Epilog Count[3], E[0], X[0], Function Length[63]=252 bytes
	;Epilog Start Index[1], Epilog Start Offset[22]=88 bytes
	;Epilog Start Index[1], Epilog Start Offset[37]=148 bytes
	;Epilog Start Index[1], Epilog Start Offset[59]=236 bytes
	;set_fp
	;save_fplr_x
	;save_regp
	;save_r19r20_x
	;end
	;nop
	;nop

	AREA	|.xdata|, DATA
|$unwind$?K32GetModuleInformation@details@wil@@YA_NPEAXPEAIPEAD_K@Z| DCD 0x22300055
	DCD	0x84c8e101
	DCD	0xe48502c8
	DCD	0x84c80111
	DCD	0xe48502c8
	DCD	|__GSHandlerCheck|
	DCD	0xffffffc8
	;Code Words[4], Epilog Start Index[8], E[1], X[1], Function Length[85]=340 bytes
	;alloc_s
	;set_fp
	;save_regp
	;save_regp
	;save_fplr_x
	;end
	;alloc_s
	;alloc_s
	;save_regp
	;save_regp
	;save_fplr_x
	;end

	AREA	|.xdata|, DATA
|$unwind$0$?GetCurrentModuleName@details@wil@@YAPEBDXZ| DCD 0x20500042
	DCD	0x200003e
	DCD	0xc8e10111
	DCD	0xe4e58302
	DCD	0x2c80111
	DCD	0xe3e3e383
	DCD	|__GSHandlerCheck|
	DCD	0xffffffd8
	;Code Words[4], Epilog Count[1], E[0], X[1], Function Length[66]=264 bytes
	;Epilog Start Index[8], Epilog Start Offset[62]=248 bytes
	;alloc_s
	;alloc_s
	;set_fp
	;save_regp
	;save_fplr_x
	;end_c
	;end
	;alloc_s
	;alloc_s
	;save_regp
	;save_fplr_x
	;nop
	;nop
	;nop

	AREA	|.xdata|, DATA
|$unwind$?what@ResultException@wil@@UEBAPEBDXZ| DCD 0x21b0003a
	DCD	0x2c8e101
	DCD	0xc1e483
	DCD	0x8302c801
	DCD	0xe3e3e3e4
	DCD	|__GSHandlerCheck|
	DCD	0xffffffd8
	;Code Words[4], Epilog Start Index[6], E[1], X[1], Function Length[58]=232 bytes
	;alloc_s
	;set_fp
	;save_regp
	;save_fplr_x
	;end
	;alloc_m
	;alloc_s
	;save_regp
	;save_fplr_x
	;end
	;nop
	;nop
	;nop

	AREA	|.xdata|, DATA
|$unwind$0$??1StoredFailureInfo@wil@@QEAA@XZ| DCD 0x10400013
	DCD	0x400011
	DCD	0xe52281e1
	DCD	0xe3e3e3e4
	;Code Words[2], Epilog Count[1], E[0], X[0], Function Length[19]=76 bytes
	;Epilog Start Index[1], Epilog Start Offset[17]=68 bytes
	;set_fp
	;save_fplr_x
	;save_r19r20_x
	;end_c
	;end
	;nop
	;nop
	;nop

	AREA	|.xdata|, DATA
|$unwind$0$?MaybeGetExceptionString@details@wil@@YAXAEBVexception@std@@PEA_W_K@Z| DCD 0x10400010
	DCD	0x40000e
	DCD	0xe52281e1
	DCD	0xe3e3e3e4
	;Code Words[2], Epilog Count[1], E[0], X[0], Function Length[16]=64 bytes
	;Epilog Start Index[1], Epilog Start Offset[14]=56 bytes
	;set_fp
	;save_fplr_x
	;save_r19r20_x
	;end_c
	;end
	;nop
	;nop
	;nop

	AREA	|.xdata|, DATA
|$unwind$?catch$1@?0??RecognizeCaughtExceptionFromCallback@details@wil@@YAJPEA_W_K@Z@4HA| DCD 0x8500006
	DCD	0x3
	DCD	0xe3e3e481
	DCD	|__CxxFrameHandler3|
	DCD	|$cppxdata$?RecognizeCaughtExceptionFromCallback@details@wil@@YAJPEA_W_K@Z|
	;Code Words[1], Epilog Count[1], E[0], X[1], Function Length[6]=24 bytes
	;Epilog Start Index[0], Epilog Start Offset[3]=12 bytes
	;save_fplr_x
	;end
	;nop
	;nop

	AREA	|.xdata|, DATA
|$unwind$?catch$0@?0??RecognizeCaughtExceptionFromCallback@details@wil@@YAJPEA_W_K@Z@4HA| DCD 0x850000f
	DCD	0xb
	DCD	0xe3e3e481
	DCD	|__CxxFrameHandler3|
	DCD	|$cppxdata$?RecognizeCaughtExceptionFromCallback@details@wil@@YAJPEA_W_K@Z|
	;Code Words[1], Epilog Count[1], E[0], X[1], Function Length[15]=60 bytes
	;Epilog Start Index[0], Epilog Start Offset[11]=44 bytes
	;save_fplr_x
	;end
	;nop
	;nop

	AREA	|.xdata|, DATA
|$ip2state$?RecognizeCaughtExceptionFromCallback@details@wil@@YAJPEA_W_K@Z| DCD |?RecognizeCaughtExceptionFromCallback@details@wil@@YAJPEA_W_K@Z|+36
	DCD	0xffffffff
	DCD	|?RecognizeCaughtExceptionFromCallback@details@wil@@YAJPEA_W_K@Z|+80
	DCD	0x0
	DCD	|?catch$0@?0??RecognizeCaughtExceptionFromCallback@details@wil@@YAJPEA_W_K@Z@4HA|+12
	DCD	0x1

	AREA	|.xdata|, DATA
|$handlerMap$0$?RecognizeCaughtExceptionFromCallback@details@wil@@YAJPEA_W_K@Z| DCD 0x8
	DCD	|??_R0?AVexception@std@@@8|
	DCD	0xffffffe0
	DCD	|?catch$0@?0??RecognizeCaughtExceptionFromCallback@details@wil@@YAJPEA_W_K@Z@4HA|
	DCD	0x0
	DCD	0x40
	DCD	0x0
	DCD	0x0
	DCD	|?catch$1@?0??RecognizeCaughtExceptionFromCallback@details@wil@@YAJPEA_W_K@Z@4HA|
	DCD	0x0

	AREA	|.xdata|, DATA
|$tryMap$?RecognizeCaughtExceptionFromCallback@details@wil@@YAJPEA_W_K@Z| DCD 0x0
	DCD	0x0
	DCD	0x1
	DCD	0x2
	DCD	|$handlerMap$0$?RecognizeCaughtExceptionFromCallback@details@wil@@YAJPEA_W_K@Z|

	AREA	|.xdata|, DATA
|$stateUnwindMap$?RecognizeCaughtExceptionFromCallback@details@wil@@YAJPEA_W_K@Z| DCD 0xffffffff
	DCD	0x0
	DCD	0xffffffff
	DCD	0x0

	AREA	|.rdata|, DATA, READONLY
|$cppxdata$?RecognizeCaughtExceptionFromCallback@details@wil@@YAJPEA_W_K@Z| DCD 0x19930522
	DCD	0x2
	DCD	|$stateUnwindMap$?RecognizeCaughtExceptionFromCallback@details@wil@@YAJPEA_W_K@Z|
	DCD	0x1
	DCD	|$tryMap$?RecognizeCaughtExceptionFromCallback@details@wil@@YAJPEA_W_K@Z|
	DCD	0x3
	DCD	|$ip2state$?RecognizeCaughtExceptionFromCallback@details@wil@@YAJPEA_W_K@Z|
	DCD	0xffffffd8
	DCD	0x0
	DCD	0x1

	AREA	|.xdata|, DATA
|$unwind$?RecognizeCaughtExceptionFromCallback@details@wil@@YAJPEA_W_K@Z| DCD 0x10500016
	DCD	0x40000f
	DCD	0x1d487e1
	DCD	0xe3e3e3e4
	DCD	|__CxxFrameHandler3|
	DCD	|$cppxdata$?RecognizeCaughtExceptionFromCallback@details@wil@@YAJPEA_W_K@Z|
	;Code Words[2], Epilog Count[1], E[0], X[1], Function Length[22]=88 bytes
	;Epilog Start Index[1], Epilog Start Offset[15]=60 bytes
	;set_fp
	;save_fplr_x
	;save_reg_x
	;end
	;nop
	;nop
	;nop

	AREA	|.xdata|, DATA
|$unwind$?ThrowResultExceptionInternal@details@wil@@YAXAEBUFailureInfo@2@@Z| DCD 0x800000a
	DCD	0xe3e49be1
	;Code Words[1], Epilog Count[0], E[0], X[0], Function Length[10]=40 bytes
	;set_fp
	;save_fplr_x
	;end
	;nop

	AREA	|.xdata|, DATA
|$unwind$1$??0StoredFailureInfo@wil@@QEAA@AEBV01@@Z| DCD 0x10a00003
	DCD	0x181e1e5
	DCD	0xe3e3e3e4
	;Code Words[2], Epilog Start Index[2], E[1], X[0], Function Length[3]=12 bytes
	;end_c
	;set_fp
	;save_fplr_x
	;alloc_s
	;end
	;nop
	;nop
	;nop

	AREA	|.xdata|, DATA
|$unwind$0$??0StoredFailureInfo@wil@@QEAA@AEBV01@@Z| DCD 0x10400007
	DCD	0x6
	DCD	0xe1e502d0
	DCD	0xe3e40181
	;Code Words[2], Epilog Count[1], E[0], X[0], Function Length[7]=28 bytes
	;Epilog Start Index[0], Epilog Start Offset[6]=24 bytes
	;save_reg
	;end_c
	;set_fp
	;save_fplr_x
	;alloc_s
	;end
	;nop

	AREA	|.xdata|, DATA
|$unwind$??0StoredFailureInfo@wil@@QEAA@AEBV01@@Z| DCD 0x8000012
	DCD	0xe40181e1
	;Code Words[1], Epilog Count[0], E[0], X[0], Function Length[18]=72 bytes
	;set_fp
	;save_fplr_x
	;alloc_s
	;end

	AREA	|.xdata|, DATA
|$unwind$?catch$6@?0??ResultFromCaughtExceptionInternal@details@wil@@YA?AUResultStatus@12@PEA_W_KPEA_N@Z@4HA| DCD 0x8500006
	DCD	0x3
	DCD	0xe3e3e481
	DCD	|__CxxFrameHandler3|
	DCD	|$cppxdata$?ResultFromCaughtExceptionInternal@details@wil@@YA?AUResultStatus@12@PEA_W_KPEA_N@Z|
	;Code Words[1], Epilog Count[1], E[0], X[1], Function Length[6]=24 bytes
	;Epilog Start Index[0], Epilog Start Offset[3]=12 bytes
	;save_fplr_x
	;end
	;nop
	;nop

	AREA	|.xdata|, DATA
|$unwind$?catch$5@?0??ResultFromCaughtExceptionInternal@details@wil@@YA?AUResultStatus@12@PEA_W_KPEA_N@Z@4HA| DCD 0x850000f
	DCD	0xa
	DCD	0xe3e3e481
	DCD	|__CxxFrameHandler3|
	DCD	|$cppxdata$?ResultFromCaughtExceptionInternal@details@wil@@YA?AUResultStatus@12@PEA_W_KPEA_N@Z|
	;Code Words[1], Epilog Count[1], E[0], X[1], Function Length[15]=60 bytes
	;Epilog Start Index[0], Epilog Start Offset[10]=40 bytes
	;save_fplr_x
	;end
	;nop
	;nop

	AREA	|.xdata|, DATA
|$unwind$?catch$4@?0??ResultFromCaughtExceptionInternal@details@wil@@YA?AUResultStatus@12@PEA_W_KPEA_N@Z@4HA| DCD 0x850000f
	DCD	0xa
	DCD	0xe3e3e481
	DCD	|__CxxFrameHandler3|
	DCD	|$cppxdata$?ResultFromCaughtExceptionInternal@details@wil@@YA?AUResultStatus@12@PEA_W_KPEA_N@Z|
	;Code Words[1], Epilog Count[1], E[0], X[1], Function Length[15]=60 bytes
	;Epilog Start Index[0], Epilog Start Offset[10]=40 bytes
	;save_fplr_x
	;end
	;nop
	;nop

	AREA	|.xdata|, DATA
|$unwind$?catch$3@?0??ResultFromCaughtExceptionInternal@details@wil@@YA?AUResultStatus@12@PEA_W_KPEA_N@Z@4HA| DCD 0x8500016
	DCD	0x12
	DCD	0xe401d481
	DCD	|__CxxFrameHandler3|
	DCD	|$cppxdata$?ResultFromCaughtExceptionInternal@details@wil@@YA?AUResultStatus@12@PEA_W_KPEA_N@Z|
	;Code Words[1], Epilog Count[1], E[0], X[1], Function Length[22]=88 bytes
	;Epilog Start Index[0], Epilog Start Offset[18]=72 bytes
	;save_fplr_x
	;save_reg_x
	;end

	AREA	|.xdata|, DATA
|$unwind$?catch$2@?0??ResultFromCaughtExceptionInternal@details@wil@@YA?AUResultStatus@12@PEA_W_KPEA_N@Z@4HA| DCD 0x850000f
	DCD	0xc
	DCD	0xe3e3e481
	DCD	|__CxxFrameHandler3|
	DCD	|$cppxdata$?ResultFromCaughtExceptionInternal@details@wil@@YA?AUResultStatus@12@PEA_W_KPEA_N@Z|
	;Code Words[1], Epilog Count[1], E[0], X[1], Function Length[15]=60 bytes
	;Epilog Start Index[0], Epilog Start Offset[12]=48 bytes
	;save_fplr_x
	;end
	;nop
	;nop

	AREA	|.xdata|, DATA
|$unwind$?catch$1@?0??ResultFromCaughtExceptionInternal@details@wil@@YA?AUResultStatus@12@PEA_W_KPEA_N@Z@4HA| DCD 0x850000f
	DCD	0xa
	DCD	0xe3e3e481
	DCD	|__CxxFrameHandler3|
	DCD	|$cppxdata$?ResultFromCaughtExceptionInternal@details@wil@@YA?AUResultStatus@12@PEA_W_KPEA_N@Z|
	;Code Words[1], Epilog Count[1], E[0], X[1], Function Length[15]=60 bytes
	;Epilog Start Index[0], Epilog Start Offset[10]=40 bytes
	;save_fplr_x
	;end
	;nop
	;nop

	AREA	|.xdata|, DATA
|$unwind$?catch$0@?0??ResultFromCaughtExceptionInternal@details@wil@@YA?AUResultStatus@12@PEA_W_KPEA_N@Z@4HA| DCD 0x8500015
	DCD	0x11
	DCD	0xe401d481
	DCD	|__CxxFrameHandler3|
	DCD	|$cppxdata$?ResultFromCaughtExceptionInternal@details@wil@@YA?AUResultStatus@12@PEA_W_KPEA_N@Z|
	;Code Words[1], Epilog Count[1], E[0], X[1], Function Length[21]=84 bytes
	;Epilog Start Index[0], Epilog Start Offset[17]=68 bytes
	;save_fplr_x
	;save_reg_x
	;end

	AREA	|.xdata|, DATA
|$ip2state$?ResultFromCaughtExceptionInternal@details@wil@@YA?AUResultStatus@12@PEA_W_KPEA_N@Z| DCD |?ResultFromCaughtExceptionInternal@details@wil@@YA?AUResultStatus@12@PEA_W_KPEA_N@Z|+80
	DCD	0xffffffff
	DCD	|?ResultFromCaughtExceptionInternal@details@wil@@YA?AUResultStatus@12@PEA_W_KPEA_N@Z|+136
	DCD	0x0
	DCD	|?ResultFromCaughtExceptionInternal@details@wil@@YA?AUResultStatus@12@PEA_W_KPEA_N@Z|+212
	DCD	0x2
	DCD	|?ResultFromCaughtExceptionInternal@details@wil@@YA?AUResultStatus@12@PEA_W_KPEA_N@Z|+228
	DCD	0x0
	DCD	|?catch$1@?0??ResultFromCaughtExceptionInternal@details@wil@@YA?AUResultStatus@12@PEA_W_KPEA_N@Z@4HA|+12
	DCD	0x1
	DCD	|?catch$2@?0??ResultFromCaughtExceptionInternal@details@wil@@YA?AUResultStatus@12@PEA_W_KPEA_N@Z@4HA|+28
	DCD	0x0
	DCD	|?catch$4@?0??ResultFromCaughtExceptionInternal@details@wil@@YA?AUResultStatus@12@PEA_W_KPEA_N@Z@4HA|+12
	DCD	0x3
	DCD	|?catch$5@?0??ResultFromCaughtExceptionInternal@details@wil@@YA?AUResultStatus@12@PEA_W_KPEA_N@Z@4HA|+32
	DCD	0x0

	AREA	|.xdata|, DATA
|$handlerMap$1$?ResultFromCaughtExceptionInternal@details@wil@@YA?AUResultStatus@12@PEA_W_KPEA_N@Z| DCD 0x9
	DCD	|??_R0?AVResultException@wil@@@8|
	DCD	0xffffffb8
	DCD	|?catch$3@?0??ResultFromCaughtExceptionInternal@details@wil@@YA?AUResultStatus@12@PEA_W_KPEA_N@Z@4HA|
	DCD	0x0
	DCD	0x9
	DCD	|??_R0?AVbad_alloc@std@@@8|
	DCD	0xffffffd0
	DCD	|?catch$4@?0??ResultFromCaughtExceptionInternal@details@wil@@YA?AUResultStatus@12@PEA_W_KPEA_N@Z@4HA|
	DCD	0x0
	DCD	0x8
	DCD	|??_R0?AVexception@std@@@8|
	DCD	0xffffffd8
	DCD	|?catch$5@?0??ResultFromCaughtExceptionInternal@details@wil@@YA?AUResultStatus@12@PEA_W_KPEA_N@Z@4HA|
	DCD	0x0
	DCD	0x40
	DCD	0x0
	DCD	0x0
	DCD	|?catch$6@?0??ResultFromCaughtExceptionInternal@details@wil@@YA?AUResultStatus@12@PEA_W_KPEA_N@Z@4HA|
	DCD	0x0

	AREA	|.xdata|, DATA
|$handlerMap$0$?ResultFromCaughtExceptionInternal@details@wil@@YA?AUResultStatus@12@PEA_W_KPEA_N@Z| DCD 0x9
	DCD	|??_R0?AVResultException@wil@@@8|
	DCD	0xffffffb0
	DCD	|?catch$0@?0??ResultFromCaughtExceptionInternal@details@wil@@YA?AUResultStatus@12@PEA_W_KPEA_N@Z@4HA|
	DCD	0x0
	DCD	0x9
	DCD	|??_R0?AVbad_alloc@std@@@8|
	DCD	0xffffffc8
	DCD	|?catch$1@?0??ResultFromCaughtExceptionInternal@details@wil@@YA?AUResultStatus@12@PEA_W_KPEA_N@Z@4HA|
	DCD	0x0
	DCD	0x40
	DCD	0x0
	DCD	0x0
	DCD	|?catch$2@?0??ResultFromCaughtExceptionInternal@details@wil@@YA?AUResultStatus@12@PEA_W_KPEA_N@Z@4HA|
	DCD	0x0

	AREA	|.xdata|, DATA
|$tryMap$?ResultFromCaughtExceptionInternal@details@wil@@YA?AUResultStatus@12@PEA_W_KPEA_N@Z| DCD 0x0
	DCD	0x0
	DCD	0x1
	DCD	0x3
	DCD	|$handlerMap$0$?ResultFromCaughtExceptionInternal@details@wil@@YA?AUResultStatus@12@PEA_W_KPEA_N@Z|
	DCD	0x2
	DCD	0x2
	DCD	0x3
	DCD	0x4
	DCD	|$handlerMap$1$?ResultFromCaughtExceptionInternal@details@wil@@YA?AUResultStatus@12@PEA_W_KPEA_N@Z|

	AREA	|.xdata|, DATA
|$stateUnwindMap$?ResultFromCaughtExceptionInternal@details@wil@@YA?AUResultStatus@12@PEA_W_KPEA_N@Z| DCD 0xffffffff
	DCD	0x0
	DCD	0xffffffff
	DCD	0x0
	DCD	0xffffffff
	DCD	0x0
	DCD	0xffffffff
	DCD	0x0

	AREA	|.rdata|, DATA, READONLY
|$cppxdata$?ResultFromCaughtExceptionInternal@details@wil@@YA?AUResultStatus@12@PEA_W_KPEA_N@Z| DCD 0x19930522
	DCD	0x4
	DCD	|$stateUnwindMap$?ResultFromCaughtExceptionInternal@details@wil@@YA?AUResultStatus@12@PEA_W_KPEA_N@Z|
	DCD	0x2
	DCD	|$tryMap$?ResultFromCaughtExceptionInternal@details@wil@@YA?AUResultStatus@12@PEA_W_KPEA_N@Z|
	DCD	0x8
	DCD	|$ip2state$?ResultFromCaughtExceptionInternal@details@wil@@YA?AUResultStatus@12@PEA_W_KPEA_N@Z|
	DCD	0xffffffc0
	DCD	0x0
	DCD	0x5

	AREA	|.xdata|, DATA
|$unwind$?ResultFromCaughtExceptionInternal@details@wil@@YA?AUResultStatus@12@PEA_W_KPEA_N@Z| DCD 0x1090003b
	DCD	0x400025
	DCD	0x40002f
	DCD	0x82d08be1
	DCD	0xe3e3e424
	DCD	|__CxxFrameHandler3|
	DCD	|$cppxdata$?ResultFromCaughtExceptionInternal@details@wil@@YA?AUResultStatus@12@PEA_W_KPEA_N@Z|
	;Code Words[2], Epilog Count[2], E[0], X[1], Function Length[59]=236 bytes
	;Epilog Start Index[1], Epilog Start Offset[37]=148 bytes
	;Epilog Start Index[1], Epilog Start Offset[47]=188 bytes
	;set_fp
	;save_fplr_x
	;save_reg
	;save_r19r20_x
	;end
	;nop
	;nop

	AREA	|.xdata|, DATA
|$unwind$?catch$0@?0??RunFunctorWithExceptionFilter@details@wil@@YAJAEAUIFunctor@12@AEAUIFunctorHost@12@PEAX@Z@4HA| DCD 0x850000b
	DCD	0x8
	DCD	0xe3e3e481
	DCD	|__CxxFrameHandler3|
	DCD	|$cppxdata$?RunFunctorWithExceptionFilter@details@wil@@YAJAEAUIFunctor@12@AEAUIFunctorHost@12@PEAX@Z|
	;Code Words[1], Epilog Count[1], E[0], X[1], Function Length[11]=44 bytes
	;Epilog Start Index[0], Epilog Start Offset[8]=32 bytes
	;save_fplr_x
	;end
	;nop
	;nop

	AREA	|.xdata|, DATA
|$ip2state$?RunFunctorWithExceptionFilter@details@wil@@YAJAEAUIFunctor@12@AEAUIFunctorHost@12@PEAX@Z| DCD |?RunFunctorWithExceptionFilter@details@wil@@YAJAEAUIFunctor@12@AEAUIFunctorHost@12@PEAX@Z|+40
	DCD	0x0
	DCD	|?catch$0@?0??RunFunctorWithExceptionFilter@details@wil@@YAJAEAUIFunctor@12@AEAUIFunctorHost@12@PEAX@Z@4HA|+16
	DCD	0x1

	AREA	|.xdata|, DATA
|$handlerMap$0$?RunFunctorWithExceptionFilter@details@wil@@YAJAEAUIFunctor@12@AEAUIFunctorHost@12@PEAX@Z| DCD 0x40
	DCD	0x0
	DCD	0x0
	DCD	|?catch$0@?0??RunFunctorWithExceptionFilter@details@wil@@YAJAEAUIFunctor@12@AEAUIFunctorHost@12@PEAX@Z@4HA|
	DCD	0x0

	AREA	|.xdata|, DATA
|$tryMap$?RunFunctorWithExceptionFilter@details@wil@@YAJAEAUIFunctor@12@AEAUIFunctorHost@12@PEAX@Z| DCD 0x0
	DCD	0x0
	DCD	0x1
	DCD	0x1
	DCD	|$handlerMap$0$?RunFunctorWithExceptionFilter@details@wil@@YAJAEAUIFunctor@12@AEAUIFunctorHost@12@PEAX@Z|

	AREA	|.xdata|, DATA
|$stateUnwindMap$?RunFunctorWithExceptionFilter@details@wil@@YAJAEAUIFunctor@12@AEAUIFunctorHost@12@PEAX@Z| DCD 0xffffffff
	DCD	0x0
	DCD	0xffffffff
	DCD	0x0

	AREA	|.rdata|, DATA, READONLY
|$cppxdata$?RunFunctorWithExceptionFilter@details@wil@@YAJAEAUIFunctor@12@AEAUIFunctorHost@12@PEAX@Z| DCD 0x19930522
	DCD	0x2
	DCD	|$stateUnwindMap$?RunFunctorWithExceptionFilter@details@wil@@YAJAEAUIFunctor@12@AEAUIFunctorHost@12@PEAX@Z|
	DCD	0x1
	DCD	|$tryMap$?RunFunctorWithExceptionFilter@details@wil@@YAJAEAUIFunctor@12@AEAUIFunctorHost@12@PEAX@Z|
	DCD	0x2
	DCD	|$ip2state$?RunFunctorWithExceptionFilter@details@wil@@YAJAEAUIFunctor@12@AEAUIFunctorHost@12@PEAX@Z|
	DCD	0xfffffff0
	DCD	0x0
	DCD	0x1

	AREA	|.xdata|, DATA
|$unwind$?RunFunctorWithExceptionFilter@details@wil@@YAJAEAUIFunctor@12@AEAUIFunctorHost@12@PEAX@Z| DCD 0x8500010
	DCD	0x40000d
	DCD	0xe3e485e1
	DCD	|__CxxFrameHandler3|
	DCD	|$cppxdata$?RunFunctorWithExceptionFilter@details@wil@@YAJAEAUIFunctor@12@AEAUIFunctorHost@12@PEAX@Z|
	;Code Words[1], Epilog Count[1], E[0], X[1], Function Length[16]=64 bytes
	;Epilog Start Index[1], Epilog Start Offset[13]=52 bytes
	;set_fp
	;save_fplr_x
	;end
	;nop

	AREA	|.xdata|, DATA
|$unwind$?dtor$4@?0??CreateInstance@CUSBAsio@@SAPEAVCUnknown@@PEAUIUnknown@@PEAJ@Z@4HA| DCD 0x8200006
	DCD	0xe3e3e481
	;Code Words[1], Epilog Start Index[0], E[1], X[0], Function Length[6]=24 bytes
	;save_fplr_x
	;end
	;nop
	;nop

	AREA	|.xdata|, DATA
|$unwind$?dtor$3@?0??CreateInstance@CUSBAsio@@SAPEAVCUnknown@@PEAUIUnknown@@PEAJ@Z@4HA| DCD 0x8200006
	DCD	0xe3e3e481
	;Code Words[1], Epilog Start Index[0], E[1], X[0], Function Length[6]=24 bytes
	;save_fplr_x
	;end
	;nop
	;nop

	AREA	|.xdata|, DATA
|$unwind$?dtor$2@?0??CreateInstance@CUSBAsio@@SAPEAVCUnknown@@PEAUIUnknown@@PEAJ@Z@4HA| DCD 0x8200006
	DCD	0xe3e3e481
	;Code Words[1], Epilog Start Index[0], E[1], X[0], Function Length[6]=24 bytes
	;save_fplr_x
	;end
	;nop
	;nop

	AREA	|.xdata|, DATA
|$unwind$?dtor$1@?0??CreateInstance@CUSBAsio@@SAPEAVCUnknown@@PEAUIUnknown@@PEAJ@Z@4HA| DCD 0x8200006
	DCD	0xe3e3e481
	;Code Words[1], Epilog Start Index[0], E[1], X[0], Function Length[6]=24 bytes
	;save_fplr_x
	;end
	;nop
	;nop

	AREA	|.xdata|, DATA
|$unwind$?dtor$0@?0??CreateInstance@CUSBAsio@@SAPEAVCUnknown@@PEAUIUnknown@@PEAJ@Z@4HA| DCD 0x8200006
	DCD	0xe3e3e481
	;Code Words[1], Epilog Start Index[0], E[1], X[0], Function Length[6]=24 bytes
	;save_fplr_x
	;end
	;nop
	;nop

	AREA	|.xdata|, DATA
|$ip2state$?CreateInstance@CUSBAsio@@SAPEAVCUnknown@@PEAUIUnknown@@PEAJ@Z| DCD |?CreateInstance@CUSBAsio@@SAPEAVCUnknown@@PEAUIUnknown@@PEAJ@Z|+56
	DCD	0xffffffff
	DCD	|?CreateInstance@CUSBAsio@@SAPEAVCUnknown@@PEAUIUnknown@@PEAJ@Z|+560
	DCD	0x1
	DCD	|?CreateInstance@CUSBAsio@@SAPEAVCUnknown@@PEAUIUnknown@@PEAJ@Z|+588
	DCD	0x2
	DCD	|?CreateInstance@CUSBAsio@@SAPEAVCUnknown@@PEAUIUnknown@@PEAJ@Z|+616
	DCD	0x3
	DCD	|?CreateInstance@CUSBAsio@@SAPEAVCUnknown@@PEAUIUnknown@@PEAJ@Z|+788
	DCD	0x4
	DCD	|?CreateInstance@CUSBAsio@@SAPEAVCUnknown@@PEAUIUnknown@@PEAJ@Z|+1084
	DCD	0x0
	DCD	|?CreateInstance@CUSBAsio@@SAPEAVCUnknown@@PEAUIUnknown@@PEAJ@Z|+1164
	DCD	0x4
	DCD	|?CreateInstance@CUSBAsio@@SAPEAVCUnknown@@PEAUIUnknown@@PEAJ@Z|+1332
	DCD	0x0
	DCD	|?CreateInstance@CUSBAsio@@SAPEAVCUnknown@@PEAUIUnknown@@PEAJ@Z|+1472
	DCD	0x4
	DCD	|?CreateInstance@CUSBAsio@@SAPEAVCUnknown@@PEAUIUnknown@@PEAJ@Z|+2440
	DCD	0x0
	DCD	|?CreateInstance@CUSBAsio@@SAPEAVCUnknown@@PEAUIUnknown@@PEAJ@Z|+2468
	DCD	0x4
	DCD	|?CreateInstance@CUSBAsio@@SAPEAVCUnknown@@PEAUIUnknown@@PEAJ@Z|+2540
	DCD	0x0
	DCD	|?CreateInstance@CUSBAsio@@SAPEAVCUnknown@@PEAUIUnknown@@PEAJ@Z|+2600
	DCD	0x4
	DCD	|?CreateInstance@CUSBAsio@@SAPEAVCUnknown@@PEAUIUnknown@@PEAJ@Z|+3928
	DCD	0xffffffff

	AREA	|.xdata|, DATA
|$stateUnwindMap$?CreateInstance@CUSBAsio@@SAPEAVCUnknown@@PEAUIUnknown@@PEAJ@Z| DCD 0xffffffff
	DCD	|?dtor$0@?0??CreateInstance@CUSBAsio@@SAPEAVCUnknown@@PEAUIUnknown@@PEAJ@Z@4HA|
	DCD	0x0
	DCD	|?dtor$1@?0??CreateInstance@CUSBAsio@@SAPEAVCUnknown@@PEAUIUnknown@@PEAJ@Z@4HA|
	DCD	0x1
	DCD	|?dtor$2@?0??CreateInstance@CUSBAsio@@SAPEAVCUnknown@@PEAUIUnknown@@PEAJ@Z@4HA|
	DCD	0x2
	DCD	|?dtor$3@?0??CreateInstance@CUSBAsio@@SAPEAVCUnknown@@PEAUIUnknown@@PEAJ@Z@4HA|
	DCD	0x3
	DCD	|?dtor$4@?0??CreateInstance@CUSBAsio@@SAPEAVCUnknown@@PEAUIUnknown@@PEAJ@Z@4HA|

	AREA	|.rdata|, DATA, READONLY
|$cppxdata$?CreateInstance@CUSBAsio@@SAPEAVCUnknown@@PEAUIUnknown@@PEAJ@Z| DCD 0x19930522
	DCD	0x5
	DCD	|$stateUnwindMap$?CreateInstance@CUSBAsio@@SAPEAVCUnknown@@PEAUIUnknown@@PEAJ@Z|
	DCD	0x0
	DCD	0x0
	DCD	0xe
	DCD	|$ip2state$?CreateInstance@CUSBAsio@@SAPEAVCUnknown@@PEAUIUnknown@@PEAJ@Z|
	DCD	0xfffffc10
	DCD	0x0
	DCD	0x1

	AREA	|.xdata|, DATA
|$unwind$?CreateInstance@CUSBAsio@@SAPEAVCUnknown@@PEAUIUnknown@@PEAJ@Z| DCD 0x405003e2
	DCD	0x38003d7
	DCD	0xad2e101
	DCD	0x6c988c9
	DCD	0x2c884c8
	DCD	0x38c0e48b
	DCD	0xc90ad201
	DCD	0xc806c988
	DCD	0x8b02c884
	DCD	0xe3e3e3e4
	DCD	|__GSHandlerCheck_EH|
	DCD	|$cppxdata$?CreateInstance@CUSBAsio@@SAPEAVCUnknown@@PEAUIUnknown@@PEAJ@Z|
	DCD	0xffffff9a
	;Code Words[8], Epilog Count[1], E[0], X[1], Function Length[994]=3976 bytes
	;Epilog Start Index[14], Epilog Start Offset[983]=3932 bytes
	;alloc_s
	;set_fp
	;save_reg
	;save_regp
	;save_regp
	;save_regp
	;save_regp
	;save_fplr_x
	;end
	;alloc_m
	;alloc_s
	;save_reg
	;save_regp
	;save_regp
	;save_regp
	;save_regp
	;save_fplr_x
	;end
	;nop
	;nop
	;nop

	AREA	|.xdata|, DATA
|$unwind$?NonDelegatingQueryInterface@CUSBAsio@@UEAAJAEBU_GUID@@PEAPEAX@Z| DCD 0x8c00038
	DCD	0x400017
	DCD	0x40001e
	DCD	0x400034
	DCD	0xe3e481e1
	;Code Words[1], Epilog Count[3], E[0], X[0], Function Length[56]=224 bytes
	;Epilog Start Index[1], Epilog Start Offset[23]=92 bytes
	;Epilog Start Index[1], Epilog Start Offset[30]=120 bytes
	;Epilog Start Index[1], Epilog Start Offset[52]=208 bytes
	;set_fp
	;save_fplr_x
	;end
	;nop

	AREA	|.xdata|, DATA
|$unwind$?dtor$3@?0???0CUSBAsio@@QEAA@PEAUIUnknown@@PEAJ@Z@4HA| DCD 0x8200006
	DCD	0xe3e3e481
	;Code Words[1], Epilog Start Index[0], E[1], X[0], Function Length[6]=24 bytes
	;save_fplr_x
	;end
	;nop
	;nop

	AREA	|.xdata|, DATA
|$unwind$?dtor$2@?0???0CUSBAsio@@QEAA@PEAUIUnknown@@PEAJ@Z@4HA| DCD 0x8200006
	DCD	0xe3e3e481
	;Code Words[1], Epilog Start Index[0], E[1], X[0], Function Length[6]=24 bytes
	;save_fplr_x
	;end
	;nop
	;nop

	AREA	|.xdata|, DATA
|$unwind$?dtor$1@?0???0CUSBAsio@@QEAA@PEAUIUnknown@@PEAJ@Z@4HA| DCD 0x8200006
	DCD	0xe3e3e481
	;Code Words[1], Epilog Start Index[0], E[1], X[0], Function Length[6]=24 bytes
	;save_fplr_x
	;end
	;nop
	;nop

	AREA	|.xdata|, DATA
|$unwind$?dtor$0@?0???0CUSBAsio@@QEAA@PEAUIUnknown@@PEAJ@Z@4HA| DCD 0x8200006
	DCD	0xe3e3e481
	;Code Words[1], Epilog Start Index[0], E[1], X[0], Function Length[6]=24 bytes
	;save_fplr_x
	;end
	;nop
	;nop

	AREA	|.xdata|, DATA
|$ip2state$??0CUSBAsio@@QEAA@PEAUIUnknown@@PEAJ@Z| DCD |??0CUSBAsio@@QEAA@PEAUIUnknown@@PEAJ@Z|+536
	DCD	0x0
	DCD	|??0CUSBAsio@@QEAA@PEAUIUnknown@@PEAJ@Z|+564
	DCD	0x1
	DCD	|??0CUSBAsio@@QEAA@PEAUIUnknown@@PEAJ@Z|+592
	DCD	0x2
	DCD	|??0CUSBAsio@@QEAA@PEAUIUnknown@@PEAJ@Z|+764
	DCD	0x3
	DCD	|??0CUSBAsio@@QEAA@PEAUIUnknown@@PEAJ@Z|+1060
	DCD	0x0
	DCD	|??0CUSBAsio@@QEAA@PEAUIUnknown@@PEAJ@Z|+1132
	DCD	0x3
	DCD	|??0CUSBAsio@@QEAA@PEAUIUnknown@@PEAJ@Z|+1336
	DCD	0x0
	DCD	|??0CUSBAsio@@QEAA@PEAUIUnknown@@PEAJ@Z|+1396
	DCD	0x3
	DCD	|??0CUSBAsio@@QEAA@PEAUIUnknown@@PEAJ@Z|+2724
	DCD	0xffffffff

	AREA	|.xdata|, DATA
|$stateUnwindMap$??0CUSBAsio@@QEAA@PEAUIUnknown@@PEAJ@Z| DCD 0xffffffff
	DCD	|?dtor$0@?0???0CUSBAsio@@QEAA@PEAUIUnknown@@PEAJ@Z@4HA|
	DCD	0x0
	DCD	|?dtor$1@?0???0CUSBAsio@@QEAA@PEAUIUnknown@@PEAJ@Z@4HA|
	DCD	0x1
	DCD	|?dtor$2@?0???0CUSBAsio@@QEAA@PEAUIUnknown@@PEAJ@Z@4HA|
	DCD	0x2
	DCD	|?dtor$3@?0???0CUSBAsio@@QEAA@PEAUIUnknown@@PEAJ@Z@4HA|

	AREA	|.rdata|, DATA, READONLY
|$cppxdata$??0CUSBAsio@@QEAA@PEAUIUnknown@@PEAJ@Z| DCD 0x19930522
	DCD	0x4
	DCD	|$stateUnwindMap$??0CUSBAsio@@QEAA@PEAUIUnknown@@PEAJ@Z|
	DCD	0x0
	DCD	0x0
	DCD	0x9
	DCD	|$ip2state$??0CUSBAsio@@QEAA@PEAUIUnknown@@PEAJ@Z|
	DCD	0xfffffc80
	DCD	0x0
	DCD	0x1

	AREA	|.xdata|, DATA
|$unwind$??0CUSBAsio@@QEAA@PEAUIUnknown@@PEAJ@Z| DCD 0x405002b6
	DCD	0x38002aa
	DCD	0xad2e101
	DCD	0x6c988c9
	DCD	0x2c884c8
	DCD	0x31c0e48b
	DCD	0xc90ad201
	DCD	0xc806c988
	DCD	0x8b02c884
	DCD	0xe3e3e3e4
	DCD	|__GSHandlerCheck_EH|
	DCD	|$cppxdata$??0CUSBAsio@@QEAA@PEAUIUnknown@@PEAJ@Z|
	DCD	0xffffff9a
	;Code Words[8], Epilog Count[1], E[0], X[1], Function Length[694]=2776 bytes
	;Epilog Start Index[14], Epilog Start Offset[682]=2728 bytes
	;alloc_s
	;set_fp
	;save_reg
	;save_regp
	;save_regp
	;save_regp
	;save_regp
	;save_fplr_x
	;end
	;alloc_m
	;alloc_s
	;save_reg
	;save_regp
	;save_regp
	;save_regp
	;save_regp
	;save_fplr_x
	;end
	;nop
	;nop
	;nop

	AREA	|.xdata|, DATA
|$ip2state$??_GCUSBAsio@@UEAAPEAXI@Z| DCD |??_GCUSBAsio@@UEAAPEAXI@Z|+64
	DCD	0x0
	DCD	|??_GCUSBAsio@@UEAAPEAXI@Z|+448
	DCD	0xffffffff

	AREA	|.xdata|, DATA
|$stateUnwindMap$??_GCUSBAsio@@UEAAPEAXI@Z| DCD 0xffffffff
	DCD	|__std_terminate|

	AREA	|.rdata|, DATA, READONLY
|$cppxdata$??_GCUSBAsio@@UEAAPEAXI@Z| DCD 0x19930522
	DCD	0x1
	DCD	|$stateUnwindMap$??_GCUSBAsio@@UEAAPEAXI@Z|
	DCD	0x0
	DCD	0x0
	DCD	0x2
	DCD	|$ip2state$??_GCUSBAsio@@UEAAPEAXI@Z|
	DCD	0xffffff90
	DCD	0x0
	DCD	0x5

	AREA	|.xdata|, DATA
|$unwind$??_GCUSBAsio@@UEAAPEAXI@Z| DCD 0x2230007b
	DCD	0x84d0e101
	DCD	0xe48502c8
	DCD	0x84d00103
	DCD	0xe48502c8
	DCD	|__GSHandlerCheck_EH|
	DCD	|$cppxdata$??_GCUSBAsio@@UEAAPEAXI@Z|
	DCD	0xffffffcb
	;Code Words[4], Epilog Start Index[8], E[1], X[1], Function Length[123]=492 bytes
	;alloc_s
	;set_fp
	;save_reg
	;save_regp
	;save_fplr_x
	;end
	;alloc_s
	;alloc_s
	;save_reg
	;save_regp
	;save_fplr_x
	;end

	AREA	|.xdata|, DATA
|$ip2state$??1CUSBAsio@@UEAA@XZ| DCD |??1CUSBAsio@@UEAA@XZ|+56
	DCD	0xffffffff

	AREA	|.rdata|, DATA, READONLY
|$cppxdata$??1CUSBAsio@@UEAA@XZ| DCD 0x19930522
	DCD	0x0
	DCD	0x0
	DCD	0x0
	DCD	0x0
	DCD	0x1
	DCD	|$ip2state$??1CUSBAsio@@UEAA@XZ|
	DCD	0xffffffa0
	DCD	0x0
	DCD	0x5

	AREA	|.xdata|, DATA
|$unwind$??1CUSBAsio@@UEAA@XZ| DCD 0x19b00072
	DCD	0x2c8e101
	DCD	0x103e483
	DCD	0xe48302c8
	DCD	|__GSHandlerCheck_EH|
	DCD	|$cppxdata$??1CUSBAsio@@UEAA@XZ|
	DCD	0xffffffdb
	;Code Words[3], Epilog Start Index[6], E[1], X[1], Function Length[114]=456 bytes
	;alloc_s
	;set_fp
	;save_regp
	;save_fplr_x
	;end
	;alloc_s
	;alloc_s
	;save_regp
	;save_fplr_x
	;end

	AREA	|.xdata|, DATA
|$unwind$2$?start@CUSBAsio@@UEAAJXZ| DCD 0x10400002
	DCD	0x800000
	DCD	0xd481e1e5
	DCD	0xe3e3e401
	;Code Words[2], Epilog Count[1], E[0], X[0], Function Length[2]=8 bytes
	;Epilog Start Index[2], Epilog Start Offset[0]=0 bytes
	;end_c
	;set_fp
	;save_fplr_x
	;save_reg_x
	;end
	;nop
	;nop

	AREA	|.xdata|, DATA
|$unwind$0$?start@CUSBAsio@@UEAAJXZ| DCD 0x1040002b
	DCD	0x400029
	DCD	0x1d481e1
	DCD	0xe3e3e4e5
	;Code Words[2], Epilog Count[1], E[0], X[0], Function Length[43]=172 bytes
	;Epilog Start Index[1], Epilog Start Offset[41]=164 bytes
	;set_fp
	;save_fplr_x
	;save_reg_x
	;end_c
	;end
	;nop
	;nop

	AREA	|.xdata|, DATA
|$unwind$2$?stop@CUSBAsio@@UEAAJXZ| DCD 0x10400002
	DCD	0x800000
	DCD	0xd481e1e5
	DCD	0xe3e3e401
	;Code Words[2], Epilog Count[1], E[0], X[0], Function Length[2]=8 bytes
	;Epilog Start Index[2], Epilog Start Offset[0]=0 bytes
	;end_c
	;set_fp
	;save_fplr_x
	;save_reg_x
	;end
	;nop
	;nop

	AREA	|.xdata|, DATA
|$unwind$0$?stop@CUSBAsio@@UEAAJXZ| DCD 0x1040002a
	DCD	0x400028
	DCD	0x1d481e1
	DCD	0xe3e3e4e5
	;Code Words[2], Epilog Count[1], E[0], X[0], Function Length[42]=168 bytes
	;Epilog Start Index[1], Epilog Start Offset[40]=160 bytes
	;set_fp
	;save_fplr_x
	;save_reg_x
	;end_c
	;end
	;nop
	;nop

	AREA	|.xdata|, DATA
|$unwind$5$?getChannels@CUSBAsio@@UEAAJPEAJ0@Z| DCD 0x10a00006
	DCD	0x281e1e5
	DCD	0xe3e3e3e4
	;Code Words[2], Epilog Start Index[2], E[1], X[0], Function Length[6]=24 bytes
	;end_c
	;set_fp
	;save_fplr_x
	;alloc_s
	;end
	;nop
	;nop
	;nop

	AREA	|.xdata|, DATA
|$unwind$4$?getChannels@CUSBAsio@@UEAAJPEAJ0@Z| DCD 0x18400004
	DCD	0x400002
	DCD	0xc884c8e5
	DCD	0x281e102
	DCD	0xe3e3e3e4
	;Code Words[3], Epilog Count[1], E[0], X[0], Function Length[4]=16 bytes
	;Epilog Start Index[1], Epilog Start Offset[2]=8 bytes
	;end_c
	;save_regp
	;save_regp
	;set_fp
	;save_fplr_x
	;alloc_s
	;end
	;nop
	;nop
	;nop

	AREA	|.xdata|, DATA
|$unwind$3$?getChannels@CUSBAsio@@UEAAJPEAJ0@Z| DCD 0x10a00003
	DCD	0x281e1e5
	DCD	0xe3e3e3e4
	;Code Words[2], Epilog Start Index[2], E[1], X[0], Function Length[3]=12 bytes
	;end_c
	;set_fp
	;save_fplr_x
	;alloc_s
	;end
	;nop
	;nop
	;nop

	AREA	|.xdata|, DATA
|$unwind$2$?getChannels@CUSBAsio@@UEAAJPEAJ0@Z| DCD 0x18400003
	DCD	0x400001
	DCD	0xc884c8e5
	DCD	0x281e102
	DCD	0xe3e3e3e4
	;Code Words[3], Epilog Count[1], E[0], X[0], Function Length[3]=12 bytes
	;Epilog Start Index[1], Epilog Start Offset[1]=4 bytes
	;end_c
	;save_regp
	;save_regp
	;set_fp
	;save_fplr_x
	;alloc_s
	;end
	;nop
	;nop
	;nop

	AREA	|.xdata|, DATA
|$unwind$1$?getChannels@CUSBAsio@@UEAAJPEAJ0@Z| DCD 0x10a00003
	DCD	0x281e1e5
	DCD	0xe3e3e3e4
	;Code Words[2], Epilog Start Index[2], E[1], X[0], Function Length[3]=12 bytes
	;end_c
	;set_fp
	;save_fplr_x
	;alloc_s
	;end
	;nop
	;nop
	;nop

	AREA	|.xdata|, DATA
|$unwind$0$?getChannels@CUSBAsio@@UEAAJPEAJ0@Z| DCD 0x1840001c
	DCD	0x1a
	DCD	0x2c884c8
	DCD	0x281e1e5
	DCD	0xe3e3e3e4
	;Code Words[3], Epilog Count[1], E[0], X[0], Function Length[28]=112 bytes
	;Epilog Start Index[0], Epilog Start Offset[26]=104 bytes
	;save_regp
	;save_regp
	;end_c
	;set_fp
	;save_fplr_x
	;alloc_s
	;end
	;nop
	;nop
	;nop

	AREA	|.xdata|, DATA
|$unwind$?getChannels@CUSBAsio@@UEAAJPEAJ0@Z| DCD 0x8000006
	DCD	0xe40281e1
	;Code Words[1], Epilog Count[0], E[0], X[0], Function Length[6]=24 bytes
	;set_fp
	;save_fplr_x
	;alloc_s
	;end

	AREA	|.xdata|, DATA
|$unwind$3$?getLatencies@CUSBAsio@@UEAAJPEAJ0@Z| DCD 0x10a00004
	DCD	0x281e1e5
	DCD	0xe3e3e3e4
	;Code Words[2], Epilog Start Index[2], E[1], X[0], Function Length[4]=16 bytes
	;end_c
	;set_fp
	;save_fplr_x
	;alloc_s
	;end
	;nop
	;nop
	;nop

	AREA	|.xdata|, DATA
|$unwind$2$?getLatencies@CUSBAsio@@UEAAJPEAJ0@Z| DCD 0x18400002
	DCD	0x400000
	DCD	0xc884d0e5
	DCD	0x281e102
	DCD	0xe3e3e3e4
	;Code Words[3], Epilog Count[1], E[0], X[0], Function Length[2]=8 bytes
	;Epilog Start Index[1], Epilog Start Offset[0]=0 bytes
	;end_c
	;save_reg
	;save_regp
	;set_fp
	;save_fplr_x
	;alloc_s
	;end
	;nop
	;nop
	;nop

	AREA	|.xdata|, DATA
|$unwind$1$?getLatencies@CUSBAsio@@UEAAJPEAJ0@Z| DCD 0x10a00003
	DCD	0x281e1e5
	DCD	0xe3e3e3e4
	;Code Words[2], Epilog Start Index[2], E[1], X[0], Function Length[3]=12 bytes
	;end_c
	;set_fp
	;save_fplr_x
	;alloc_s
	;end
	;nop
	;nop
	;nop

	AREA	|.xdata|, DATA
|$unwind$0$?getLatencies@CUSBAsio@@UEAAJPEAJ0@Z| DCD 0x18400017
	DCD	0x15
	DCD	0x2c884d0
	DCD	0x281e1e5
	DCD	0xe3e3e3e4
	;Code Words[3], Epilog Count[1], E[0], X[0], Function Length[23]=92 bytes
	;Epilog Start Index[0], Epilog Start Offset[21]=84 bytes
	;save_reg
	;save_regp
	;end_c
	;set_fp
	;save_fplr_x
	;alloc_s
	;end
	;nop
	;nop
	;nop

	AREA	|.xdata|, DATA
|$unwind$?getLatencies@CUSBAsio@@UEAAJPEAJ0@Z| DCD 0x8000008
	DCD	0xe40281e1
	;Code Words[1], Epilog Count[0], E[0], X[0], Function Length[8]=32 bytes
	;set_fp
	;save_fplr_x
	;alloc_s
	;end

	AREA	|.xdata|, DATA
|$unwind$5$?canSampleRate@CUSBAsio@@UEAAJN@Z| DCD 0x10a00004
	DCD	0x281e1e5
	DCD	0xe3e3e3e4
	;Code Words[2], Epilog Start Index[2], E[1], X[0], Function Length[4]=16 bytes
	;end_c
	;set_fp
	;save_fplr_x
	;alloc_s
	;end
	;nop
	;nop
	;nop

	AREA	|.xdata|, DATA
|$unwind$4$?canSampleRate@CUSBAsio@@UEAAJN@Z| DCD 0x18400002
	DCD	0x400000
	DCD	0xc884c8e5
	DCD	0x281e102
	DCD	0xe3e3e3e4
	;Code Words[3], Epilog Count[1], E[0], X[0], Function Length[2]=8 bytes
	;Epilog Start Index[1], Epilog Start Offset[0]=0 bytes
	;end_c
	;save_regp
	;save_regp
	;set_fp
	;save_fplr_x
	;alloc_s
	;end
	;nop
	;nop
	;nop

	AREA	|.xdata|, DATA
|$unwind$3$?canSampleRate@CUSBAsio@@UEAAJN@Z| DCD 0x10a00003
	DCD	0x281e1e5
	DCD	0xe3e3e3e4
	;Code Words[2], Epilog Start Index[2], E[1], X[0], Function Length[3]=12 bytes
	;end_c
	;set_fp
	;save_fplr_x
	;alloc_s
	;end
	;nop
	;nop
	;nop

	AREA	|.xdata|, DATA
|$unwind$2$?canSampleRate@CUSBAsio@@UEAAJN@Z| DCD 0x18400027
	DCD	0x400025
	DCD	0xc884c8e5
	DCD	0x281e102
	DCD	0xe3e3e3e4
	;Code Words[3], Epilog Count[1], E[0], X[0], Function Length[39]=156 bytes
	;Epilog Start Index[1], Epilog Start Offset[37]=148 bytes
	;end_c
	;save_regp
	;save_regp
	;set_fp
	;save_fplr_x
	;alloc_s
	;end
	;nop
	;nop
	;nop

	AREA	|.xdata|, DATA
|$unwind$1$?canSampleRate@CUSBAsio@@UEAAJN@Z| DCD 0x10a00003
	DCD	0x281e1e5
	DCD	0xe3e3e3e4
	;Code Words[2], Epilog Start Index[2], E[1], X[0], Function Length[3]=12 bytes
	;end_c
	;set_fp
	;save_fplr_x
	;alloc_s
	;end
	;nop
	;nop
	;nop

	AREA	|.xdata|, DATA
|$unwind$0$?canSampleRate@CUSBAsio@@UEAAJN@Z| DCD 0x18400010
	DCD	0xe
	DCD	0x2c884c8
	DCD	0x281e1e5
	DCD	0xe3e3e3e4
	;Code Words[3], Epilog Count[1], E[0], X[0], Function Length[16]=64 bytes
	;Epilog Start Index[0], Epilog Start Offset[14]=56 bytes
	;save_regp
	;save_regp
	;end_c
	;set_fp
	;save_fplr_x
	;alloc_s
	;end
	;nop
	;nop
	;nop

	AREA	|.xdata|, DATA
|$unwind$?canSampleRate@CUSBAsio@@UEAAJN@Z| DCD 0x8000006
	DCD	0xe40281e1
	;Code Words[1], Epilog Count[0], E[0], X[0], Function Length[6]=24 bytes
	;set_fp
	;save_fplr_x
	;alloc_s
	;end

	AREA	|.xdata|, DATA
|$unwind$3$?getSampleRate@CUSBAsio@@UEAAJPEAN@Z| DCD 0x10a00003
	DCD	0x281e1e5
	DCD	0xe3e3e3e4
	;Code Words[2], Epilog Start Index[2], E[1], X[0], Function Length[3]=12 bytes
	;end_c
	;set_fp
	;save_fplr_x
	;alloc_s
	;end
	;nop
	;nop
	;nop

	AREA	|.xdata|, DATA
|$unwind$2$?getSampleRate@CUSBAsio@@UEAAJPEAN@Z| DCD 0x18400003
	DCD	0x400001
	DCD	0xc884d0e5
	DCD	0x281e102
	DCD	0xe3e3e3e4
	;Code Words[3], Epilog Count[1], E[0], X[0], Function Length[3]=12 bytes
	;Epilog Start Index[1], Epilog Start Offset[1]=4 bytes
	;end_c
	;save_reg
	;save_regp
	;set_fp
	;save_fplr_x
	;alloc_s
	;end
	;nop
	;nop
	;nop

	AREA	|.xdata|, DATA
|$unwind$1$?getSampleRate@CUSBAsio@@UEAAJPEAN@Z| DCD 0x10a00003
	DCD	0x281e1e5
	DCD	0xe3e3e3e4
	;Code Words[2], Epilog Start Index[2], E[1], X[0], Function Length[3]=12 bytes
	;end_c
	;set_fp
	;save_fplr_x
	;alloc_s
	;end
	;nop
	;nop
	;nop

	AREA	|.xdata|, DATA
|$unwind$0$?getSampleRate@CUSBAsio@@UEAAJPEAN@Z| DCD 0x1840001b
	DCD	0x19
	DCD	0x2c884d0
	DCD	0x281e1e5
	DCD	0xe3e3e3e4
	;Code Words[3], Epilog Count[1], E[0], X[0], Function Length[27]=108 bytes
	;Epilog Start Index[0], Epilog Start Offset[25]=100 bytes
	;save_reg
	;save_regp
	;end_c
	;set_fp
	;save_fplr_x
	;alloc_s
	;end
	;nop
	;nop
	;nop

	AREA	|.xdata|, DATA
|$unwind$?getSampleRate@CUSBAsio@@UEAAJPEAN@Z| DCD 0x8600008
	DCD	0xe40281e1
	;Code Words[1], Epilog Start Index[1], E[1], X[0], Function Length[8]=32 bytes
	;set_fp
	;save_fplr_x
	;alloc_s
	;end

	AREA	|.xdata|, DATA
|$unwind$?dtor$1@?0??setSampleRate@CUSBAsio@@UEAAJN@Z@4HA| DCD 0x8200005
	DCD	0xe3e3e481
	;Code Words[1], Epilog Start Index[0], E[1], X[0], Function Length[5]=20 bytes
	;save_fplr_x
	;end
	;nop
	;nop

	AREA	|.xdata|, DATA
|$unwind$?dtor$0@?0??setSampleRate@CUSBAsio@@UEAAJN@Z@4HA| DCD 0x8200005
	DCD	0xe3e3e481
	;Code Words[1], Epilog Start Index[0], E[1], X[0], Function Length[5]=20 bytes
	;save_fplr_x
	;end
	;nop
	;nop

	AREA	|.xdata|, DATA
|$ip2state$?setSampleRate@CUSBAsio@@UEAAJN@Z| DCD |?setSampleRate@CUSBAsio@@UEAAJN@Z|+92
	DCD	0xffffffff
	DCD	|?setSampleRate@CUSBAsio@@UEAAJN@Z|+132
	DCD	0x0
	DCD	|?setSampleRate@CUSBAsio@@UEAAJN@Z|+156
	DCD	0x1
	DCD	|?setSampleRate@CUSBAsio@@UEAAJN@Z|+360
	DCD	0x0
	DCD	|?setSampleRate@CUSBAsio@@UEAAJN@Z|+424
	DCD	0x1
	DCD	|?setSampleRate@CUSBAsio@@UEAAJN@Z|+468
	DCD	0x0
	DCD	|?setSampleRate@CUSBAsio@@UEAAJN@Z|+492
	DCD	0xffffffff
	DCD	|?setSampleRate@CUSBAsio@@UEAAJN@Z|+520
	DCD	0x0
	DCD	|?setSampleRate@CUSBAsio@@UEAAJN@Z|+544
	DCD	0xffffffff

	AREA	|.xdata|, DATA
|$stateUnwindMap$?setSampleRate@CUSBAsio@@UEAAJN@Z| DCD 0xffffffff
	DCD	|?dtor$0@?0??setSampleRate@CUSBAsio@@UEAAJN@Z@4HA|
	DCD	0x0
	DCD	|?dtor$1@?0??setSampleRate@CUSBAsio@@UEAAJN@Z@4HA|

	AREA	|.rdata|, DATA, READONLY
|$cppxdata$?setSampleRate@CUSBAsio@@UEAAJN@Z| DCD 0x19930522
	DCD	0x2
	DCD	|$stateUnwindMap$?setSampleRate@CUSBAsio@@UEAAJN@Z|
	DCD	0x0
	DCD	0x0
	DCD	0x9
	DCD	|$ip2state$?setSampleRate@CUSBAsio@@UEAAJN@Z|
	DCD	0xffffff60
	DCD	0x0
	DCD	0x1

	AREA	|.xdata|, DATA
|$unwind$?setSampleRate@CUSBAsio@@UEAAJN@Z| DCD 0x33300098
	DCD	0x8dce101
	DCD	0x84c806c9
	DCD	0xe48902c8
	DCD	0x8dc0104
	DCD	0x84c806c9
	DCD	0xe48902c8
	DCD	|__GSHandlerCheck_EH|
	DCD	|$cppxdata$?setSampleRate@CUSBAsio@@UEAAJN@Z|
	DCD	0xffffffaa
	;Code Words[6], Epilog Start Index[12], E[1], X[1], Function Length[152]=608 bytes
	;alloc_s
	;set_fp
	;save_freg
	;save_regp
	;save_regp
	;save_regp
	;save_fplr_x
	;end
	;alloc_s
	;alloc_s
	;save_freg
	;save_regp
	;save_regp
	;save_regp
	;save_fplr_x
	;end

	AREA	|.xdata|, DATA
|$unwind$3$?getClockSources@CUSBAsio@@UEAAJPEAUASIOClockSource@@PEAJ@Z| DCD 0x10a00004
	DCD	0x587e1e5
	DCD	0xe3e3e3e4
	;Code Words[2], Epilog Start Index[2], E[1], X[0], Function Length[4]=16 bytes
	;end_c
	;set_fp
	;save_fplr_x
	;alloc_s
	;end
	;nop
	;nop
	;nop

	AREA	|.xdata|, DATA
|$unwind$2$?getClockSources@CUSBAsio@@UEAAJPEAUASIOClockSource@@PEAJ@Z| DCD 0x2040002b
	DCD	0x400026
	DCD	0xc910cae5
	DCD	0xc80cc98e
	DCD	0xe108c88a
	DCD	0xe3e40587
	;Code Words[4], Epilog Count[1], E[0], X[0], Function Length[43]=172 bytes
	;Epilog Start Index[1], Epilog Start Offset[38]=152 bytes
	;end_c
	;save_regp
	;save_regp
	;save_regp
	;save_regp
	;save_regp
	;set_fp
	;save_fplr_x
	;alloc_s
	;end
	;nop

	AREA	|.xdata|, DATA
|$unwind$1$?getClockSources@CUSBAsio@@UEAAJPEAUASIOClockSource@@PEAJ@Z| DCD 0x10a00003
	DCD	0x587e1e5
	DCD	0xe3e3e3e4
	;Code Words[2], Epilog Start Index[2], E[1], X[0], Function Length[3]=12 bytes
	;end_c
	;set_fp
	;save_fplr_x
	;alloc_s
	;end
	;nop
	;nop
	;nop

	AREA	|.xdata|, DATA
|$unwind$0$?getClockSources@CUSBAsio@@UEAAJPEAUASIOClockSource@@PEAJ@Z| DCD 0x2040002a
	DCD	0x25
	DCD	0x8ec910ca
	DCD	0x8ac80cc9
	DCD	0xe1e508c8
	DCD	0xe3e40587
	;Code Words[4], Epilog Count[1], E[0], X[0], Function Length[42]=168 bytes
	;Epilog Start Index[0], Epilog Start Offset[37]=148 bytes
	;save_regp
	;save_regp
	;save_regp
	;save_regp
	;save_regp
	;end_c
	;set_fp
	;save_fplr_x
	;alloc_s
	;end
	;nop

	AREA	|.xdata|, DATA
|$unwind$?getClockSources@CUSBAsio@@UEAAJPEAUASIOClockSource@@PEAJ@Z| DCD 0x8000004
	DCD	0xe40587e1
	;Code Words[1], Epilog Count[0], E[0], X[0], Function Length[4]=16 bytes
	;set_fp
	;save_fplr_x
	;alloc_s
	;end

	AREA	|.xdata|, DATA
|$unwind$?dtor$1@?0??setClockSource@CUSBAsio@@UEAAJJ@Z@4HA| DCD 0x8200005
	DCD	0xe3e3e481
	;Code Words[1], Epilog Start Index[0], E[1], X[0], Function Length[5]=20 bytes
	;save_fplr_x
	;end
	;nop
	;nop

	AREA	|.xdata|, DATA
|$unwind$?dtor$0@?0??setClockSource@CUSBAsio@@UEAAJJ@Z@4HA| DCD 0x8200005
	DCD	0xe3e3e481
	;Code Words[1], Epilog Start Index[0], E[1], X[0], Function Length[5]=20 bytes
	;save_fplr_x
	;end
	;nop
	;nop

	AREA	|.xdata|, DATA
|$ip2state$?setClockSource@CUSBAsio@@UEAAJJ@Z| DCD |?setClockSource@CUSBAsio@@UEAAJJ@Z|+92
	DCD	0xffffffff
	DCD	|?setClockSource@CUSBAsio@@UEAAJJ@Z|+116
	DCD	0x0
	DCD	|?setClockSource@CUSBAsio@@UEAAJJ@Z|+212
	DCD	0x1
	DCD	|?setClockSource@CUSBAsio@@UEAAJJ@Z|+260
	DCD	0x0
	DCD	|?setClockSource@CUSBAsio@@UEAAJJ@Z|+296
	DCD	0xffffffff
	DCD	|?setClockSource@CUSBAsio@@UEAAJJ@Z|+324
	DCD	0x0
	DCD	|?setClockSource@CUSBAsio@@UEAAJJ@Z|+348
	DCD	0xffffffff

	AREA	|.xdata|, DATA
|$stateUnwindMap$?setClockSource@CUSBAsio@@UEAAJJ@Z| DCD 0xffffffff
	DCD	|?dtor$0@?0??setClockSource@CUSBAsio@@UEAAJJ@Z@4HA|
	DCD	0x0
	DCD	|?dtor$1@?0??setClockSource@CUSBAsio@@UEAAJJ@Z@4HA|

	AREA	|.rdata|, DATA, READONLY
|$cppxdata$?setClockSource@CUSBAsio@@UEAAJJ@Z| DCD 0x19930522
	DCD	0x2
	DCD	|$stateUnwindMap$?setClockSource@CUSBAsio@@UEAAJJ@Z|
	DCD	0x0
	DCD	0x0
	DCD	0x7
	DCD	|$ip2state$?setClockSource@CUSBAsio@@UEAAJJ@Z|
	DCD	0xffffff70
	DCD	0x0
	DCD	0x1

	AREA	|.xdata|, DATA
|$unwind$?setClockSource@CUSBAsio@@UEAAJJ@Z| DCD 0x2ab00066
	DCD	0x6d1e101
	DCD	0x2c884c8
	DCD	0x104e487
	DCD	0x84c806d1
	DCD	0xe48702c8
	DCD	|__GSHandlerCheck_EH|
	DCD	|$cppxdata$?setClockSource@CUSBAsio@@UEAAJJ@Z|
	DCD	0xffffffba
	;Code Words[5], Epilog Start Index[10], E[1], X[1], Function Length[102]=408 bytes
	;alloc_s
	;set_fp
	;save_reg
	;save_regp
	;save_regp
	;save_fplr_x
	;end
	;alloc_s
	;alloc_s
	;save_reg
	;save_regp
	;save_regp
	;save_fplr_x
	;end

	AREA	|.xdata|, DATA
|$unwind$5$?getChannelInfo@CUSBAsio@@UEAAJPEAUASIOChannelInfo@@@Z| DCD 0x10a00003
	DCD	0x281e1e5
	DCD	0xe3e3e3e4
	;Code Words[2], Epilog Start Index[2], E[1], X[0], Function Length[3]=12 bytes
	;end_c
	;set_fp
	;save_fplr_x
	;alloc_s
	;end
	;nop
	;nop
	;nop

	AREA	|.xdata|, DATA
|$unwind$4$?getChannelInfo@CUSBAsio@@UEAAJPEAUASIOChannelInfo@@@Z| DCD 0x18400003
	DCD	0x400001
	DCD	0xc884c8e5
	DCD	0x281e102
	DCD	0xe3e3e3e4
	;Code Words[3], Epilog Count[1], E[0], X[0], Function Length[3]=12 bytes
	;Epilog Start Index[1], Epilog Start Offset[1]=4 bytes
	;end_c
	;save_regp
	;save_regp
	;set_fp
	;save_fplr_x
	;alloc_s
	;end
	;nop
	;nop
	;nop

	AREA	|.xdata|, DATA
|$unwind$3$?getChannelInfo@CUSBAsio@@UEAAJPEAUASIOChannelInfo@@@Z| DCD 0x10a00004
	DCD	0x281e1e5
	DCD	0xe3e3e3e4
	;Code Words[2], Epilog Start Index[2], E[1], X[0], Function Length[4]=16 bytes
	;end_c
	;set_fp
	;save_fplr_x
	;alloc_s
	;end
	;nop
	;nop
	;nop

	AREA	|.xdata|, DATA
|$unwind$2$?getChannelInfo@CUSBAsio@@UEAAJPEAUASIOChannelInfo@@@Z| DCD 0x18400007
	DCD	0x400005
	DCD	0xc884c8e5
	DCD	0x281e102
	DCD	0xe3e3e3e4
	;Code Words[3], Epilog Count[1], E[0], X[0], Function Length[7]=28 bytes
	;Epilog Start Index[1], Epilog Start Offset[5]=20 bytes
	;end_c
	;save_regp
	;save_regp
	;set_fp
	;save_fplr_x
	;alloc_s
	;end
	;nop
	;nop
	;nop

	AREA	|.xdata|, DATA
|$unwind$1$?getChannelInfo@CUSBAsio@@UEAAJPEAUASIOChannelInfo@@@Z| DCD 0x10a00003
	DCD	0x281e1e5
	DCD	0xe3e3e3e4
	;Code Words[2], Epilog Start Index[2], E[1], X[0], Function Length[3]=12 bytes
	;end_c
	;set_fp
	;save_fplr_x
	;alloc_s
	;end
	;nop
	;nop
	;nop

	AREA	|.xdata|, DATA
|$unwind$0$?getChannelInfo@CUSBAsio@@UEAAJPEAUASIOChannelInfo@@@Z| DCD 0x1840005f
	DCD	0x5d
	DCD	0x2c884c8
	DCD	0x281e1e5
	DCD	0xe3e3e3e4
	;Code Words[3], Epilog Count[1], E[0], X[0], Function Length[95]=380 bytes
	;Epilog Start Index[0], Epilog Start Offset[93]=372 bytes
	;save_regp
	;save_regp
	;end_c
	;set_fp
	;save_fplr_x
	;alloc_s
	;end
	;nop
	;nop
	;nop

	AREA	|.xdata|, DATA
|$unwind$?getChannelInfo@CUSBAsio@@UEAAJPEAUASIOChannelInfo@@@Z| DCD 0x8000004
	DCD	0xe40281e1
	;Code Words[1], Epilog Count[0], E[0], X[0], Function Length[4]=16 bytes
	;set_fp
	;save_fplr_x
	;alloc_s
	;end

	AREA	|.xdata|, DATA
|$unwind$?dtor$3@?0??createBuffers@CUSBAsio@@UEAAJPEAUASIOBufferInfo@@JJPEAUASIOCallbacks@@@Z@4HA| DCD 0x8200005
	DCD	0xe3e3e481
	;Code Words[1], Epilog Start Index[0], E[1], X[0], Function Length[5]=20 bytes
	;save_fplr_x
	;end
	;nop
	;nop

	AREA	|.xdata|, DATA
|$unwind$?dtor$2@?0??createBuffers@CUSBAsio@@UEAAJPEAUASIOBufferInfo@@JJPEAUASIOCallbacks@@@Z@4HA| DCD 0x8200005
	DCD	0xe3e3e481
	;Code Words[1], Epilog Start Index[0], E[1], X[0], Function Length[5]=20 bytes
	;save_fplr_x
	;end
	;nop
	;nop

	AREA	|.xdata|, DATA
|$unwind$?dtor$1@?0??createBuffers@CUSBAsio@@UEAAJPEAUASIOBufferInfo@@JJPEAUASIOCallbacks@@@Z@4HA| DCD 0x8200005
	DCD	0xe3e3e481
	;Code Words[1], Epilog Start Index[0], E[1], X[0], Function Length[5]=20 bytes
	;save_fplr_x
	;end
	;nop
	;nop

	AREA	|.xdata|, DATA
|$unwind$?dtor$0@?0??createBuffers@CUSBAsio@@UEAAJPEAUASIOBufferInfo@@JJPEAUASIOCallbacks@@@Z@4HA| DCD 0x8200005
	DCD	0xe3e3e481
	;Code Words[1], Epilog Start Index[0], E[1], X[0], Function Length[5]=20 bytes
	;save_fplr_x
	;end
	;nop
	;nop

	AREA	|.xdata|, DATA
|$ip2state$?createBuffers@CUSBAsio@@UEAAJPEAUASIOBufferInfo@@JJPEAUASIOCallbacks@@@Z| DCD |?createBuffers@CUSBAsio@@UEAAJPEAUASIOBufferInfo@@JJPEAUASIOCallbacks@@@Z|+208
	DCD	0x0
	DCD	|?createBuffers@CUSBAsio@@UEAAJPEAUASIOBufferInfo@@JJPEAUASIOCallbacks@@@Z|+264
	DCD	0x1
	DCD	|?createBuffers@CUSBAsio@@UEAAJPEAUASIOBufferInfo@@JJPEAUASIOCallbacks@@@Z|+500
	DCD	0x3
	DCD	|?createBuffers@CUSBAsio@@UEAAJPEAUASIOBufferInfo@@JJPEAUASIOCallbacks@@@Z|+720
	DCD	0xa
	DCD	|?createBuffers@CUSBAsio@@UEAAJPEAUASIOBufferInfo@@JJPEAUASIOCallbacks@@@Z|+1184
	DCD	0x0
	DCD	|?createBuffers@CUSBAsio@@UEAAJPEAUASIOBufferInfo@@JJPEAUASIOCallbacks@@@Z|+1348
	DCD	0xa
	DCD	|?createBuffers@CUSBAsio@@UEAAJPEAUASIOBufferInfo@@JJPEAUASIOCallbacks@@@Z|+1432
	DCD	0x3
	DCD	|?createBuffers@CUSBAsio@@UEAAJPEAUASIOBufferInfo@@JJPEAUASIOCallbacks@@@Z|+1456
	DCD	0x1
	DCD	|?createBuffers@CUSBAsio@@UEAAJPEAUASIOBufferInfo@@JJPEAUASIOCallbacks@@@Z|+1480
	DCD	0x0
	DCD	|?createBuffers@CUSBAsio@@UEAAJPEAUASIOBufferInfo@@JJPEAUASIOCallbacks@@@Z|+1516
	DCD	0xa
	DCD	|?createBuffers@CUSBAsio@@UEAAJPEAUASIOBufferInfo@@JJPEAUASIOCallbacks@@@Z|+1636
	DCD	0x3
	DCD	|?createBuffers@CUSBAsio@@UEAAJPEAUASIOBufferInfo@@JJPEAUASIOCallbacks@@@Z|+1660
	DCD	0x1
	DCD	|?createBuffers@CUSBAsio@@UEAAJPEAUASIOBufferInfo@@JJPEAUASIOCallbacks@@@Z|+1684
	DCD	0x0
	DCD	|?createBuffers@CUSBAsio@@UEAAJPEAUASIOBufferInfo@@JJPEAUASIOCallbacks@@@Z|+1708
	DCD	0x10
	DCD	|?createBuffers@CUSBAsio@@UEAAJPEAUASIOBufferInfo@@JJPEAUASIOCallbacks@@@Z|+1740
	DCD	0xffffffff

	AREA	|.xdata|, DATA
|$stateUnwindMap$?createBuffers@CUSBAsio@@UEAAJPEAUASIOBufferInfo@@JJPEAUASIOCallbacks@@@Z| DCD 0xffffffff
	DCD	|?dtor$0@?0??createBuffers@CUSBAsio@@UEAAJPEAUASIOBufferInfo@@JJPEAUASIOCallbacks@@@Z@4HA|
	DCD	0x0
	DCD	|?dtor$1@?0??createBuffers@CUSBAsio@@UEAAJPEAUASIOBufferInfo@@JJPEAUASIOCallbacks@@@Z@4HA|
	DCD	0xffffffff
	DCD	0x0
	DCD	0x1
	DCD	|?dtor$2@?0??createBuffers@CUSBAsio@@UEAAJPEAUASIOBufferInfo@@JJPEAUASIOCallbacks@@@Z@4HA|
	DCD	0xffffffff
	DCD	0x0
	DCD	0xffffffff
	DCD	0x0
	DCD	0xffffffff
	DCD	0x0
	DCD	0xffffffff
	DCD	0x0
	DCD	0xffffffff
	DCD	0x0
	DCD	0xffffffff
	DCD	0x0
	DCD	0x3
	DCD	|?dtor$3@?0??createBuffers@CUSBAsio@@UEAAJPEAUASIOBufferInfo@@JJPEAUASIOCallbacks@@@Z@4HA|
	DCD	0xffffffff
	DCD	0x0
	DCD	0xffffffff
	DCD	0x0
	DCD	0xffffffff
	DCD	0x0
	DCD	0xffffffff
	DCD	0x0
	DCD	0xffffffff
	DCD	0x0
	DCD	0xffffffff
	DCD	|__std_terminate|

	AREA	|.rdata|, DATA, READONLY
|$cppxdata$?createBuffers@CUSBAsio@@UEAAJPEAUASIOBufferInfo@@JJPEAUASIOCallbacks@@@Z| DCD 0x19930522
	DCD	0x11
	DCD	|$stateUnwindMap$?createBuffers@CUSBAsio@@UEAAJPEAUASIOBufferInfo@@JJPEAUASIOCallbacks@@@Z|
	DCD	0x0
	DCD	0x0
	DCD	0xf
	DCD	|$ip2state$?createBuffers@CUSBAsio@@UEAAJPEAUASIOBufferInfo@@JJPEAUASIOCallbacks@@@Z|
	DCD	0xfffffeb8
	DCD	0x0
	DCD	0x1

	AREA	|.xdata|, DATA
|$unwind$?createBuffers@CUSBAsio@@UEAAJPEAUASIOBufferInfo@@JJPEAUASIOCallbacks@@@Z| DCD 0x385001cd
	DCD	0x38001b8
	DCD	0xad2e101
	DCD	0x6c988c9
	DCD	0x2c884c8
	DCD	0x110e48b
	DCD	0x88c90ad2
	DCD	0x84c806c9
	DCD	0xe48b02c8
	DCD	|__GSHandlerCheck_EH|
	DCD	|$cppxdata$?createBuffers@CUSBAsio@@UEAAJPEAUASIOBufferInfo@@JJPEAUASIOCallbacks@@@Z|
	DCD	0xffffff9a
	;Code Words[7], Epilog Count[1], E[0], X[1], Function Length[461]=1844 bytes
	;Epilog Start Index[14], Epilog Start Offset[440]=1760 bytes
	;alloc_s
	;set_fp
	;save_reg
	;save_regp
	;save_regp
	;save_regp
	;save_regp
	;save_fplr_x
	;end
	;alloc_s
	;alloc_s
	;save_reg
	;save_regp
	;save_regp
	;save_regp
	;save_regp
	;save_fplr_x
	;end

	AREA	|.xdata|, DATA
|$unwind$?dtor$1@?0??disposeBuffers@CUSBAsio@@UEAAJXZ@4HA| DCD 0x8200005
	DCD	0xe3e3e481
	;Code Words[1], Epilog Start Index[0], E[1], X[0], Function Length[5]=20 bytes
	;save_fplr_x
	;end
	;nop
	;nop

	AREA	|.xdata|, DATA
|$unwind$?dtor$0@?0??disposeBuffers@CUSBAsio@@UEAAJXZ@4HA| DCD 0x8200005
	DCD	0xe3e3e481
	;Code Words[1], Epilog Start Index[0], E[1], X[0], Function Length[5]=20 bytes
	;save_fplr_x
	;end
	;nop
	;nop

	AREA	|.xdata|, DATA
|$ip2state$?disposeBuffers@CUSBAsio@@UEAAJXZ| DCD |?disposeBuffers@CUSBAsio@@UEAAJXZ|+72
	DCD	0xffffffff
	DCD	|?disposeBuffers@CUSBAsio@@UEAAJXZ|+128
	DCD	0x0
	DCD	|?disposeBuffers@CUSBAsio@@UEAAJXZ|+156
	DCD	0x1
	DCD	|?disposeBuffers@CUSBAsio@@UEAAJXZ|+340
	DCD	0x0
	DCD	|?disposeBuffers@CUSBAsio@@UEAAJXZ|+364
	DCD	0xffffffff

	AREA	|.xdata|, DATA
|$stateUnwindMap$?disposeBuffers@CUSBAsio@@UEAAJXZ| DCD 0xffffffff
	DCD	|?dtor$0@?0??disposeBuffers@CUSBAsio@@UEAAJXZ@4HA|
	DCD	0x0
	DCD	|?dtor$1@?0??disposeBuffers@CUSBAsio@@UEAAJXZ@4HA|

	AREA	|.rdata|, DATA, READONLY
|$cppxdata$?disposeBuffers@CUSBAsio@@UEAAJXZ| DCD 0x19930522
	DCD	0x2
	DCD	|$stateUnwindMap$?disposeBuffers@CUSBAsio@@UEAAJXZ|
	DCD	0x0
	DCD	0x0
	DCD	0x5
	DCD	|$ip2state$?disposeBuffers@CUSBAsio@@UEAAJXZ|
	DCD	0xffffffc0
	DCD	0x0
	DCD	0x1

	AREA	|.xdata|, DATA
|$unwind$?disposeBuffers@CUSBAsio@@UEAAJXZ| DCD 0x10d0006a
	DCD	0x40001c
	DCD	0x400061
	DCD	0x400066
	DCD	0x82c885e1
	DCD	0xe3e3e424
	DCD	|__CxxFrameHandler3|
	DCD	|$cppxdata$?disposeBuffers@CUSBAsio@@UEAAJXZ|
	;Code Words[2], Epilog Count[3], E[0], X[1], Function Length[106]=424 bytes
	;Epilog Start Index[1], Epilog Start Offset[28]=112 bytes
	;Epilog Start Index[1], Epilog Start Offset[97]=388 bytes
	;Epilog Start Index[1], Epilog Start Offset[102]=408 bytes
	;set_fp
	;save_fplr_x
	;save_regp
	;save_r19r20_x
	;end
	;nop
	;nop

	AREA	|.xdata|, DATA
|$unwind$?controlPanel@CUSBAsio@@UEAAJXZ| DCD 0x21b00064
	DCD	0x2d0e101
	DCD	0x2bc0e483
	DCD	0x8302d001
	DCD	0xe3e3e3e4
	DCD	|__GSHandlerCheck|
	DCD	0xffffffd8
	;Code Words[4], Epilog Start Index[6], E[1], X[1], Function Length[100]=400 bytes
	;alloc_s
	;set_fp
	;save_reg
	;save_fplr_x
	;end
	;alloc_m
	;alloc_s
	;save_reg
	;save_fplr_x
	;end
	;nop
	;nop
	;nop

	AREA	|.xdata|, DATA
|$unwind$?future@CUSBAsio@@UEAAJJPEAX@Z| DCD 0x11c0007d
	DCD	0x400029
	DCD	0x400043
	DCD	0x400050
	DCD	0x40005a
	DCD	0x400060
	DCD	0x40006a
	DCD	0x400074
	DCD	0x82d081e1
	DCD	0xe3e3e424
	;Code Words[2], Epilog Count[7], E[0], X[0], Function Length[125]=500 bytes
	;Epilog Start Index[1], Epilog Start Offset[41]=164 bytes
	;Epilog Start Index[1], Epilog Start Offset[67]=268 bytes
	;Epilog Start Index[1], Epilog Start Offset[80]=320 bytes
	;Epilog Start Index[1], Epilog Start Offset[90]=360 bytes
	;Epilog Start Index[1], Epilog Start Offset[96]=384 bytes
	;Epilog Start Index[1], Epilog Start Offset[106]=424 bytes
	;Epilog Start Index[1], Epilog Start Offset[116]=464 bytes
	;set_fp
	;save_fplr_x
	;save_reg
	;save_r19r20_x
	;end
	;nop
	;nop

	AREA	|.xdata|, DATA
|$unwind$0$?BufferSwitch@CUSBAsio@@QEAAXXZ| DCD 0x10400037
	DCD	0x400035
	DCD	0x1d481e1
	DCD	0xe3e3e4e5
	;Code Words[2], Epilog Count[1], E[0], X[0], Function Length[55]=220 bytes
	;Epilog Start Index[1], Epilog Start Offset[53]=212 bytes
	;set_fp
	;save_fplr_x
	;save_reg_x
	;end_c
	;end
	;nop
	;nop

	AREA	|.xdata|, DATA
|$unwind$1$?outputReady@CUSBAsio@@UEAAJXZ| DCD 0x10a00004
	DCD	0x281e1e5
	DCD	0xe3e3e3e4
	;Code Words[2], Epilog Start Index[2], E[1], X[0], Function Length[4]=16 bytes
	;end_c
	;set_fp
	;save_fplr_x
	;alloc_s
	;end
	;nop
	;nop
	;nop

	AREA	|.xdata|, DATA
|$unwind$0$?outputReady@CUSBAsio@@UEAAJXZ| DCD 0x18400021
	DCD	0x1f
	DCD	0x2c884d0
	DCD	0x281e1e5
	DCD	0xe3e3e3e4
	;Code Words[3], Epilog Count[1], E[0], X[0], Function Length[33]=132 bytes
	;Epilog Start Index[0], Epilog Start Offset[31]=124 bytes
	;save_reg
	;save_regp
	;end_c
	;set_fp
	;save_fplr_x
	;alloc_s
	;end
	;nop
	;nop
	;nop

	AREA	|.xdata|, DATA
|$unwind$?outputReady@CUSBAsio@@UEAAJXZ| DCD 0x8000005
	DCD	0xe40281e1
	;Code Words[1], Epilog Count[0], E[0], X[0], Function Length[5]=20 bytes
	;set_fp
	;save_fplr_x
	;alloc_s
	;end

	AREA	|.xdata|, DATA
|$unwind$1$?ApplySettings@CUSBAsio@@AEAA_NXZ| DCD 0x32f00025
	DCD	0xd1e101e5
	DCD	0xc884c806
	DCD	0x8e48702
	DCD	0xc806d101
	DCD	0x8702c884
	DCD	0xe3e3e3e4
	DCD	|__GSHandlerCheck|
	DCD	0xffffffb8
	;Code Words[6], Epilog Start Index[11], E[1], X[1], Function Length[37]=148 bytes
	;end_c
	;alloc_s
	;set_fp
	;save_reg
	;save_regp
	;save_regp
	;save_fplr_x
	;end
	;alloc_s
	;alloc_s
	;save_reg
	;save_regp
	;save_regp
	;save_fplr_x
	;end
	;nop
	;nop
	;nop

	AREA	|.xdata|, DATA
|$unwind$0$?ApplySettings@CUSBAsio@@AEAA_NXZ| DCD 0x205000dd
	DCD	0xdc
	DCD	0x1e559d1
	DCD	0xc806d1e1
	DCD	0x8702c884
	DCD	0xe3e3e3e4
	DCD	|__GSHandlerCheck|
	DCD	0xffffffb8
	;Code Words[4], Epilog Count[1], E[0], X[1], Function Length[221]=884 bytes
	;Epilog Start Index[0], Epilog Start Offset[220]=880 bytes
	;save_reg
	;end_c
	;alloc_s
	;set_fp
	;save_reg
	;save_regp
	;save_regp
	;save_fplr_x
	;end
	;nop
	;nop
	;nop

	AREA	|.xdata|, DATA
|$unwind$?ApplySettings@CUSBAsio@@AEAA_NXZ| DCD 0x1810002d
	DCD	0x6d1e101
	DCD	0x2c884c8
	DCD	0xe3e3e487
	DCD	|__GSHandlerCheck|
	DCD	0xffffffb8
	;Code Words[3], Epilog Count[0], E[0], X[1], Function Length[45]=180 bytes
	;alloc_s
	;set_fp
	;save_reg
	;save_regp
	;save_regp
	;save_fplr_x
	;end
	;nop
	;nop

	AREA	|.xdata|, DATA
|$unwind$?ExecuteControlPanel@CUSBAsio@@AEAA_NXZ| DCD 0x21b00064
	DCD	0x2d0e101
	DCD	0x2bc0e483
	DCD	0x8302d001
	DCD	0xe3e3e3e4
	DCD	|__GSHandlerCheck|
	DCD	0xffffffd8
	;Code Words[4], Epilog Start Index[6], E[1], X[1], Function Length[100]=400 bytes
	;alloc_s
	;set_fp
	;save_reg
	;save_fplr_x
	;end
	;alloc_m
	;alloc_s
	;save_reg
	;save_fplr_x
	;end
	;nop
	;nop
	;nop

	AREA	|.xdata|, DATA
|$unwind$?GetDesiredPath@CUSBAsio@@AEAA_NXZ| DCD 0x18900048
	DCD	0x1800039
	DCD	0x1800043
	DCD	0x2c8e101
	DCD	0x101e483
	DCD	0xe48302c8
	DCD	|__GSHandlerCheck|
	DCD	0xffffffd8
	;Code Words[3], Epilog Count[2], E[0], X[1], Function Length[72]=288 bytes
	;Epilog Start Index[6], Epilog Start Offset[57]=228 bytes
	;Epilog Start Index[6], Epilog Start Offset[67]=268 bytes
	;alloc_s
	;set_fp
	;save_regp
	;save_fplr_x
	;end
	;alloc_s
	;alloc_s
	;save_regp
	;save_fplr_x
	;end

	AREA	|.xdata|, DATA
|$unwind$?dtor$0@?0??ObtainDeviceParameter@CUSBAsio@@AEAA_NXZ@4HA| DCD 0x8200005
	DCD	0xe3e3e481
	;Code Words[1], Epilog Start Index[0], E[1], X[0], Function Length[5]=20 bytes
	;save_fplr_x
	;end
	;nop
	;nop

	AREA	|.xdata|, DATA
|$ip2state$?ObtainDeviceParameter@CUSBAsio@@AEAA_NXZ| DCD |?ObtainDeviceParameter@CUSBAsio@@AEAA_NXZ|+72
	DCD	0xffffffff
	DCD	|?ObtainDeviceParameter@CUSBAsio@@AEAA_NXZ|+324
	DCD	0x0
	DCD	|?ObtainDeviceParameter@CUSBAsio@@AEAA_NXZ|+1120
	DCD	0xffffffff
	DCD	|?ObtainDeviceParameter@CUSBAsio@@AEAA_NXZ|+1180
	DCD	0x0

	AREA	|.xdata|, DATA
|$stateUnwindMap$?ObtainDeviceParameter@CUSBAsio@@AEAA_NXZ| DCD 0xffffffff
	DCD	|?dtor$0@?0??ObtainDeviceParameter@CUSBAsio@@AEAA_NXZ@4HA|

	AREA	|.rdata|, DATA, READONLY
|$cppxdata$?ObtainDeviceParameter@CUSBAsio@@AEAA_NXZ| DCD 0x19930522
	DCD	0x1
	DCD	|$stateUnwindMap$?ObtainDeviceParameter@CUSBAsio@@AEAA_NXZ|
	DCD	0x0
	DCD	0x0
	DCD	0x4
	DCD	|$ip2state$?ObtainDeviceParameter@CUSBAsio@@AEAA_NXZ|
	DCD	0xfffffec8
	DCD	0x0
	DCD	0x1

	AREA	|.xdata|, DATA
|$unwind$?ObtainDeviceParameter@CUSBAsio@@AEAA_NXZ| DCD 0x38500131
	DCD	0x380011e
	DCD	0xad2e101
	DCD	0x6c988c9
	DCD	0x2c884c8
	DCD	0x10de48b
	DCD	0x88c90ad2
	DCD	0x84c806c9
	DCD	0xe48b02c8
	DCD	|__GSHandlerCheck_EH|
	DCD	|$cppxdata$?ObtainDeviceParameter@CUSBAsio@@AEAA_NXZ|
	DCD	0xffffff9a
	;Code Words[7], Epilog Count[1], E[0], X[1], Function Length[305]=1220 bytes
	;Epilog Start Index[14], Epilog Start Offset[286]=1144 bytes
	;alloc_s
	;set_fp
	;save_reg
	;save_regp
	;save_regp
	;save_regp
	;save_regp
	;save_fplr_x
	;end
	;alloc_s
	;alloc_s
	;save_reg
	;save_regp
	;save_regp
	;save_regp
	;save_regp
	;save_fplr_x
	;end

	AREA	|.xdata|, DATA
|$unwind$?dtor$0@?0??RequestClockInfoChange@CUSBAsio@@AEAA_NXZ@4HA| DCD 0x8200005
	DCD	0xe3e3e481
	;Code Words[1], Epilog Start Index[0], E[1], X[0], Function Length[5]=20 bytes
	;save_fplr_x
	;end
	;nop
	;nop

	AREA	|.xdata|, DATA
|$ip2state$?RequestClockInfoChange@CUSBAsio@@AEAA_NXZ| DCD |?RequestClockInfoChange@CUSBAsio@@AEAA_NXZ|+48
	DCD	0xffffffff
	DCD	|?RequestClockInfoChange@CUSBAsio@@AEAA_NXZ|+84
	DCD	0x0
	DCD	|?RequestClockInfoChange@CUSBAsio@@AEAA_NXZ|+220
	DCD	0xffffffff
	DCD	|?RequestClockInfoChange@CUSBAsio@@AEAA_NXZ|+264
	DCD	0x0

	AREA	|.xdata|, DATA
|$stateUnwindMap$?RequestClockInfoChange@CUSBAsio@@AEAA_NXZ| DCD 0xffffffff
	DCD	|?dtor$0@?0??RequestClockInfoChange@CUSBAsio@@AEAA_NXZ@4HA|

	AREA	|.rdata|, DATA, READONLY
|$cppxdata$?RequestClockInfoChange@CUSBAsio@@AEAA_NXZ| DCD 0x19930522
	DCD	0x1
	DCD	|$stateUnwindMap$?RequestClockInfoChange@CUSBAsio@@AEAA_NXZ|
	DCD	0x0
	DCD	0x0
	DCD	0x4
	DCD	|$ip2state$?RequestClockInfoChange@CUSBAsio@@AEAA_NXZ|
	DCD	0xffffffc0
	DCD	0x0
	DCD	0x1

	AREA	|.xdata|, DATA
|$unwind$?RequestClockInfoChange@CUSBAsio@@AEAA_NXZ| DCD 0x10500048
	DCD	0x40003d
	DCD	0x4d183e1
	DCD	0xe42682c8
	DCD	|__CxxFrameHandler3|
	DCD	|$cppxdata$?RequestClockInfoChange@CUSBAsio@@AEAA_NXZ|
	;Code Words[2], Epilog Count[1], E[0], X[1], Function Length[72]=288 bytes
	;Epilog Start Index[1], Epilog Start Offset[61]=244 bytes
	;set_fp
	;save_fplr_x
	;save_reg
	;save_regp
	;save_r19r20_x
	;end

	AREA	|.xdata|, DATA
|$unwind$?dtor$1@?0??AsioResetThread@CUSBAsio@@CAIPEAX@Z@4HA| DCD 0x8200005
	DCD	0xe3e3e481
	;Code Words[1], Epilog Start Index[0], E[1], X[0], Function Length[5]=20 bytes
	;save_fplr_x
	;end
	;nop
	;nop

	AREA	|.xdata|, DATA
|$unwind$?dtor$0@?0??AsioResetThread@CUSBAsio@@CAIPEAX@Z@4HA| DCD 0x8200005
	DCD	0xe3e3e481
	;Code Words[1], Epilog Start Index[0], E[1], X[0], Function Length[5]=20 bytes
	;save_fplr_x
	;end
	;nop
	;nop

	AREA	|.xdata|, DATA
|$ip2state$?AsioResetThread@CUSBAsio@@CAIPEAX@Z| DCD |?AsioResetThread@CUSBAsio@@CAIPEAX@Z|+100
	DCD	0xffffffff
	DCD	|?AsioResetThread@CUSBAsio@@CAIPEAX@Z|+140
	DCD	0x0
	DCD	|?AsioResetThread@CUSBAsio@@CAIPEAX@Z|+164
	DCD	0xffffffff
	DCD	|?AsioResetThread@CUSBAsio@@CAIPEAX@Z|+296
	DCD	0x1
	DCD	|?AsioResetThread@CUSBAsio@@CAIPEAX@Z|+332
	DCD	0xffffffff

	AREA	|.xdata|, DATA
|$stateUnwindMap$?AsioResetThread@CUSBAsio@@CAIPEAX@Z| DCD 0xffffffff
	DCD	|?dtor$0@?0??AsioResetThread@CUSBAsio@@CAIPEAX@Z@4HA|
	DCD	0xffffffff
	DCD	|?dtor$1@?0??AsioResetThread@CUSBAsio@@CAIPEAX@Z@4HA|

	AREA	|.rdata|, DATA, READONLY
|$cppxdata$?AsioResetThread@CUSBAsio@@CAIPEAX@Z| DCD 0x19930522
	DCD	0x2
	DCD	|$stateUnwindMap$?AsioResetThread@CUSBAsio@@CAIPEAX@Z|
	DCD	0x0
	DCD	0x0
	DCD	0x5
	DCD	|$ip2state$?AsioResetThread@CUSBAsio@@CAIPEAX@Z|
	DCD	0xffffff98
	DCD	0x0
	DCD	0x1

	AREA	|.xdata|, DATA
|$unwind$?AsioResetThread@CUSBAsio@@CAIPEAX@Z| DCD 0x30500077
	DCD	0x3000039
	DCD	0x7dce101
	DCD	0x84c806d1
	DCD	0xe48702c8
	DCD	0x7dc0102
	DCD	0x84c806d1
	DCD	0xe48702c8
	DCD	|__GSHandlerCheck_EH|
	DCD	|$cppxdata$?AsioResetThread@CUSBAsio@@CAIPEAX@Z|
	DCD	0xffffffba
	;Code Words[6], Epilog Count[1], E[0], X[1], Function Length[119]=476 bytes
	;Epilog Start Index[12], Epilog Start Offset[57]=228 bytes
	;alloc_s
	;set_fp
	;save_freg
	;save_reg
	;save_regp
	;save_regp
	;save_fplr_x
	;end
	;alloc_s
	;alloc_s
	;save_freg
	;save_reg
	;save_regp
	;save_regp
	;save_fplr_x
	;end

	AREA	|.xdata|, DATA
|$unwind$?ThreadStop@CUSBAsio@@AEAAXXZ| DCD 0x10800024
	DCD	0x400014
	DCD	0x400021
	DCD	0x1d481e1
	DCD	0xe3e3e3e4
	;Code Words[2], Epilog Count[2], E[0], X[0], Function Length[36]=144 bytes
	;Epilog Start Index[1], Epilog Start Offset[20]=80 bytes
	;Epilog Start Index[1], Epilog Start Offset[33]=132 bytes
	;set_fp
	;save_fplr_x
	;save_reg_x
	;end
	;nop
	;nop
	;nop

	AREA	|.xdata|, DATA
|$unwind$?WorkerThread@CUSBAsio@@CAIPEAX@Z| DCD 0x3850014e
	DCD	0x3800142
	DCD	0xacae101
	DCD	0x6c988c9
	DCD	0x2c884c8
	DCD	0x112e48b
	DCD	0x88c90aca
	DCD	0x84c806c9
	DCD	0xe48b02c8
	DCD	|__GSHandlerCheck|
	DCD	0xffffff98
	;Code Words[7], Epilog Count[1], E[0], X[1], Function Length[334]=1336 bytes
	;Epilog Start Index[14], Epilog Start Offset[322]=1288 bytes
	;alloc_s
	;set_fp
	;save_regp
	;save_regp
	;save_regp
	;save_regp
	;save_regp
	;save_fplr_x
	;end
	;alloc_s
	;alloc_s
	;save_regp
	;save_regp
	;save_regp
	;save_regp
	;save_regp
	;save_fplr_x
	;end

	AREA	|.xdata|, DATA
|$unwind$??$WriteResultString@PEB_W@details@wil@@YAPEAEPEAE0PEB_WPEAPEB_W@Z| DCD 0x8800026
	DCD	0x40001d
	DCD	0x400023
	DCD	0xe42283e1
	;Code Words[1], Epilog Count[2], E[0], X[0], Function Length[38]=152 bytes
	;Epilog Start Index[1], Epilog Start Offset[29]=116 bytes
	;Epilog Start Index[1], Epilog Start Offset[35]=140 bytes
	;set_fp
	;save_fplr_x
	;save_r19r20_x
	;end

	AREA	|.xdata|, DATA
|$unwind$??$WriteResultString@PEBD@details@wil@@YAPEAEPEAE0PEBDPEAPEBD@Z| DCD 0x8800024
	DCD	0x40001b
	DCD	0x400021
	DCD	0xe42283e1
	;Code Words[1], Epilog Count[2], E[0], X[0], Function Length[36]=144 bytes
	;Epilog Start Index[1], Epilog Start Offset[27]=108 bytes
	;Epilog Start Index[1], Epilog Start Offset[33]=132 bytes
	;set_fp
	;save_fplr_x
	;save_r19r20_x
	;end

	AREA	|.xdata|, DATA
|$ip2state$??1?$lambda_call@V<lambda_1>@?1??createBuffers@CUSBAsio@@UEAAJPEAUASIOBufferInfo@@JJPEAUASIOCallbacks@@@Z@@details@wil@@QEAA@XZ| DCD |??1?$lambda_call@V<lambda_1>@?1??createBuffers@CUSBAsio@@UEAAJPEAUASIOBufferInfo@@JJPEAUASIOCallbacks@@@Z@@details@wil@@QEAA@XZ|+64
	DCD	0x0

	AREA	|.xdata|, DATA
|$stateUnwindMap$??1?$lambda_call@V<lambda_1>@?1??createBuffers@CUSBAsio@@UEAAJPEAUASIOBufferInfo@@JJPEAUASIOCallbacks@@@Z@@details@wil@@QEAA@XZ| DCD 0xffffffff
	DCD	|__std_terminate|

	AREA	|.rdata|, DATA, READONLY
|$cppxdata$??1?$lambda_call@V<lambda_1>@?1??createBuffers@CUSBAsio@@UEAAJPEAUASIOBufferInfo@@JJPEAUASIOCallbacks@@@Z@@details@wil@@QEAA@XZ| DCD 0x19930522
	DCD	0x1
	DCD	|$stateUnwindMap$??1?$lambda_call@V<lambda_1>@?1??createBuffers@CUSBAsio@@UEAAJPEAUASIOBufferInfo@@JJPEAUASIOCallbacks@@@Z@@details@wil@@QEAA@XZ|
	DCD	0x0
	DCD	0x0
	DCD	0x1
	DCD	|$ip2state$??1?$lambda_call@V<lambda_1>@?1??createBuffers@CUSBAsio@@UEAAJPEAUASIOBufferInfo@@JJPEAUASIOCallbacks@@@Z@@details@wil@@QEAA@XZ|
	DCD	0xfffffff0
	DCD	0x0
	DCD	0x5

	AREA	|.xdata|, DATA
|$unwind$??1?$lambda_call@V<lambda_1>@?1??createBuffers@CUSBAsio@@UEAAJPEAUASIOBufferInfo@@JJPEAUASIOCallbacks@@@Z@@details@wil@@QEAA@XZ| DCD 0x8700014
	DCD	0xe3e483e1
	DCD	|__CxxFrameHandler3|
	DCD	|$cppxdata$??1?$lambda_call@V<lambda_1>@?1??createBuffers@CUSBAsio@@UEAAJPEAUASIOBufferInfo@@JJPEAUASIOCallbacks@@@Z@@details@wil@@QEAA@XZ|
	;Code Words[1], Epilog Start Index[1], E[1], X[1], Function Length[20]=80 bytes
	;set_fp
	;save_fplr_x
	;end
	;nop

	AREA	|.xdata|, DATA
|$ip2state$?reset@?$lambda_call@V<lambda_1>@?1??createBuffers@CUSBAsio@@UEAAJPEAUASIOBufferInfo@@JJPEAUASIOCallbacks@@@Z@@details@wil@@QEAAXXZ| DCD |?reset@?$lambda_call@V<lambda_1>@?1??createBuffers@CUSBAsio@@UEAAJPEAUASIOBufferInfo@@JJPEAUASIOCallbacks@@@Z@@details@wil@@QEAAXXZ|+64
	DCD	0xffffffff

	AREA	|.rdata|, DATA, READONLY
|$cppxdata$?reset@?$lambda_call@V<lambda_1>@?1??createBuffers@CUSBAsio@@UEAAJPEAUASIOBufferInfo@@JJPEAUASIOCallbacks@@@Z@@details@wil@@QEAAXXZ| DCD 0x19930522
	DCD	0x0
	DCD	0x0
	DCD	0x0
	DCD	0x0
	DCD	0x1
	DCD	|$ip2state$?reset@?$lambda_call@V<lambda_1>@?1??createBuffers@CUSBAsio@@UEAAJPEAUASIOBufferInfo@@JJPEAUASIOCallbacks@@@Z@@details@wil@@QEAAXXZ|
	DCD	0xfffffff0
	DCD	0x0
	DCD	0x5

	AREA	|.xdata|, DATA
|$unwind$?reset@?$lambda_call@V<lambda_1>@?1??createBuffers@CUSBAsio@@UEAAJPEAUASIOBufferInfo@@JJPEAUASIOCallbacks@@@Z@@details@wil@@QEAAXXZ| DCD 0x8700013
	DCD	0xe3e483e1
	DCD	|__CxxFrameHandler3|
	DCD	|$cppxdata$?reset@?$lambda_call@V<lambda_1>@?1??createBuffers@CUSBAsio@@UEAAJPEAUASIOBufferInfo@@JJPEAUASIOCallbacks@@@Z@@details@wil@@QEAAXXZ|
	;Code Words[1], Epilog Start Index[1], E[1], X[1], Function Length[19]=76 bytes
	;set_fp
	;save_fplr_x
	;end
	;nop
; Function compile flags: /Ogtp
; File G:\Github\microsoft\low-latency-audio\src\uac2-asio\USBAsio.cpp

	AREA	|.text$mn|, CODE, ARM64

|?UnregisterAsioDriver@@YAJXZ| PROC			; UnregisterAsioDriver

; 140  : {

|$LN10|
	stp         fp,lr,[sp,#-0x20]!
	mov         fp,sp
	bl          __security_push_cookie
	sub         sp,sp,#0x80

; 141  :     HRESULT result = UnregisterAsioDriver(IID_ASIO_DRIVER, ASIODRV_NAME, DRIVER_NAME);

	adrp        x8,|?IID_ASIO_DRIVER@@3U_GUID@@A|
	add         x8,x8,|?IID_ASIO_DRIVER@@3U_GUID@@A|
	ldp         x0,x1,[x8]
	bl          |?UnregisterAsioDriver@@YAJU_GUID@@PEBD1@Z|

; 142  : 
; 143  :     if (!SUCCEEDED(result))

	tbz         w0,#0x1F,|$LN2@Unregister|
	str         x19,[sp,#0xA0]
	mov         w19,w0

; 144  :     {
; 145  :         TCHAR message[ERROR_MESSAGE_LENGTH] = {0};

	movi        v16.16b,#0
	stp         q16,q16,[sp]
	stp         q16,q16,[sp,#0x20]
	stp         q16,q16,[sp,#0x40]
	stp         q16,q16,[sp,#0x60]

; 146  :         _stprintf_s(message, ERROR_MESSAGE_LENGTH, TEXT("Unregister Server failed ! (%d)"), result);

	mov         w3,w19
	adrp        x8,|??_C@_0CA@OPFFDHMA@Unregister?5Server?5failed?5?$CB?5?$CI?$CFd?$CJ@|
	add         x2,x8,|??_C@_0CA@OPFFDHMA@Unregister?5Server?5failed?5?$CB?5?$CI?$CFd?$CJ@|
	mov         x1,#0x80
	mov         x0,sp
	bl          sprintf_s

; 147  :         MessageBox(nullptr, message, DRIVER_NAME, MB_OK);

	mov         w3,#0
	adrp        x8,|??_C@_0BC@LDCENIFA@USB?5ASIO?5?$CIARM64X?$CJ@|
	add         x2,x8,|??_C@_0BC@LDCENIFA@USB?5ASIO?5?$CIARM64X?$CJ@|
	mov         x1,sp
	mov         x0,#0
	adrp        x8,__imp_MessageBoxA
	ldr         x8,[x8,__imp_MessageBoxA]
	blr         x8
	mov         w0,w19
	ldr         x19,[sp,#0xA0]
|$LN2@Unregister|
	add         sp,sp,#0x80
	bl          __security_pop_cookie
	ldp         fp,lr,[sp],#0x20
	ret

	ENDP  ; |?UnregisterAsioDriver@@YAJXZ|, UnregisterAsioDriver

; Function compile flags: /Ogtp
; File G:\Github\microsoft\low-latency-audio\src\uac2-asio\USBAsio.cpp

	AREA	|.text$mn|, CODE, ARM64

|?RegisterAsioDriver@@YAJXZ| PROC			; RegisterAsioDriver

; 126  : {

|$LN10|
	stp         fp,lr,[sp,#-0x20]!
	mov         fp,sp
	bl          __security_push_cookie
	sub         sp,sp,#0x80

; 127  :     HRESULT result = RegisterAsioDriver(IID_ASIO_DRIVER, ASIODRV_NAME, DRIVER_NAME, DRIVER_NAME, TEXT("Apartment"));

	adrp        x8,|?IID_ASIO_DRIVER@@3U_GUID@@A|
	add         x8,x8,|?IID_ASIO_DRIVER@@3U_GUID@@A|
	ldp         x0,x1,[x8]
	bl          |?RegisterAsioDriver@@YAJU_GUID@@PEBD111@Z|

; 128  : 
; 129  :     if (!SUCCEEDED(result))

	tbz         w0,#0x1F,|$LN2@RegisterAs|
	str         x19,[sp,#0xA0]
	mov         w19,w0

; 130  :     {
; 131  :         TCHAR message[ERROR_MESSAGE_LENGTH] = {0};

	movi        v16.16b,#0
	stp         q16,q16,[sp]
	stp         q16,q16,[sp,#0x20]
	stp         q16,q16,[sp,#0x40]
	stp         q16,q16,[sp,#0x60]

; 132  :         _stprintf_s(message, ERROR_MESSAGE_LENGTH, TEXT("Register Server failed ! (%d)"), result);

	mov         w3,w19
	adrp        x8,|??_C@_0BO@KGBEPONM@Register?5Server?5failed?5?$CB?5?$CI?$CFd?$CJ@|
	add         x2,x8,|??_C@_0BO@KGBEPONM@Register?5Server?5failed?5?$CB?5?$CI?$CFd?$CJ@|
	mov         x1,#0x80
	mov         x0,sp
	bl          sprintf_s

; 133  :         MessageBox(nullptr, message, DRIVER_NAME, MB_OK);

	mov         w3,#0
	adrp        x8,|??_C@_0BC@LDCENIFA@USB?5ASIO?5?$CIARM64X?$CJ@|
	add         x2,x8,|??_C@_0BC@LDCENIFA@USB?5ASIO?5?$CIARM64X?$CJ@|
	mov         x1,sp
	mov         x0,#0
	adrp        x8,__imp_MessageBoxA
	ldr         x8,[x8,__imp_MessageBoxA]
	blr         x8
	mov         w0,w19
	ldr         x19,[sp,#0xA0]
|$LN2@RegisterAs|
	add         sp,sp,#0x80
	bl          __security_pop_cookie
	ldp         fp,lr,[sp],#0x20
	ret

	ENDP  ; |?RegisterAsioDriver@@YAJXZ|, RegisterAsioDriver

; Function compile flags: /Ogtp
; File C:\Program Files (x86)\Windows Kits\10\Include\10.0.26100.0\ucrt\corecrt_memcpy_s.h

	AREA	|.text$mn|, CODE, ARM64

|memcpy_s| PROC

; 46   :         if (_SourceSize == 0)

	cbnz        x3,|$LN11@memcpy_s|

; 47   :         {
; 48   :             return 0;

	mov         w0,#0
	ret
|$LN11@memcpy_s|
	stp         x19,x20,[sp,#-0x20]!
	str         x21,[sp,#0x10]
	stp         fp,lr,[sp,#-0x10]!
	mov         fp,sp

; 46   :         if (_SourceSize == 0)

	mov         x21,x1
	mov         x19,x2
	mov         x20,x3

; 49   :         }
; 50   : 
; 51   :         _CRT_MEMCPY_S_VALIDATE_RETURN_ERRCODE(_Destination != NULL, EINVAL);

	cbnz        x0,|$LN3@memcpy_s|
|$LN13@memcpy_s|

; 58   : 
; 59   :             // Unreachable, but required to suppress /analyze warnings:
; 60   :             return EINVAL;

	bl          _errno
	mov         w8,#0x16
	str         w8,[x0]
	bl          _invalid_parameter_noinfo
|$LN7@memcpy_s|
	mov         w0,#0x16
	ldp         fp,lr,[sp],#0x10
	ldr         x21,[sp,#0x10]
	ldp         x19,x20,[sp],#0x20
	ret
|$LN3@memcpy_s|

; 52   :         if (_Source == NULL || _DestinationSize < _SourceSize)

	cmp         x19,#0
	ccmpne      x21,x20,#0
	blo         |$LN5@memcpy_s|

; 61   :         }
; 62   :         memcpy(_Destination, _Source, _SourceSize);

	mov         x2,x20
	mov         x1,x19
	bl          memcpy

; 63   :         return 0;

	mov         w0,#0
	ldp         fp,lr,[sp],#0x10
	ldr         x21,[sp,#0x10]
	ldp         x19,x20,[sp],#0x20
	ret
|$LN5@memcpy_s|

; 53   :         {
; 54   :             memset(_Destination, 0, _DestinationSize);

	mov         x2,x21
	mov         w1,#0
	bl          memset

; 55   : 
; 56   :             _CRT_MEMCPY_S_VALIDATE_RETURN_ERRCODE(_Source != NULL,                 EINVAL);

	cbz         x19,|$LN13@memcpy_s|

; 57   :             _CRT_MEMCPY_S_VALIDATE_RETURN_ERRCODE(_DestinationSize >= _SourceSize, ERANGE);

	cmp         x21,x20
	bhs         |$LN7@memcpy_s|
	bl          _errno
	mov         w8,#0x22
	str         w8,[x0]
	bl          _invalid_parameter_noinfo
	mov         w0,#0x22
	ldp         fp,lr,[sp],#0x10
	ldr         x21,[sp,#0x10]
	ldp         x19,x20,[sp],#0x20
	ret

	ENDP  ; |memcpy_s|

; Function compile flags: /Ogtp
; File C:\Program Files (x86)\Windows Kits\10\Include\10.0.26100.0\ucrt\corecrt_wstdio.h

	AREA	|.text$mn|, CODE, ARM64

|_vsnwprintf_l| PROC

; 1061 :     {

|$LN6|
	stp         x19,x20,[sp,#-0x20]!
	stp         x21,x22,[sp,#0x10]
	stp         fp,lr,[sp,#-0x10]!
	mov         fp,sp
	mov         x22,x0
	mov         x21,x1
	mov         x20,x2
	mov         x19,x4

; 1062 :         int const _Result = __stdio_common_vswprintf(

	bl          __local_stdio_printf_options
	ldr         x8,[x0]
	mov         x5,x19
	mov         x4,#0
	mov         x3,x20
	mov         x2,x21
	orr         x0,x8,#1
	mov         x1,x22
	bl          __stdio_common_vswprintf

; 1063 :             _CRT_INTERNAL_LOCAL_PRINTF_OPTIONS | _CRT_INTERNAL_PRINTF_LEGACY_VSPRINTF_NULL_TERMINATION,
; 1064 :             _Buffer, _BufferCount, _Format, _Locale, _ArgList);
; 1065 : 
; 1066 :         return _Result < 0 ? -1 : _Result;

	cmp         w0,#0
	csinvge     w0,w0,wzr
	ldp         fp,lr,[sp],#0x10
	ldp         x21,x22,[sp,#0x10]
	ldp         x19,x20,[sp],#0x20
	ret

	ENDP  ; |_vsnwprintf_l|

; Function compile flags: /Ogtp
; File C:\Program Files (x86)\Windows Kits\10\Include\10.0.26100.0\ucrt\corecrt_wstdio.h

	AREA	|.text$mn|, CODE, ARM64

|_vsnwprintf| PROC

; 1129 :     {

|$LN8|
	stp         x19,x20,[sp,#-0x20]!
	stp         x21,x22,[sp,#0x10]
	stp         fp,lr,[sp,#-0x10]!
	mov         fp,sp
	mov         x22,x0
	mov         x21,x1
	mov         x20,x2
	mov         x19,x3

; 1062 :         int const _Result = __stdio_common_vswprintf(

	bl          __local_stdio_printf_options
	ldr         x8,[x0]
	mov         x5,x19
	mov         x4,#0
	mov         x3,x20
	mov         x2,x21
	orr         x0,x8,#1
	mov         x1,x22
	bl          __stdio_common_vswprintf

; 1063 :             _CRT_INTERNAL_LOCAL_PRINTF_OPTIONS | _CRT_INTERNAL_PRINTF_LEGACY_VSPRINTF_NULL_TERMINATION,
; 1064 :             _Buffer, _BufferCount, _Format, _Locale, _ArgList);
; 1065 : 
; 1066 :         return _Result < 0 ? -1 : _Result;

	cmp         w0,#0
	csinvge     w0,w0,wzr
	ldp         fp,lr,[sp],#0x10
	ldp         x21,x22,[sp,#0x10]
	ldp         x19,x20,[sp],#0x20
	ret

	ENDP  ; |_vsnwprintf|

; Function compile flags: /Ogtp
; File C:\Program Files (x86)\Windows Kits\10\Include\10.0.26100.0\shared\strsafe.h

	AREA	|.text$mn|, CODE, ARM64

|?StringCchCopyA@@YAJPEAD_KPEBD@Z| PROC			; StringCchCopyA

; 9669 :     if ((cchDest == 0) || (cchDest > cchMax))

	sub         x11,x1,#1
	mov         x10,#0x7FFFFFFE
	cmp         x11,x10
	mov         x8,x0
	bhi         |$LN8@StringCchC|

; 543  :     HRESULT hr;
; 544  : 
; 545  :     hr = StringValidateDestA(pszDest, cchDest, STRSAFE_MAX_CCH);
; 546  : 
; 547  :     if (SUCCEEDED(hr))
; 548  :     {
; 549  :         hr = StringCopyWorkerA(pszDest,

	sub         x10,x10,x1
	sub         x11,x2,x8
|$LL11@StringCchC|

; 9916 :     while (cchDest && cchToCopy && (*pszSrc != '\0'))

	add         x9,x10,x1
	cbz         x9,|$LN26@StringCchC|
	ldrsb       w9,[x11,x8]
	cbz         w9,|$LN26@StringCchC|

; 9917 :     {
; 9918 :         *pszDest++ = *pszSrc++;

	strb        w9,[x8]
	add         x8,x8,#1

; 9919 :         cchDest--;

	sub         x1,x1,#1
	cbnz        x1,|$LL11@StringCchC|
|$LN26@StringCchC|

; 9920 :         cchToCopy--;
; 9921 : 
; 9922 :         cchNewDestLength++;
; 9923 :     }
; 9924 : 
; 9925 :     if (cchDest == 0)
; 9926 :     {
; 9927 :         // we are going to truncate pszDest
; 9928 :         pszDest--;
; 9929 :         cchNewDestLength--;
; 9930 : 
; 9931 :         hr = STRSAFE_E_INSUFFICIENT_BUFFER;
; 9932 :     }
; 9933 : 
; 9934 :     *pszDest = '\0';

	sub         x10,x8,#1
	cmp         x1,#0
	cselne      x8,x8,x10
	strb        wzr,[x8]
	ldr         w8,|$LN28@StringCchC|
	cselne      w0,wzr,w8
	ret
|$LN8@StringCchC|

; 550  :                 cchDest,
; 551  :                 NULL,
; 552  :                 pszSrc,
; 553  :                 STRSAFE_MAX_LENGTH);
; 554  :     }
; 555  :     else if (cchDest > 0)

	ldr         w0,|$LN29@StringCchC|
	cbz         x1,|$LN4@StringCchC|

; 556  :     {
; 557  :         *pszDest = '\0';

	strb        wzr,[x8]
	ldr         w0,|$LN29@StringCchC|
|$LN4@StringCchC|
	ret
	nop
|$LN28@StringCchC|
	DCD         0x8007007a
|$LN29@StringCchC|
	DCD         0x80070057

	ENDP  ; |?StringCchCopyA@@YAJPEAD_KPEBD@Z|, StringCchCopyA

; Function compile flags: /Ogtp
; File C:\Program Files (x86)\Windows Kits\10\Include\10.0.26100.0\shared\strsafe.h
; File C:\Program Files (x86)\Windows Kits\10\Include\10.0.26100.0\ucrt\corecrt_wstdio.h
; File C:\Program Files (x86)\Windows Kits\10\Include\10.0.26100.0\shared\strsafe.h

	AREA	|.text$mn|, CODE, ARM64

|?StringCchVPrintfW@@YAJPEA_W_KPEB_WPEAD@Z| PROC	; StringCchVPrintfW

; 4559 : {

|$LN29|
	stp         x19,x20,[sp,#-0x30]!
	stp         x21,x22,[sp,#0x10]
	str         x23,[sp,#0x20]
	stp         fp,lr,[sp,#-0x10]!
	mov         fp,sp

; 9723 :     if ((cchDest == 0) || (cchDest > cchMax))

	sub         x9,x1,#1
	mov         x8,#0x7FFFFFFE
	cmp         x9,x8
	mov         x22,x0
	mov         x21,x2
	mov         x20,x3
	bls         |$LN7@StringCchV|

; 4567 :                 cchDest,
; 4568 :                 NULL,
; 4569 :                 pszFormat,
; 4570 :                 argList);
; 4571 :     }
; 4572 :     else if (cchDest > 0)

	ldr         w0,|$LN27@StringCchV|
	cbz         x1,|$LN4@StringCchV|

; 4573 :     {
; 4574 :         *pszDest = L'\0';

	strh        wzr,[x22]
	ldp         fp,lr,[sp],#0x10
	ldr         x23,[sp,#0x20]
	ldp         x21,x22,[sp,#0x10]
	ldp         x19,x20,[sp],#0x30
	ret
|$LN7@StringCchV|

; 10129:     HRESULT hr = S_OK;

	mov         w19,#0

; 10130:     int iRet;
; 10131:     size_t cchMax;
; 10132:     size_t cchNewDestLength = 0;
; 10133: 
; 10134:     // leave the last space for the null terminator
; 10135:     cchMax = cchDest - 1;

	sub         x23,x1,#1
; File C:\Program Files (x86)\Windows Kits\10\Include\10.0.26100.0\ucrt\corecrt_wstdio.h

; 1062 :         int const _Result = __stdio_common_vswprintf(

	bl          __local_stdio_printf_options
	ldr         x8,[x0]
	mov         x5,x20
	mov         x4,#0
	mov         x3,x21
	mov         x2,x23
	orr         x0,x8,#1
	mov         x1,x22
	bl          __stdio_common_vswprintf

; 1063 :             _CRT_INTERNAL_LOCAL_PRINTF_OPTIONS | _CRT_INTERNAL_PRINTF_LEGACY_VSPRINTF_NULL_TERMINATION,
; 1064 :             _Buffer, _BufferCount, _Format, _Locale, _ArgList);
; 1065 : 
; 1066 :         return _Result < 0 ? -1 : _Result;

	cmp         w0,#0
	csinvge     w8,w0,wzr
; File C:\Program Files (x86)\Windows Kits\10\Include\10.0.26100.0\shared\strsafe.h

; 10147:     if ((iRet < 0) || (((size_t)iRet) > cchMax))

	tbnz        w8,#0x1F,|$LN13@StringCchV|
	cmp         x23,w8,sxtw #0
	blo         |$LN13@StringCchV|

; 10157:     }
; 10158:     else if (((size_t)iRet) == cchMax)

	bne         |$LN15@StringCchV|

; 10159:     {
; 10160:         // need to null terminate the string
; 10161:         pszDest += cchMax;
; 10162:         *pszDest = L'\0';
; 10163: 
; 10164:         cchNewDestLength = cchMax;
; 10165:     }

	b           |$LN25@StringCchV|
|$LN13@StringCchV|

; 10148:     {
; 10149:         // need to null terminate the string
; 10150:         pszDest += cchMax;
; 10151:         *pszDest = L'\0';
; 10152: 
; 10153:         cchNewDestLength = cchMax;
; 10154: 
; 10155:         // we have truncated pszDest
; 10156:         hr = STRSAFE_E_INSUFFICIENT_BUFFER;

	ldr         w19,|$LN28@StringCchV|
|$LN25@StringCchV|

; 4560 :     HRESULT hr;
; 4561 : 
; 4562 :     hr = StringValidateDestW(pszDest, cchDest, STRSAFE_MAX_CCH);
; 4563 : 
; 4564 :     if (SUCCEEDED(hr))
; 4565 :     {
; 4566 :         hr = StringVPrintfWorkerW(pszDest,

	strh        wzr,[x22,x23 lsl #1]
|$LN15@StringCchV|
	mov         w0,w19
|$LN4@StringCchV|
	ldp         fp,lr,[sp],#0x10
	ldr         x23,[sp,#0x20]
	ldp         x21,x22,[sp,#0x10]
	ldp         x19,x20,[sp],#0x30
	ret
|$LN27@StringCchV|
	DCD         0x80070057
|$LN28@StringCchV|
	DCD         0x8007007a

	ENDP  ; |?StringCchVPrintfW@@YAJPEA_W_KPEB_WPEAD@Z|, StringCchVPrintfW

; Function compile flags: /Ogtp
; File C:\Program Files (x86)\Windows Kits\10\Include\10.0.26100.0\shared\strsafe.h
; File C:\Program Files (x86)\Windows Kits\10\Include\10.0.26100.0\ucrt\corecrt_wstdio.h
; File C:\Program Files (x86)\Windows Kits\10\Include\10.0.26100.0\shared\strsafe.h

	AREA	|.text$mn|, CODE, ARM64

|?StringCchPrintfW@@YAJPEA_W_KPEB_WZZ| PROC		; StringCchPrintfW

; 5050 : {

|$LN29|
	stp         x19,x20,[sp,#-0x50]!
	stp         x21,x22,[sp,#0x10]
	str         x23,[sp,#0x20]
	stp         x3,x4,[sp,#0x28]
	stp         x5,x6,[sp,#0x38]
	str         x7,[sp,#0x48]
	stp         fp,lr,[sp,#-0x10]!
	mov         fp,sp

; 9723 :     if ((cchDest == 0) || (cchDest > cchMax))

	sub         x9,x1,#1
	mov         x8,#0x7FFFFFFE
	cmp         x9,x8
	mov         x21,x0
	mov         x20,x2
	bls         |$LN7@StringCchP|

; 5062 :                 cchDest,
; 5063 :                 NULL,
; 5064 :                 pszFormat,
; 5065 :                 argList);
; 5066 : 
; 5067 :         va_end(argList);
; 5068 :     }
; 5069 :     else if (cchDest > 0)

	ldr         w0,|$LN27@StringCchP|
	cbz         x1,|$LN4@StringCchP|

; 5070 :     {
; 5071 :         *pszDest = '\0';

	strh        wzr,[x21]
	ldp         fp,lr,[sp],#0x10
	ldr         x23,[sp,#0x20]
	ldp         x21,x22,[sp,#0x10]
	ldp         x19,x20,[sp],#0x50
	ret
|$LN7@StringCchP|

; 5051 :     HRESULT hr;
; 5052 : 
; 5053 :     hr = StringValidateDestW(pszDest, cchDest, STRSAFE_MAX_CCH);
; 5054 : 
; 5055 :     if (SUCCEEDED(hr))
; 5056 :     {
; 5057 :         va_list argList;
; 5058 : 
; 5059 :         va_start(argList, pszFormat);

	add         x23,sp,#0x38

; 10129:     HRESULT hr = S_OK;

	mov         w19,#0

; 10130:     int iRet;
; 10131:     size_t cchMax;
; 10132:     size_t cchNewDestLength = 0;
; 10133: 
; 10134:     // leave the last space for the null terminator
; 10135:     cchMax = cchDest - 1;

	sub         x22,x1,#1
; File C:\Program Files (x86)\Windows Kits\10\Include\10.0.26100.0\ucrt\corecrt_wstdio.h

; 1062 :         int const _Result = __stdio_common_vswprintf(

	bl          __local_stdio_printf_options
	ldr         x8,[x0]
	mov         x5,x23
	mov         x3,x20
	mov         x2,x22
	mov         x1,x21
	orr         x0,x8,#1
	mov         x4,#0
	bl          __stdio_common_vswprintf

; 1063 :             _CRT_INTERNAL_LOCAL_PRINTF_OPTIONS | _CRT_INTERNAL_PRINTF_LEGACY_VSPRINTF_NULL_TERMINATION,
; 1064 :             _Buffer, _BufferCount, _Format, _Locale, _ArgList);
; 1065 : 
; 1066 :         return _Result < 0 ? -1 : _Result;

	cmp         w0,#0
	csinvge     w8,w0,wzr
; File C:\Program Files (x86)\Windows Kits\10\Include\10.0.26100.0\shared\strsafe.h

; 10147:     if ((iRet < 0) || (((size_t)iRet) > cchMax))

	tbnz        w8,#0x1F,|$LN13@StringCchP|
	cmp         x22,w8,sxtw #0
	blo         |$LN13@StringCchP|

; 10157:     }
; 10158:     else if (((size_t)iRet) == cchMax)

	bne         |$LN15@StringCchP|

; 10159:     {
; 10160:         // need to null terminate the string
; 10161:         pszDest += cchMax;
; 10162:         *pszDest = L'\0';
; 10163: 
; 10164:         cchNewDestLength = cchMax;
; 10165:     }

	b           |$LN25@StringCchP|
|$LN13@StringCchP|

; 10148:     {
; 10149:         // need to null terminate the string
; 10150:         pszDest += cchMax;
; 10151:         *pszDest = L'\0';
; 10152: 
; 10153:         cchNewDestLength = cchMax;
; 10154: 
; 10155:         // we have truncated pszDest
; 10156:         hr = STRSAFE_E_INSUFFICIENT_BUFFER;

	ldr         w19,|$LN28@StringCchP|
|$LN25@StringCchP|

; 5060 : 
; 5061 :         hr = StringVPrintfWorkerW(pszDest,

	strh        wzr,[x21,x22 lsl #1]
|$LN15@StringCchP|
	mov         w0,w19
|$LN4@StringCchP|
	ldp         fp,lr,[sp],#0x10
	ldr         x23,[sp,#0x20]
	ldp         x21,x22,[sp,#0x10]
	ldp         x19,x20,[sp],#0x50
	ret
	nop
|$LN27@StringCchP|
	DCD         0x80070057
|$LN28@StringCchP|
	DCD         0x8007007a

	ENDP  ; |?StringCchPrintfW@@YAJPEA_W_KPEB_WZZ|, StringCchPrintfW

; Function compile flags: /Ogtp
; File C:\Program Files (x86)\Windows Kits\10\Include\10.0.26100.0\shared\strsafe.h

	AREA	|.text$mn|, CODE, ARM64

|?StringValidateDestA@@YAJPEBD_K_K@Z| PROC		; StringValidateDestA

; 9667 :     HRESULT hr = S_OK;
; 9668 : 
; 9669 :     if ((cchDest == 0) || (cchDest > cchMax))

	mov         x8,#0x7FFFFFFE
	sub         x9,x1,#1
	cmp         x9,x8
	ldr         w8,|$LN9@StringVali|
	cselhi      w0,w8,wzr
	ret
|$LN9@StringVali|
	DCD         0x80070057

	ENDP  ; |?StringValidateDestA@@YAJPEBD_K_K@Z|, StringValidateDestA

; Function compile flags: /Ogtp
; File C:\Program Files (x86)\Windows Kits\10\Include\10.0.26100.0\shared\strsafe.h

	AREA	|.text$mn|, CODE, ARM64

|?StringValidateDestW@@YAJPEB_W_K_K@Z| PROC		; StringValidateDestW

; 9721 :     HRESULT hr = S_OK;
; 9722 : 
; 9723 :     if ((cchDest == 0) || (cchDest > cchMax))

	mov         x8,#0x7FFFFFFE
	sub         x9,x1,#1
	cmp         x9,x8
	ldr         w8,|$LN9@StringVali|
	cselhi      w0,w8,wzr
	ret
|$LN9@StringVali|
	DCD         0x80070057

	ENDP  ; |?StringValidateDestW@@YAJPEB_W_K_K@Z|, StringValidateDestW

; Function compile flags: /Ogtp
; File C:\Program Files (x86)\Windows Kits\10\Include\10.0.26100.0\shared\strsafe.h

	AREA	|.text$mn|, CODE, ARM64

|?StringCopyWorkerA@@YAJPEAD_KPEA_KPEBD1@Z| PROC	; StringCopyWorkerA

; 9913 : 
; 9914 :     // ASSERT(cchDest != 0);
; 9915 : 
; 9916 :     while (cchDest && cchToCopy && (*pszSrc != '\0'))

	cbz         x1,|$LN17@StringCopy|

; 9911 :     HRESULT hr = S_OK;
; 9912 :     size_t cchNewDestLength = 0;

	mov         x8,#0x7FFFFFFE
	sub         x10,x3,x0
|$LL2@StringCopy|

; 9913 : 
; 9914 :     // ASSERT(cchDest != 0);
; 9915 : 
; 9916 :     while (cchDest && cchToCopy && (*pszSrc != '\0'))

	cbz         x8,|$LN17@StringCopy|
	ldrsb       w9,[x10,x0]
	cbz         w9,|$LN17@StringCopy|

; 9917 :     {
; 9918 :         *pszDest++ = *pszSrc++;

	strb        w9,[x0]
	add         x0,x0,#1

; 9919 :         cchDest--;

	sub         x1,x1,#1
	sub         x8,x8,#1
	cbnz        x1,|$LL2@StringCopy|
|$LN17@StringCopy|

; 9920 :         cchToCopy--;
; 9921 : 
; 9922 :         cchNewDestLength++;
; 9923 :     }
; 9924 : 
; 9925 :     if (cchDest == 0)
; 9926 :     {
; 9927 :         // we are going to truncate pszDest
; 9928 :         pszDest--;
; 9929 :         cchNewDestLength--;
; 9930 : 
; 9931 :         hr = STRSAFE_E_INSUFFICIENT_BUFFER;
; 9932 :     }
; 9933 : 
; 9934 :     *pszDest = '\0';

	cmp         x1,#0
	sub         x9,x0,#1
	ldr         w8,|$LN21@StringCopy|
	cselne      x9,x0,x9
	cselne      w8,wzr,w8
	strb        wzr,[x9]

; 9935 : 
; 9936 :     if (pcchNewDestLength)
; 9937 :     {
; 9938 :         *pcchNewDestLength = cchNewDestLength;
; 9939 :     }
; 9940 : 
; 9941 :     return hr;

	mov         w0,w8
	ret
	nop
|$LN21@StringCopy|
	DCD         0x8007007a

	ENDP  ; |?StringCopyWorkerA@@YAJPEAD_KPEA_KPEBD1@Z|, StringCopyWorkerA

; Function compile flags: /Ogtp
; File C:\Program Files (x86)\Windows Kits\10\Include\10.0.26100.0\shared\strsafe.h
; File C:\Program Files (x86)\Windows Kits\10\Include\10.0.26100.0\ucrt\corecrt_wstdio.h
; File C:\Program Files (x86)\Windows Kits\10\Include\10.0.26100.0\shared\strsafe.h

	AREA	|.text$mn|, CODE, ARM64

|?StringVPrintfWorkerW@@YAJPEA_W_KPEA_KPEB_WPEAD@Z| PROC ; StringVPrintfWorkerW

; 10128: {

	stp         x19,x20,[sp,#-0x30]!
	stp         x21,x22,[sp,#0x10]
	str         x23,[sp,#0x20]
	stp         fp,lr,[sp,#-0x10]!
	mov         fp,sp
	mov         x20,x0
	mov         x23,x3
	mov         x22,x4

; 10129:     HRESULT hr = S_OK;

	mov         w19,#0

; 10130:     int iRet;
; 10131:     size_t cchMax;
; 10132:     size_t cchNewDestLength = 0;
; 10133: 
; 10134:     // leave the last space for the null terminator
; 10135:     cchMax = cchDest - 1;

	sub         x21,x1,#1
; File C:\Program Files (x86)\Windows Kits\10\Include\10.0.26100.0\ucrt\corecrt_wstdio.h

; 1062 :         int const _Result = __stdio_common_vswprintf(

	bl          __local_stdio_printf_options
	ldr         x8,[x0]
	mov         x5,x22
	mov         x4,#0
	mov         x3,x23
	mov         x2,x21
	orr         x0,x8,#1
	mov         x1,x20
	bl          __stdio_common_vswprintf

; 1063 :             _CRT_INTERNAL_LOCAL_PRINTF_OPTIONS | _CRT_INTERNAL_PRINTF_LEGACY_VSPRINTF_NULL_TERMINATION,
; 1064 :             _Buffer, _BufferCount, _Format, _Locale, _ArgList);
; 1065 : 
; 1066 :         return _Result < 0 ? -1 : _Result;

	cmp         w0,#0
	csinvge     w8,w0,wzr
; File C:\Program Files (x86)\Windows Kits\10\Include\10.0.26100.0\shared\strsafe.h

; 10147:     if ((iRet < 0) || (((size_t)iRet) > cchMax))

	tbnz        w8,#0x1F,|$LN4@StringVPri|
	cmp         x21,w8,sxtw #0
	blo         |$LN4@StringVPri|

; 10157:     }
; 10158:     else if (((size_t)iRet) == cchMax)

	bne         |$LN7@StringVPri|

; 10159:     {
; 10160:         // need to null terminate the string
; 10161:         pszDest += cchMax;
; 10162:         *pszDest = L'\0';
; 10163: 
; 10164:         cchNewDestLength = cchMax;
; 10165:     }

	b           |$LN15@StringVPri|
|$LN4@StringVPri|

; 10148:     {
; 10149:         // need to null terminate the string
; 10150:         pszDest += cchMax;
; 10151:         *pszDest = L'\0';
; 10152: 
; 10153:         cchNewDestLength = cchMax;
; 10154: 
; 10155:         // we have truncated pszDest
; 10156:         hr = STRSAFE_E_INSUFFICIENT_BUFFER;

	ldr         w19,|$LN17@StringVPri|
|$LN15@StringVPri|

; 10166:     else
; 10167:     {
; 10168:         cchNewDestLength = (size_t)iRet;
; 10169:     }
; 10170: 
; 10171:     if (pcchNewDestLength)
; 10172:     {
; 10173:         *pcchNewDestLength = cchNewDestLength;
; 10174:     }
; 10175: 
; 10176:     return hr;

	strh        wzr,[x20,x21 lsl #1]
|$LN7@StringVPri|
	mov         w0,w19
	ldp         fp,lr,[sp],#0x10
	ldr         x23,[sp,#0x20]
	ldp         x21,x22,[sp,#0x10]
	ldp         x19,x20,[sp],#0x30
	ret
|$LN17@StringVPri|
	DCD         0x8007007a

	ENDP  ; |?StringVPrintfWorkerW@@YAJPEA_W_KPEA_KPEB_WPEAD@Z|, StringVPrintfWorkerW

; Function compile flags: /Ogtp
; File C:\Program Files\Microsoft Visual Studio\2022\Community\VC\Tools\MSVC\14.44.35207\include\vcruntime_exception.h

	AREA	|.text$mn|, CODE, ARM64

|??0exception@std@@QEAA@XZ| PROC			; std::exception::exception

; 55   :     {

	adrp        x8,|??_7exception@std@@6B@|
	add         x8,x8,|??_7exception@std@@6B@|
	movi        v16.16b,#0
	str         x8,[x0]
	stur        q16,[x0,#8]
	ret

	ENDP  ; |??0exception@std@@QEAA@XZ|, std::exception::exception

; Function compile flags: /Ogtp
; File C:\Program Files\Microsoft Visual Studio\2022\Community\VC\Tools\MSVC\14.44.35207\include\vcruntime_exception.h

	AREA	|.text$mn|, CODE, ARM64

|??0exception@std@@QEAA@AEBV01@@Z| PROC			; std::exception::exception

; 73   :     {

|$LN8|
	str         x19,[sp,#-0x10]!
	stp         fp,lr,[sp,#-0x10]!
	mov         fp,sp
	adrp        x8,|??_7exception@std@@6B@|
	add         x8,x8,|??_7exception@std@@6B@|
	movi        v16.16b,#0
	mov         x19,x0
	mov         x9,x1
	str         x8,[x19]

; 74   :         __std_exception_copy(&_Other._Data, &_Data);

	add         x1,x19,#8
	add         x0,x9,#8
	stur        q16,[x19,#8]
	bl          __std_exception_copy

; 75   :     }

	mov         x0,x19
	ldp         fp,lr,[sp],#0x10
	ldr         x19,[sp],#0x10
	ret

	ENDP  ; |??0exception@std@@QEAA@AEBV01@@Z|, std::exception::exception

; Function compile flags: /Ogtp
; File C:\Program Files\Microsoft Visual Studio\2022\Community\VC\Tools\MSVC\14.44.35207\include\vcruntime_exception.h

	AREA	|.text$mn|, CODE, ARM64

|??1exception@std@@UEAA@XZ| PROC			; std::exception::~exception

; 90   :     {

	adrp        x8,|??_7exception@std@@6B@|
	add         x8,x8,|??_7exception@std@@6B@|
	str         x8,[x0],#8

; 91   :         __std_exception_destroy(&_Data);

	b           __std_exception_destroy

	ENDP  ; |??1exception@std@@UEAA@XZ|, std::exception::~exception

; Function compile flags: /Ogtp
; File C:\Program Files\Microsoft Visual Studio\2022\Community\VC\Tools\MSVC\14.44.35207\include\vcruntime_exception.h

	AREA	|.text$mn|, CODE, ARM64

|?what@exception@std@@UEBAPEBDXZ| PROC			; std::exception::what

; 96   :         return _Data._What ? _Data._What : "Unknown exception";

	ldr         x9,[x0,#8]
	adrp        x8,|??_C@_0BC@EOODALEL@Unknown?5exception@|
	add         x8,x8,|??_C@_0BC@EOODALEL@Unknown?5exception@|
	cmp         x9,#0
	cselne      x0,x9,x8
	ret

	ENDP  ; |?what@exception@std@@UEBAPEBDXZ|, std::exception::what

; Function compile flags: /Ogtp
; File C:\Program Files\Microsoft Visual Studio\2022\Community\VC\Tools\MSVC\14.44.35207\include\vcruntime_exception.h

	AREA	|.text$mn|, CODE, ARM64

|??_Gexception@std@@UEAAPEAXI@Z| PROC			; std::exception::`scalar deleting destructor'
|$LN15|
	stp         x19,x20,[sp,#-0x10]!
	stp         fp,lr,[sp,#-0x10]!
	mov         fp,sp

; 90   :     {

	adrp        x8,|??_7exception@std@@6B@|
	add         x8,x8,|??_7exception@std@@6B@|
	mov         x19,x0

; 91   :         __std_exception_destroy(&_Data);

	add         x0,x19,#8
	str         x8,[x19]
	mov         w20,w1
	bl          __std_exception_destroy
	tbz         w20,#0,|$LN12@scalar|
	mov         x1,#0x18
	mov         x0,x19
	bl          |??3@YAXPEAX_K@Z|
|$LN12@scalar|
	mov         x0,x19
	ldp         fp,lr,[sp],#0x10
	ldp         x19,x20,[sp],#0x10
	ret

	ENDP  ; |??_Gexception@std@@UEAAPEAXI@Z|, std::exception::`scalar deleting destructor'

; Function compile flags: /Ogtp
; File G:\Github\microsoft\low-latency-audio\src\uac2-asio\packages\Microsoft.Windows.ImplementationLibrary.1.0.250325.1\include\wil\result_macros.h
; File C:\Program Files (x86)\Windows Kits\10\Include\10.0.26100.0\shared\strsafe.h
; File C:\Program Files (x86)\Windows Kits\10\Include\10.0.26100.0\ucrt\corecrt_wstdio.h
; File C:\Program Files (x86)\Windows Kits\10\Include\10.0.26100.0\shared\strsafe.h
; File G:\Github\microsoft\low-latency-audio\src\uac2-asio\packages\Microsoft.Windows.ImplementationLibrary.1.0.250325.1\include\wil\result_macros.h

	AREA	|.text$mn|, CODE, ARM64

|?LogStringPrintf@details@wil@@YAPEA_WPEA_WPEB_W1ZZ| PROC ; wil::details::LogStringPrintf

; 1760 :     {

|$LN36|
	stp         x19,x20,[sp,#-0x50]!
	stp         x21,x22,[sp,#0x10]
	stp         x3,x4,[sp,#0x28]
	stp         x5,x6,[sp,#0x38]
	str         x7,[sp,#0x48]
	stp         fp,lr,[sp,#-0x20]!
	mov         fp,sp
	mov         x19,x0
	mov         x21,x1

; 1761 :         va_list argList;
; 1762 :         va_start(argList, format);
; 1763 :         StringCchVPrintfW(dest, (destEnd - dest), format, argList);

	sub         x8,x21,x19
	asr         x9,x8,#1
	mov         x22,x2
; File C:\Program Files (x86)\Windows Kits\10\Include\10.0.26100.0\shared\strsafe.h

; 9723 :     if ((cchDest == 0) || (cchDest > cchMax))

	cbz         x9,|$LN8@LogStringP|
	mov         x8,#0x7FFFFFFF
	cmp         x9,x8
	bhi         |$LN27@LogStringP|

; 10135:     cchMax = cchDest - 1;

	sub         x20,x9,#1
	str         x20,[sp,#0x10]
; File C:\Program Files (x86)\Windows Kits\10\Include\10.0.26100.0\ucrt\corecrt_wstdio.h

; 1062 :         int const _Result = __stdio_common_vswprintf(

	bl          __local_stdio_printf_options
	add         x5,sp,#0x48
	ldr         x8,[x0]
	mov         x3,x22
	mov         x2,x20
	mov         x1,x19
	mov         x4,#0
	orr         x0,x8,#1
	bl          __stdio_common_vswprintf

; 1063 :             _CRT_INTERNAL_LOCAL_PRINTF_OPTIONS | _CRT_INTERNAL_PRINTF_LEGACY_VSPRINTF_NULL_TERMINATION,
; 1064 :             _Buffer, _BufferCount, _Format, _Locale, _ArgList);
; 1065 : 
; 1066 :         return _Result < 0 ? -1 : _Result;

	cmp         w0,#0
	csinvge     w8,w0,wzr
; File C:\Program Files (x86)\Windows Kits\10\Include\10.0.26100.0\shared\strsafe.h

; 10147:     if ((iRet < 0) || (((size_t)iRet) > cchMax))

	tbnz        w8,#0x1F,|$LN17@LogStringP|
	cmp         x20,w8,sxtw #0
	blo         |$LN17@LogStringP|

; 10152: 
; 10153:         cchNewDestLength = cchMax;
; 10154: 
; 10155:         // we have truncated pszDest
; 10156:         hr = STRSAFE_E_INSUFFICIENT_BUFFER;
; 10157:     }
; 10158:     else if (((size_t)iRet) == cchMax)

	bne         |$LN8@LogStringP|

; 10159:     {
; 10160:         // need to null terminate the string
; 10161:         pszDest += cchMax;
; 10162:         *pszDest = L'\0';

	strh        wzr,[x19,x20 lsl #1]

; 10163: 
; 10164:         cchNewDestLength = cchMax;
; 10165:     }

	b           |$LN8@LogStringP|
|$LN17@LogStringP|

; 10148:     {
; 10149:         // need to null terminate the string
; 10150:         pszDest += cchMax;
; 10151:         *pszDest = L'\0';

	ldr         x20,[sp,#0x10]
	strh        wzr,[x19,x20 lsl #1]

; 4571 :     }

	b           |$LN8@LogStringP|
|$LN27@LogStringP|

; 4572 :     else if (cchDest > 0)
; 4573 :     {
; 4574 :         *pszDest = L'\0';

	strh        wzr,[x19]
|$LN8@LogStringP|
; File G:\Github\microsoft\low-latency-audio\src\uac2-asio\packages\Microsoft.Windows.ImplementationLibrary.1.0.250325.1\include\wil\result_macros.h

; 1764 :         return (destEnd == dest) ? dest : (dest + wcslen(dest));

	cmp         x21,x19
	cseleq      x0,x19,x0
	beq         |$LN4@LogStringP|
	mov         x8,x19
	ldrsh       w9,[x8]
	cbz         w9,|$LN34@LogStringP|
|$LL33@LogStringP|
	ldrsh       w9,[x8,#2]!
	cbnz        w9,|$LL33@LogStringP|
|$LN34@LogStringP|
	sub         x8,x8,x19
	asr         x8,x8,#1
	add         x0,x19,x8,lsl #1
|$LN4@LogStringP|
	ldp         fp,lr,[sp],#0x20
	ldp         x21,x22,[sp,#0x10]
	ldp         x19,x20,[sp],#0x50
	ret

	ENDP  ; |?LogStringPrintf@details@wil@@YAPEA_WPEA_WPEB_W1ZZ|, wil::details::LogStringPrintf

; Function compile flags: /Ogtp
; File G:\Github\microsoft\low-latency-audio\src\uac2-asio\packages\Microsoft.Windows.ImplementationLibrary.1.0.250325.1\include\wil\result_macros.h

	AREA	|.text$mn|, CODE, ARM64

|?GetFailureLogString@wil@@YAJPEA_W_KAEBUFailureInfo@1@@Z| PROC ; wil::GetFailureLogString

; 1776 : {

|$LN44|
	stp         fp,lr,[sp,#-0x50]!
	stp         x19,x20,[sp,#0x10]
	stp         x21,x22,[sp,#0x20]
	stp         x23,x24,[sp,#0x30]
	stp         x25,x26,[sp,#0x40]
	mov         fp,sp
	bl          __security_push_cookie
	sub         sp,sp,#0x210
	mov         x26,sp
	mov         xip0,#-2
	str         xip0,[x26]
	mov         x25,x0
	mov         x24,x1
	mov         x23,x2
	mov         x22,x2

; 1777 :     // This function was lenient to empty strings at one point and some callers became dependent on this behavior
; 1778 :     if ((cchDest == 0) || (pszDest == nullptr))

	cbz         x24,|$LN5@GetFailure|
	cbz         x25,|$LN5@GetFailure|

; 1781 :     }
; 1782 : 
; 1783 :     pszDest[0] = L'\0';
; 1784 : 
; 1785 :     // Call the logging callback (if present) to allow them to generate the debug string that will be pushed to the console
; 1786 :     // or the platform exception object if the caller desires it.
; 1787 :     if ((g_pfnResultLoggingCallback != nullptr) && details::g_resultMessageCallbackSet)

	adrp        x8,g_pfnResultLoggingCallback
	ldr         x9,[x8,g_pfnResultLoggingCallback]
	strh        wzr,[x25]
	cbz         x9,|$LN32@GetFailure|
	adrp        x8,|?g_resultMessageCallbackSet@details@wil@@3_NA|
	ldrb        w8,[x8,|?g_resultMessageCallbackSet@details@wil@@3_NA|]
	cbz         w8,|$LN32@GetFailure|

; 1788 :     {
; 1789 :         // older-form callback was a non-const FailureInfo*; conceptually this is const as callers should not be modifying
; 1790 :         g_pfnResultLoggingCallback(const_cast<FailureInfo*>(&failure), pszDest, cchDest);

	mov         x2,x24
	mov         x1,x25
	mov         x0,x23
	blr         x9

; 1791 :     }
; 1792 : 
; 1793 :     // The callback only optionally needs to supply the debug string -- if the callback didn't populate it, yet we still want
; 1794 :     // it for OutputDebugString or exception message, then generate the default string.
; 1795 :     if (pszDest[0] == L'\0')

	ldrh        w8,[x25]
	cbnz        w8,|$LN5@GetFailure|
|$LN32@GetFailure|

; 1796 :     {
; 1797 :         PCSTR pszType = "";
; 1798 :         switch (failure.type)

	ldr         w10,[x23]
	adrp        x8,|??_C@_00CNPNBAHC@@|
	add         x21,x8,|??_C@_00CNPNBAHC@@|
	cmp         w10,#3
	bhi         |$LN2@GetFailure|
	adr         x9,__swt
	ldrsw       x8,[x9,w10 uxtw #2]
	adr         x9,|$LN39@GetFailure|
	add         x8,x9,x8,lsl #2
	br          x8
|$LN8@GetFailure|

; 1799 :         {
; 1800 :         case FailureType::Exception:
; 1801 :             pszType = "Exception";

	adrp        x8,|??_C@_09FBNMMHMJ@Exception@|
	add         x21,x8,|??_C@_09FBNMMHMJ@Exception@|

; 1802 :             break;

	b           |$LN2@GetFailure|
|$LN9@GetFailure|

; 1803 :         case FailureType::Return:
; 1804 :             if (WI_IsFlagSet(failure.flags, FailureFlags::NtStatus))

	ldr         w8,[x23,#4]
	tst         w8,#8

; 1805 :             {
; 1806 :                 pszType = "ReturnNt";
; 1807 :             }
; 1808 :             else
; 1809 :             {
; 1810 :                 pszType = "ReturnHr";
; 1811 :             }
; 1812 :             break;

	adrp        x8,|??_C@_08KFPKLAKH@ReturnHr@|
	add         x9,x8,|??_C@_08KFPKLAKH@ReturnHr@|
	adrp        x8,|??_C@_08PHCNGLJD@ReturnNt@|
	add         x8,x8,|??_C@_08PHCNGLJD@ReturnNt@|
	cseleq      x21,x9,x8
	b           |$LN2@GetFailure|
|$LN12@GetFailure|
|$LN39@GetFailure|

; 1813 :         case FailureType::Log:
; 1814 :             if (WI_IsFlagSet(failure.flags, FailureFlags::NtStatus))

	ldr         w8,[x23,#4]
	tst         w8,#8

; 1815 :             {
; 1816 :                 pszType = "LogNt";
; 1817 :             }
; 1818 :             else
; 1819 :             {
; 1820 :                 pszType = "LogHr";
; 1821 :             }
; 1822 :             break;

	adrp        x8,|??_C@_05OILEHMGB@LogHr@|
	add         x9,x8,|??_C@_05OILEHMGB@LogHr@|
	adrp        x8,|??_C@_05LKGDKHFF@LogNt@|
	add         x8,x8,|??_C@_05LKGDKHFF@LogNt@|
	cseleq      x21,x9,x8
	b           |$LN2@GetFailure|
|$LN15@GetFailure|

; 1823 :         case FailureType::FailFast:
; 1824 :             pszType = "FailFast";

	adrp        x8,|??_C@_08IAOKKAJK@FailFast@|
	add         x21,x8,|??_C@_08IAOKKAJK@FailFast@|
|$LN2@GetFailure|

; 1825 :             break;
; 1826 :         }
; 1827 : 
; 1828 :         wchar_t szErrorText[256]{};

	movi        v16.16b,#0

; 1829 :         LONG errorCode = 0;
; 1830 : 
; 1831 :         if (WI_IsFlagSet(failure.flags, FailureFlags::NtStatus))

	ldr         w8,[x23,#4]
	stp         q16,q16,[x26,#0x10]
	stp         q16,q16,[x26,#0x30]
	stp         q16,q16,[x26,#0x50]
	stp         q16,q16,[x26,#0x70]
	stp         q16,q16,[x26,#0x90]
	stp         q16,q16,[x26,#0xB0]
	stp         q16,q16,[x26,#0xD0]
	stp         q16,q16,[x26,#0xF0]
	stp         q16,q16,[x26,#0x110]
	stp         q16,q16,[x26,#0x130]
	stp         q16,q16,[x26,#0x150]
	stp         q16,q16,[x26,#0x170]
	stp         q16,q16,[x26,#0x190]
	stp         q16,q16,[x26,#0x1B0]
	stp         q16,q16,[x26,#0x1D0]
	stp         q16,q16,[x26,#0x1F0]
	tbz         w8,#3,|$LN16@GetFailure|

; 1832 :         {
; 1833 :             errorCode = failure.status;
; 1834 :             if (wil::details::g_pfnFormatNtStatusMsg)

	adrp        x8,|?g_pfnFormatNtStatusMsg@details@wil@@3P6AXJPEA_WK@ZEA|
	ldr         x8,[x8,|?g_pfnFormatNtStatusMsg@details@wil@@3P6AXJPEA_WK@ZEA|]
	ldr         w20,[x23,#0xC]
	cbz         x8,|$LN17@GetFailure|

; 1835 :             {
; 1836 :                 wil::details::g_pfnFormatNtStatusMsg(failure.status, szErrorText, ARRAYSIZE(szErrorText));

	mov         w2,#0x100
	add         x1,x26,#0x10
	mov         w0,w20
	blr         x8

; 1837 :             }
; 1838 :         }

	b           |$LN17@GetFailure|
|$LN16@GetFailure|

; 1839 :         else
; 1840 :         {
; 1841 :             errorCode = failure.hr;
; 1842 :             FormatMessageW(

	adrp        x8,__imp_FormatMessageW
	ldr         x8,[x8,__imp_FormatMessageW]
	ldr         w2,[x23,#8]
	mov         x6,#0
	mov         w5,#0x100
	add         x4,x26,#0x10
	mov         w3,#0x400
	mov         x1,#0
	mov         w0,#0x1200
	mov         w20,w2
	blr         x8
|$LN17@GetFailure|

; 1843 :                 FORMAT_MESSAGE_FROM_SYSTEM | FORMAT_MESSAGE_IGNORE_INSERTS,
; 1844 :                 nullptr,
; 1845 :                 failure.hr,
; 1846 :                 MAKELANGID(LANG_NEUTRAL, SUBLANG_DEFAULT),
; 1847 :                 szErrorText,
; 1848 :                 ARRAYSIZE(szErrorText),
; 1849 :                 nullptr);
; 1850 :         }
; 1851 : 
; 1852 :         // %FILENAME(%LINE): %TYPE(%count) tid(%threadid) %HRESULT %SystemMessage
; 1853 :         //     %Caller_MSG [%CODE(%FUNCTION)]
; 1854 : 
; 1855 :         PWSTR dest = pszDest;
; 1856 :         PCWSTR destEnd = (pszDest + cchDest);
; 1857 : 
; 1858 :         if (failure.pszFile != nullptr)

	ldr         x3,[x23,#0x38]
	add         x1,x25,x24,lsl #1
	mov         x0,x25
	ldp         x5,x4,[x22,#0x80]
	cbz         x3,|$LN19@GetFailure|

; 1859 :         {
; 1860 :             dest = details::LogStringPrintf(

	mov         x6,x4
	ldr         w4,[x23,#0x40]
	adrp        x8,|??_C@_1CC@NCIPMFAO@?$AA?$CF?$AAh?$AAs?$AA?$CI?$AA?$CF?$AAu?$AA?$CJ?$AA?2?$AA?$CF?$AAh?$AAs?$AA?$CB?$AA?$CF?$AAp?$AA?3@|
	add         x2,x8,|??_C@_1CC@NCIPMFAO@?$AA?$CF?$AAh?$AAs?$AA?$CI?$AA?$CF?$AAu?$AA?$CJ?$AA?2?$AA?$CF?$AAh?$AAs?$AA?$CB?$AA?$CF?$AAp?$AA?3@|
	bl          |?LogStringPrintf@details@wil@@YAPEA_WPEA_WPEB_W1ZZ|

; 1861 :                 dest, destEnd, L"%hs(%u)\\%hs!%p: ", failure.pszFile, failure.uLineNumber, failure.pszModule, failure.returnAddress);
; 1862 :         }

	b           |$LN35@GetFailure|
|$LN19@GetFailure|

; 1863 :         else
; 1864 :         {
; 1865 :             dest = details::LogStringPrintf(dest, destEnd, L"%hs!%p: ", failure.pszModule, failure.returnAddress);

	adrp        x8,|??_C@_1BC@HOGHCIFF@?$AA?$CF?$AAh?$AAs?$AA?$CB?$AA?$CF?$AAp?$AA?3?$AA?5@|
	add         x2,x8,|??_C@_1BC@HOGHCIFF@?$AA?$CF?$AAh?$AAs?$AA?$CB?$AA?$CF?$AAp?$AA?3?$AA?5@|
	mov         x3,x5
	bl          |?LogStringPrintf@details@wil@@YAPEA_WPEA_WPEB_W1ZZ|
|$LN35@GetFailure|

; 1866 :         }
; 1867 : 
; 1868 :         if (failure.callerReturnAddress != nullptr)

	ldr         x3,[x23,#0x90]
	mov         x19,x0
	cbz         x3,|$LN21@GetFailure|

; 1869 :         {
; 1870 :             dest = details::LogStringPrintf(dest, destEnd, L"(caller: %p) ", failure.callerReturnAddress);

	adrp        x8,|??_C@_1BM@EAHLIJPA@?$AA?$CI?$AAc?$AAa?$AAl?$AAl?$AAe?$AAr?$AA?3?$AA?5?$AA?$CF?$AAp?$AA?$CJ?$AA?5@|
	add         x2,x8,|??_C@_1BM@EAHLIJPA@?$AA?$CI?$AAc?$AAa?$AAl?$AAl?$AAe?$AAr?$AA?3?$AA?5?$AA?$CF?$AAp?$AA?$CJ?$AA?5@|
	add         x1,x25,x24,lsl #1
	bl          |?LogStringPrintf@details@wil@@YAPEA_WPEA_WPEB_W1ZZ|
	mov         x19,x0
|$LN21@GetFailure|

; 1871 :         }
; 1872 : 
; 1873 :         dest = details::LogStringPrintf(

	adrp        x8,__imp_GetCurrentThreadId
	ldr         x8,[x8,__imp_GetCurrentThreadId]
	blr         x8
	ldr         w4,[x23,#0x44]
	adrp        x8,|??_C@_1DC@MFHOKFOG@?$AA?$CF?$AAh?$AAs?$AA?$CI?$AA?$CF?$AAd?$AA?$CJ?$AA?5?$AAt?$AAi?$AAd?$AA?$CI?$AA?$CF?$AAx?$AA?$CJ@|
	add         x1,x25,x24,lsl #1
	add         x7,x26,#0x10
	mov         w5,w0
	mov         x0,x19
	mov         w6,w20
	mov         x3,x21
	add         x2,x8,|??_C@_1DC@MFHOKFOG@?$AA?$CF?$AAh?$AAs?$AA?$CI?$AA?$CF?$AAd?$AA?$CJ?$AA?5?$AAt?$AAi?$AAd?$AA?$CI?$AA?$CF?$AAx?$AA?$CJ@|
	bl          |?LogStringPrintf@details@wil@@YAPEA_WPEA_WPEB_W1ZZ|

; 1874 :             dest, destEnd, L"%hs(%d) tid(%x) %08X %ws", pszType, failure.cFailureCount, ::GetCurrentThreadId(), errorCode, szErrorText);
; 1875 : 
; 1876 :         if ((failure.pszMessage != nullptr) || (failure.pszCallContext != nullptr) || (failure.pszFunction != nullptr))

	ldr         x8,[x23,#0x18]
	cbnz        x8,|$LN23@GetFailure|
	ldr         x8,[x23,#0x48]
	cbnz        x8,|$LN23@GetFailure|
	ldr         x8,[x23,#0x30]
	cbz         x8,|$LN5@GetFailure|
|$LN23@GetFailure|

; 1877 :         {
; 1878 :             dest = details::LogStringPrintf(dest, destEnd, L"    ");

	adrp        x8,|??_C@_19NMAFMAH@?$AA?5?$AA?5?$AA?5?$AA?5@|
	add         x2,x8,|??_C@_19NMAFMAH@?$AA?5?$AA?5?$AA?5?$AA?5@|
	add         x1,x25,x24,lsl #1
	bl          |?LogStringPrintf@details@wil@@YAPEA_WPEA_WPEB_W1ZZ|

; 1879 :             if (failure.pszMessage != nullptr)

	ldr         x3,[x23,#0x18]
	cbz         x3,|$LN24@GetFailure|

; 1880 :             {
; 1881 :                 dest = details::LogStringPrintf(dest, destEnd, L"Msg:[%ws] ", failure.pszMessage);

	adrp        x8,|??_C@_1BG@MCLOHHAM@?$AAM?$AAs?$AAg?$AA?3?$AA?$FL?$AA?$CF?$AAw?$AAs?$AA?$FN?$AA?5@|
	add         x2,x8,|??_C@_1BG@MCLOHHAM@?$AAM?$AAs?$AAg?$AA?3?$AA?$FL?$AA?$CF?$AAw?$AAs?$AA?$FN?$AA?5@|
	add         x1,x25,x24,lsl #1
	bl          |?LogStringPrintf@details@wil@@YAPEA_WPEA_WPEB_W1ZZ|
|$LN24@GetFailure|

; 1882 :             }
; 1883 :             if (failure.pszCallContext != nullptr)

	ldr         x3,[x23,#0x48]
	cbz         x3,|$LN25@GetFailure|

; 1884 :             {
; 1885 :                 dest = details::LogStringPrintf(dest, destEnd, L"CallContext:[%hs] ", failure.pszCallContext);

	adrp        x8,|??_C@_1CG@CGJKEFKG@?$AAC?$AAa?$AAl?$AAl?$AAC?$AAo?$AAn?$AAt?$AAe?$AAx?$AAt?$AA?3?$AA?$FL?$AA?$CF?$AAh@|
	add         x2,x8,|??_C@_1CG@CGJKEFKG@?$AAC?$AAa?$AAl?$AAl?$AAC?$AAo?$AAn?$AAt?$AAe?$AAx?$AAt?$AA?3?$AA?$FL?$AA?$CF?$AAh@|
	add         x1,x25,x24,lsl #1
	bl          |?LogStringPrintf@details@wil@@YAPEA_WPEA_WPEB_W1ZZ|
|$LN25@GetFailure|

; 1886 :             }
; 1887 : 
; 1888 :             if (failure.pszCode != nullptr)

	ldr         x4,[x23,#0x28]
	add         x1,x25,x24,lsl #1
	ldr         x3,[x22,#0x30]
	cbz         x4,|$LN26@GetFailure|

; 1889 :             {
; 1890 :                 dest = details::LogStringPrintf(dest, destEnd, L"[%hs(%hs)]\n", failure.pszFunction, failure.pszCode);

	adrp        x8,|??_C@_1BI@PKOCHLJN@?$AA?$FL?$AA?$CF?$AAh?$AAs?$AA?$CI?$AA?$CF?$AAh?$AAs?$AA?$CJ?$AA?$FN?$AA?6@|
	add         x2,x8,|??_C@_1BI@PKOCHLJN@?$AA?$FL?$AA?$CF?$AAh?$AAs?$AA?$CI?$AA?$CF?$AAh?$AAs?$AA?$CJ?$AA?$FN?$AA?6@|
	bl          |?LogStringPrintf@details@wil@@YAPEA_WPEA_WPEB_W1ZZ|

; 1891 :             }

	b           |$LN5@GetFailure|
|$LN26@GetFailure|

; 1892 :             else if (failure.pszFunction != nullptr)

	cbz         x3,|$LN28@GetFailure|

; 1893 :             {
; 1894 :                 dest = details::LogStringPrintf(dest, destEnd, L"[%hs]\n", failure.pszFunction);

	adrp        x8,|??_C@_1O@PJKHPDBK@?$AA?$FL?$AA?$CF?$AAh?$AAs?$AA?$FN?$AA?6@|
	add         x2,x8,|??_C@_1O@PJKHPDBK@?$AA?$FL?$AA?$CF?$AAh?$AAs?$AA?$FN?$AA?6@|
	bl          |?LogStringPrintf@details@wil@@YAPEA_WPEA_WPEB_W1ZZ|

; 1895 :             }

	b           |$LN5@GetFailure|
|$LN28@GetFailure|

; 1896 :             else
; 1897 :             {
; 1898 :                 dest = details::LogStringPrintf(dest, destEnd, L"\n");

	adrp        x8,|??_C@_13LBAGMAIH@?$AA?6@|
	add         x2,x8,|??_C@_13LBAGMAIH@?$AA?6@|
	bl          |?LogStringPrintf@details@wil@@YAPEA_WPEA_WPEB_W1ZZ|
|$LN5@GetFailure|

; 1779 :     {
; 1780 :         return S_OK;

	mov         w0,#0
	add         sp,sp,#0x210
	bl          __security_pop_cookie
	ldp         x25,x26,[sp,#0x40]
	ldp         x23,x24,[sp,#0x30]
	ldp         x21,x22,[sp,#0x20]
	ldp         x19,x20,[sp,#0x10]
	ldp         fp,lr,[sp],#0x50
	ret
|__swt|
|$LN40@GetFailure|

; 1796 :     {
; 1797 :         PCSTR pszType = "";
; 1798 :         switch (failure.type)

	DCD         0xfffffff5
|$LN41@GetFailure|
	DCD         0xfffffff8
|$LN42@GetFailure|
	DCD         0x0
|$LN43@GetFailure|
	DCD         0x8

	ENDP  ; |?GetFailureLogString@wil@@YAJPEA_W_KAEBUFailureInfo@1@@Z|, wil::GetFailureLogString

; Function compile flags: /Ogtp
; File G:\Github\microsoft\low-latency-audio\src\uac2-asio\packages\Microsoft.Windows.ImplementationLibrary.1.0.250325.1\include\wil\result_macros.h

	AREA	|.text$mn|, CODE, ARM64

|?FromResult@ResultStatus@details@wil@@SA?AU123@J@Z| PROC ; wil::details::ResultStatus::FromResult

; 1937 :         {

|$LN6|
	stp         fp,lr,[sp,#-0x20]!
	mov         fp,sp

; 1938 :             return {_hr, wil::details::HrToNtStatus(_hr), Kind::HResult};

	str         w0,[sp,#0x10]
	bl          |?HrToNtStatus@details@wil@@YAJJ@Z|
	mov         w1,#0
	str         w0,[sp,#0x14]
	ldr         x0,[sp,#0x10]
	ldp         fp,lr,[sp],#0x20
	ret

	ENDP  ; |?FromResult@ResultStatus@details@wil@@SA?AU123@J@Z|, wil::details::ResultStatus::FromResult

; Function compile flags: /Ogtp
; File G:\Github\microsoft\low-latency-audio\src\uac2-asio\packages\Microsoft.Windows.ImplementationLibrary.1.0.250325.1\include\wil\result_macros.h

	AREA	|.text$mn|, CODE, ARM64

|?FromFailureInfo@ResultStatus@details@wil@@SA?AU123@AEBUFailureInfo@3@@Z| PROC ; wil::details::ResultStatus::FromFailureInfo

; 1945 :         {

|$LN6|
	sub         sp,sp,#0x10

; 1946 :             return {_failure.hr, _failure.status, WI_IsFlagSet(_failure.flags, FailureFlags::NtStatus) ? Kind::NtStatus : Kind::HResult};

	ldp         w8,w9,[x0,#4]
	ldr         w10,[x0,#0xC]
	ubfx        w1,w8,#3,#1
	stp         w9,w10,[sp]
	ldr         x0,[sp]
	add         sp,sp,#0x10
	ret

	ENDP  ; |?FromFailureInfo@ResultStatus@details@wil@@SA?AU123@AEBUFailureInfo@3@@Z|, wil::details::ResultStatus::FromFailureInfo

; Function compile flags: /Ogtp
; File G:\Github\microsoft\low-latency-audio\src\uac2-asio\packages\Microsoft.Windows.ImplementationLibrary.1.0.250325.1\include\wil\result_macros.h

	AREA	|.text$mn|, CODE, ARM64

|??0shared_buffer@details@wil@@QEAA@XZ| PROC		; wil::details::shared_buffer::shared_buffer

; 2249 :         shared_buffer() WI_NOEXCEPT : m_pCopy(nullptr), m_size(0)

	stp         xzr,xzr,[x0]
	ret

	ENDP  ; |??0shared_buffer@details@wil@@QEAA@XZ|, wil::details::shared_buffer::shared_buffer

; Function compile flags: /Ogtp
; File G:\Github\microsoft\low-latency-audio\src\uac2-asio\packages\Microsoft.Windows.ImplementationLibrary.1.0.250325.1\include\wil\result_macros.h

	AREA	|.text$mn|, CODE, ARM64

|??0shared_buffer@details@wil@@QEAA@AEBV012@@Z| PROC	; wil::details::shared_buffer::shared_buffer

; 2254 :         {

|$LN20|
	sub         sp,sp,#0x10
	stp         fp,lr,[sp,#-0x10]!
	mov         fp,sp

; 2253 :         shared_buffer(shared_buffer const& other) WI_NOEXCEPT : m_pCopy(nullptr), m_size(0)

	stp         xzr,xzr,[x0]

; 2255 :             assign(other.m_pCopy, other.m_size);

	ldp         x9,x8,[x1]

; 2363 :             if (pCopy != nullptr)

	cbz         x9,|$LN5@shared_buf|
	str         x19,[sp,#0x10]
	mov         x19,x0

; 2364 :             {
; 2365 :                 m_pCopy = pCopy;

	stp         x9,x8,[x19]

; 2366 :                 m_size = cbSize;
; 2367 :                 ::InterlockedIncrementNoFence(m_pCopy);

	mov         x0,x9
	bl          _InterlockedIncrement_nf
	mov         x0,x19
	ldr         x19,[sp,#0x10]
|$LN5@shared_buf|
	ldp         fp,lr,[sp],#0x10
	add         sp,sp,#0x10
	ret

	ENDP  ; |??0shared_buffer@details@wil@@QEAA@AEBV012@@Z|, wil::details::shared_buffer::shared_buffer

; Function compile flags: /Ogtp
; File G:\Github\microsoft\low-latency-audio\src\uac2-asio\packages\Microsoft.Windows.ImplementationLibrary.1.0.250325.1\include\wil\result_macros.h

	AREA	|.text$mn|, CODE, ARM64

|??1shared_buffer@details@wil@@QEAA@XZ| PROC		; wil::details::shared_buffer::~shared_buffer

; 2265 :         {

|$LN16|

; 2293 :             if (m_pCopy != nullptr)

	ldr         x8,[x0]
	cbz         x8,|$LN5@shared_buf|
	stp         x19,x20,[sp,#-0x10]!
	stp         fp,lr,[sp,#-0x10]!
	mov         fp,sp
	mov         x19,x0
	mov         x0,x8

; 2294 :             {
; 2295 :                 if (0 == ::InterlockedDecrementRelease(m_pCopy))

	bl          _InterlockedDecrement_rel
	cbnz        w0,|$LN6@shared_buf|

; 2296 :                 {
; 2297 :                     WIL_FreeMemory(m_pCopy);

	adrp        x8,__imp_GetProcessHeap
	ldr         x8,[x8,__imp_GetProcessHeap]
	ldr         x20,[x19]
	blr         x8
	adrp        x8,__imp_HeapFree
	ldr         x8,[x8,__imp_HeapFree]
	mov         x2,x20
	mov         w1,#0
	blr         x8
|$LN6@shared_buf|

; 2298 :                 }
; 2299 :                 m_pCopy = nullptr;

	stp         xzr,xzr,[x19]
	ldp         fp,lr,[sp],#0x10
	ldp         x19,x20,[sp],#0x10
|$LN5@shared_buf|
	ret

	ENDP  ; |??1shared_buffer@details@wil@@QEAA@XZ|, wil::details::shared_buffer::~shared_buffer

; Function compile flags: /Ogtp
; File G:\Github\microsoft\low-latency-audio\src\uac2-asio\packages\Microsoft.Windows.ImplementationLibrary.1.0.250325.1\include\wil\result_macros.h

	AREA	|.text$mn|, CODE, ARM64

|?reset@shared_buffer@details@wil@@QEAAXXZ| PROC	; wil::details::shared_buffer::reset

; 2292 :         {

|$LN13|

; 2293 :             if (m_pCopy != nullptr)

	ldr         x8,[x0]
	cbz         x8,|$LN2@reset|
	stp         x19,x20,[sp,#-0x10]!
	stp         fp,lr,[sp,#-0x10]!
	mov         fp,sp
	mov         x19,x0
	mov         x0,x8

; 2294 :             {
; 2295 :                 if (0 == ::InterlockedDecrementRelease(m_pCopy))

	bl          _InterlockedDecrement_rel
	cbnz        w0,|$LN3@reset|

; 2296 :                 {
; 2297 :                     WIL_FreeMemory(m_pCopy);

	adrp        x8,__imp_GetProcessHeap
	ldr         x8,[x8,__imp_GetProcessHeap]
	ldr         x20,[x19]
	blr         x8
	adrp        x8,__imp_HeapFree
	ldr         x8,[x8,__imp_HeapFree]
	mov         x2,x20
	mov         w1,#0
	blr         x8
|$LN3@reset|

; 2298 :                 }
; 2299 :                 m_pCopy = nullptr;

	stp         xzr,xzr,[x19]
	ldp         fp,lr,[sp],#0x10
	ldp         x19,x20,[sp],#0x10
|$LN2@reset|
	ret

	ENDP  ; |?reset@shared_buffer@details@wil@@QEAAXXZ|, wil::details::shared_buffer::reset

; Function compile flags: /Ogtp
; File G:\Github\microsoft\low-latency-audio\src\uac2-asio\packages\Microsoft.Windows.ImplementationLibrary.1.0.250325.1\include\wil\result_macros.h

	AREA	|.text$mn|, CODE, ARM64

|?create@shared_buffer@details@wil@@QEAA_NPEBX_K@Z| PROC ; wil::details::shared_buffer::create

; 2305 :         {

|$LN26|
	stp         x19,x20,[sp,#-0x20]!
	stp         x21,x22,[sp,#0x10]
	stp         fp,lr,[sp,#-0x10]!
	mov         fp,sp
	mov         x21,x0
	mov         x20,x2

; 2306 :             if (cbData == 0)

	cbnz        x20,|$LN2@create|

; 2293 :             if (m_pCopy != nullptr)

	ldr         x0,[x21]
	cbz         x0,|$LN8@create|

; 2294 :             {
; 2295 :                 if (0 == ::InterlockedDecrementRelease(m_pCopy))

	bl          _InterlockedDecrement_rel
	cbnz        w0,|$LN9@create|

; 2296 :                 {
; 2297 :                     WIL_FreeMemory(m_pCopy);

	adrp        x8,__imp_GetProcessHeap
	ldr         x8,[x8,__imp_GetProcessHeap]
	ldr         x19,[x21]
	blr         x8
	adrp        x8,__imp_HeapFree
	ldr         x8,[x8,__imp_HeapFree]
	mov         x2,x19
	mov         w1,#0
	blr         x8
|$LN9@create|

; 2298 :                 }
; 2299 :                 m_pCopy = nullptr;

	stp         xzr,xzr,[x21]

; 2319 :             if (pData != nullptr)
; 2320 :             {
; 2321 :                 memcpy_s(pCopyRefCount + 1, cbData, pData, cbData); // +1 to advance past sizeof(long) counter
; 2322 :             }
; 2323 :             assign(pCopyRefCount, cbData);
; 2324 :             return true;
; 2325 :         }

	mov         w0,#1
	ldp         fp,lr,[sp],#0x10
	ldp         x21,x22,[sp,#0x10]
	ldp         x19,x20,[sp],#0x20
	ret
|$LN2@create|

; 2307 :             {
; 2308 :                 reset();
; 2309 :                 return true;
; 2310 :             }
; 2311 : 
; 2312 :             long* pCopyRefCount = reinterpret_cast<long*>(WIL_AllocateMemory(sizeof(long) + cbData));

	adrp        x8,__imp_GetProcessHeap
	ldr         x8,[x8,__imp_GetProcessHeap]
	blr         x8
	adrp        x8,__imp_HeapAlloc
	ldr         x8,[x8,__imp_HeapAlloc]
	add         x2,x20,#4
	mov         w1,#0
	blr         x8
	mov         x19,x0

; 2313 :             if (pCopyRefCount == nullptr)

	cbnz        x19,|$LN3@create|

; 2314 :             {
; 2315 :                 return false;

	mov         w0,#0
	ldp         fp,lr,[sp],#0x10
	ldp         x21,x22,[sp,#0x10]
	ldp         x19,x20,[sp],#0x20
	ret
|$LN3@create|

; 2316 :             }
; 2317 : 
; 2318 :             *pCopyRefCount = 0;

	str         wzr,[x19]

; 2293 :             if (m_pCopy != nullptr)

	ldr         x0,[x21]
	cbz         x0,|$LN21@create|

; 2294 :             {
; 2295 :                 if (0 == ::InterlockedDecrementRelease(m_pCopy))

	bl          _InterlockedDecrement_rel
	cbnz        w0,|$LN21@create|

; 2296 :                 {
; 2297 :                     WIL_FreeMemory(m_pCopy);

	adrp        x8,__imp_GetProcessHeap
	ldr         x8,[x8,__imp_GetProcessHeap]
	ldr         x22,[x21]
	blr         x8
	adrp        x8,__imp_HeapFree
	ldr         x8,[x8,__imp_HeapFree]
	mov         x2,x22
	mov         w1,#0
	blr         x8
|$LN21@create|

; 2367 :                 ::InterlockedIncrementNoFence(m_pCopy);

	mov         x0,x19
	stp         x19,x20,[x21]
	bl          _InterlockedIncrement_nf
|$LN8@create|

; 2319 :             if (pData != nullptr)
; 2320 :             {
; 2321 :                 memcpy_s(pCopyRefCount + 1, cbData, pData, cbData); // +1 to advance past sizeof(long) counter
; 2322 :             }
; 2323 :             assign(pCopyRefCount, cbData);
; 2324 :             return true;
; 2325 :         }

	mov         w0,#1
	ldp         fp,lr,[sp],#0x10
	ldp         x21,x22,[sp,#0x10]
	ldp         x19,x20,[sp],#0x20
	ret

	ENDP  ; |?create@shared_buffer@details@wil@@QEAA_NPEBX_K@Z|, wil::details::shared_buffer::create

; Function compile flags: /Ogtp
; File G:\Github\microsoft\low-latency-audio\src\uac2-asio\packages\Microsoft.Windows.ImplementationLibrary.1.0.250325.1\include\wil\result_macros.h

	AREA	|.text$mn|, CODE, ARM64

|?create@shared_buffer@details@wil@@QEAA_N_K@Z| PROC	; wil::details::shared_buffer::create

; 2328 :         {

|$LN29|
	stp         x19,x20,[sp,#-0x20]!
	stp         x21,x22,[sp,#0x10]
	stp         fp,lr,[sp,#-0x10]!
	mov         fp,sp
	mov         x21,x0
	mov         x20,x1

; 2306 :             if (cbData == 0)

	cbnz        x20,|$LN5@create|

; 2293 :             if (m_pCopy != nullptr)

	ldr         x0,[x21]
	cbz         x0,|$LN11@create|

; 2294 :             {
; 2295 :                 if (0 == ::InterlockedDecrementRelease(m_pCopy))

	bl          _InterlockedDecrement_rel
	cbnz        w0,|$LN12@create|

; 2296 :                 {
; 2297 :                     WIL_FreeMemory(m_pCopy);

	adrp        x8,__imp_GetProcessHeap
	ldr         x8,[x8,__imp_GetProcessHeap]
	ldr         x19,[x21]
	blr         x8
	adrp        x8,__imp_HeapFree
	ldr         x8,[x8,__imp_HeapFree]
	mov         x2,x19
	mov         w1,#0
	blr         x8
|$LN12@create|

; 2298 :                 }
; 2299 :                 m_pCopy = nullptr;

	stp         xzr,xzr,[x21]

; 2329 :             return create(nullptr, cbData);
; 2330 :         }

	mov         w0,#1
	ldp         fp,lr,[sp],#0x10
	ldp         x21,x22,[sp,#0x10]
	ldp         x19,x20,[sp],#0x20
	ret
|$LN5@create|

; 2312 :             long* pCopyRefCount = reinterpret_cast<long*>(WIL_AllocateMemory(sizeof(long) + cbData));

	adrp        x8,__imp_GetProcessHeap
	ldr         x8,[x8,__imp_GetProcessHeap]
	blr         x8
	adrp        x8,__imp_HeapAlloc
	ldr         x8,[x8,__imp_HeapAlloc]
	add         x2,x20,#4
	mov         w1,#0
	blr         x8
	mov         x19,x0

; 2313 :             if (pCopyRefCount == nullptr)

	cbnz        x19,|$LN6@create|

; 2314 :             {
; 2315 :                 return false;

	mov         w0,#0
	ldp         fp,lr,[sp],#0x10
	ldp         x21,x22,[sp,#0x10]
	ldp         x19,x20,[sp],#0x20
	ret
|$LN6@create|

; 2316 :             }
; 2317 : 
; 2318 :             *pCopyRefCount = 0;

	str         wzr,[x19]

; 2293 :             if (m_pCopy != nullptr)

	ldr         x0,[x21]
	cbz         x0,|$LN24@create|

; 2294 :             {
; 2295 :                 if (0 == ::InterlockedDecrementRelease(m_pCopy))

	bl          _InterlockedDecrement_rel
	cbnz        w0,|$LN24@create|

; 2296 :                 {
; 2297 :                     WIL_FreeMemory(m_pCopy);

	adrp        x8,__imp_GetProcessHeap
	ldr         x8,[x8,__imp_GetProcessHeap]
	ldr         x22,[x21]
	blr         x8
	adrp        x8,__imp_HeapFree
	ldr         x8,[x8,__imp_HeapFree]
	mov         x2,x22
	mov         w1,#0
	blr         x8
|$LN24@create|

; 2367 :                 ::InterlockedIncrementNoFence(m_pCopy);

	mov         x0,x19
	stp         x19,x20,[x21]
	bl          _InterlockedIncrement_nf
|$LN11@create|

; 2329 :             return create(nullptr, cbData);
; 2330 :         }

	mov         w0,#1
	ldp         fp,lr,[sp],#0x10
	ldp         x21,x22,[sp,#0x10]
	ldp         x19,x20,[sp],#0x20
	ret

	ENDP  ; |?create@shared_buffer@details@wil@@QEAA_N_K@Z|, wil::details::shared_buffer::create

; Function compile flags: /Ogtp
; File G:\Github\microsoft\low-latency-audio\src\uac2-asio\packages\Microsoft.Windows.ImplementationLibrary.1.0.250325.1\include\wil\result_macros.h

	AREA	|.text$mn|, CODE, ARM64

|?get@shared_buffer@details@wil@@QEBAPEAXPEA_K@Z| PROC	; wil::details::shared_buffer::get

; 2334 :             if (pSize != nullptr)

	cbz         x1,|$LN11@get|

; 2335 :             {
; 2336 :                 *pSize = m_size;

	ldr         x8,[x0,#8]
	str         x8,[x1]
|$LN11@get|

; 2337 :             }
; 2338 :             return (m_pCopy == nullptr) ? nullptr : (m_pCopy + 1);

	ldr         x9,[x0]
	add         x8,x9,#4
	cmp         x9,#0
	cselne      x0,x8,xzr
	ret

	ENDP  ; |?get@shared_buffer@details@wil@@QEBAPEAXPEA_K@Z|, wil::details::shared_buffer::get

; Function compile flags: /Ogtp
; File G:\Github\microsoft\low-latency-audio\src\uac2-asio\packages\Microsoft.Windows.ImplementationLibrary.1.0.250325.1\include\wil\result_macros.h

	AREA	|.text$mn|, CODE, ARM64

|?size@shared_buffer@details@wil@@QEBA_KXZ| PROC	; wil::details::shared_buffer::size

; 2343 :             return m_size;

	ldr         x0,[x0,#8]
	ret

	ENDP  ; |?size@shared_buffer@details@wil@@QEBA_KXZ|, wil::details::shared_buffer::size

; Function compile flags: /Ogtp
; File G:\Github\microsoft\low-latency-audio\src\uac2-asio\packages\Microsoft.Windows.ImplementationLibrary.1.0.250325.1\include\wil\result_macros.h

	AREA	|.text$mn|, CODE, ARM64

|??Bshared_buffer@details@wil@@QEBA_NXZ| PROC		; wil::details::shared_buffer::operator bool

; 2348 :             return (m_pCopy != nullptr);

	ldr         x8,[x0]
	cmp         x8,#0
	csetne      w0
	ret

	ENDP  ; |??Bshared_buffer@details@wil@@QEBA_NXZ|, wil::details::shared_buffer::operator bool

; Function compile flags: /Ogtp
; File G:\Github\microsoft\low-latency-audio\src\uac2-asio\packages\Microsoft.Windows.ImplementationLibrary.1.0.250325.1\include\wil\result_macros.h

	AREA	|.text$mn|, CODE, ARM64

|?unique@shared_buffer@details@wil@@QEBA_NXZ| PROC	; wil::details::shared_buffer::unique

; 2353 :             return ((m_pCopy != nullptr) && (*m_pCopy == 1));

	ldr         x8,[x0]
	cbz         x8,|$LN3@unique|
	ldr         w8,[x8]
	mov         w0,#1
	cmp         w8,#1
	beq         |$LN4@unique|
|$LN3@unique|
	mov         w0,#0
|$LN4@unique|
	ret

	ENDP  ; |?unique@shared_buffer@details@wil@@QEBA_NXZ|, wil::details::shared_buffer::unique

; Function compile flags: /Ogtp
; File G:\Github\microsoft\low-latency-audio\src\uac2-asio\packages\Microsoft.Windows.ImplementationLibrary.1.0.250325.1\include\wil\result_macros.h

	AREA	|.text$mn|, CODE, ARM64

|?assign@shared_buffer@details@wil@@AEAAXPEAJ_K@Z| PROC	; wil::details::shared_buffer::assign

; 2361 :         {

|$LN15|
	stp         x19,x20,[sp,#-0x20]!
	stp         x21,x22,[sp,#0x10]
	stp         fp,lr,[sp,#-0x10]!
	mov         fp,sp
	mov         x21,x0

; 2293 :             if (m_pCopy != nullptr)

	ldr         x0,[x21]
	mov         x20,x1
	mov         x19,x2
	cbz         x0,|$LN10@assign|

; 2294 :             {
; 2295 :                 if (0 == ::InterlockedDecrementRelease(m_pCopy))

	bl          _InterlockedDecrement_rel
	cbnz        w0,|$LN7@assign|

; 2296 :                 {
; 2297 :                     WIL_FreeMemory(m_pCopy);

	adrp        x8,__imp_GetProcessHeap
	ldr         x8,[x8,__imp_GetProcessHeap]
	ldr         x22,[x21]
	blr         x8
	adrp        x8,__imp_HeapFree
	ldr         x8,[x8,__imp_HeapFree]
	mov         x2,x22
	mov         w1,#0
	blr         x8
|$LN7@assign|

; 2298 :                 }
; 2299 :                 m_pCopy = nullptr;

	stp         xzr,xzr,[x21]
|$LN10@assign|

; 2362 :             reset();
; 2363 :             if (pCopy != nullptr)

	add         x8,x21,#8
	cbz         x20,|$LN2@assign|

; 2364 :             {
; 2365 :                 m_pCopy = pCopy;
; 2366 :                 m_size = cbSize;
; 2367 :                 ::InterlockedIncrementNoFence(m_pCopy);

	mov         x0,x20
	str         x20,[x21]
	str         x19,[x8]
	bl          _InterlockedIncrement_nf
|$LN2@assign|
	ldp         fp,lr,[sp],#0x10
	ldp         x21,x22,[sp,#0x10]
	ldp         x19,x20,[sp],#0x20
	ret

	ENDP  ; |?assign@shared_buffer@details@wil@@AEAAXPEAJ_K@Z|, wil::details::shared_buffer::assign

; Function compile flags: /Ogtp
; File G:\Github\microsoft\low-latency-audio\src\uac2-asio\packages\Microsoft.Windows.ImplementationLibrary.1.0.250325.1\include\wil\result_macros.h

	AREA	|.text$mn|, CODE, ARM64

|?RecordFailFast@details@wil@@YAHJ@Z| PROC		; wil::details::RecordFailFast

; 2552 :         static HRESULT volatile s_hrErrorLast = S_OK;
; 2553 :         s_hrErrorLast = hr;

	adrp        x8,|?s_hrErrorLast@?1??RecordFailFast@details@wil@@YAHJ@Z@4JC|
	str         w0,[x8,|?s_hrErrorLast@?1??RecordFailFast@details@wil@@YAHJ@Z@4JC|]

; 2554 :         return 1;

	mov         w0,#1
	ret

	ENDP  ; |?RecordFailFast@details@wil@@YAHJ@Z|, wil::details::RecordFailFast

; Function compile flags: /Ogtp
; File G:\Github\microsoft\low-latency-audio\src\uac2-asio\packages\Microsoft.Windows.ImplementationLibrary.1.0.250325.1\include\wil\result_macros.h
; File G:\Github\microsoft\low-latency-audio\src\uac2-asio\packages\Microsoft.Windows.ImplementationLibrary.1.0.250325.1\include\wil\common.h
; File G:\Github\microsoft\low-latency-audio\src\uac2-asio\packages\Microsoft.Windows.ImplementationLibrary.1.0.250325.1\include\wil\result_macros.h
; File C:\Program Files (x86)\Windows Kits\10\Include\10.0.26100.0\shared\strsafe.h
; File G:\Github\microsoft\low-latency-audio\src\uac2-asio\packages\Microsoft.Windows.ImplementationLibrary.1.0.250325.1\include\wil\result_macros.h

	AREA	|.text$mn|, CODE, ARM64

|?K32GetModuleInformation@details@wil@@YA_NPEAXPEAIPEAD_K@Z| PROC ; wil::details::K32GetModuleInformation

; 2573 :     {

|$LN56|
	stp         fp,lr,[sp,#-0x30]!
	stp         x19,x20,[sp,#0x10]
	stp         x21,x22,[sp,#0x20]
	mov         fp,sp
	bl          __security_push_cookie
	sub         sp,sp,#0x110
	mov         x21,x0

; 2574 :         HMODULE hModule = nullptr;

	str         xzr,[sp]
	mov         x0,#0
	mov         x22,x1
	mov         x19,x2
	mov         x20,x3

; 2575 :         if (address && !GetModuleHandleExW(

	cbz         x21,|$LN4@K32GetModu|
	adrp        x8,__imp_GetModuleHandleExW
	ldr         x8,[x8,__imp_GetModuleHandleExW]
	mov         x2,sp
	mov         x1,x21
	mov         w0,#6
	blr         x8
	cbnz        w0,|$LN41@K32GetModu|
; File G:\Github\microsoft\low-latency-audio\src\uac2-asio\packages\Microsoft.Windows.ImplementationLibrary.1.0.250325.1\include\wil\common.h

; 645  :     if (outParam != nullptr)

	cbz         x22,|$LN37@K32GetModu|

; 646  :     {
; 647  :         *outParam = val;

	str         wzr,[x22]
; File G:\Github\microsoft\low-latency-audio\src\uac2-asio\packages\Microsoft.Windows.ImplementationLibrary.1.0.250325.1\include\wil\result_macros.h

; 2594 :                 return false;

	b           |$LN1@K32GetModu|
|$LN41@K32GetModu|

; 2575 :         if (address && !GetModuleHandleExW(

	ldr         x0,[sp]
|$LN4@K32GetModu|

; 2576 :                            GET_MODULE_HANDLE_EX_FLAG_FROM_ADDRESS | GET_MODULE_HANDLE_EX_FLAG_UNCHANGED_REFCOUNT,
; 2577 :                            reinterpret_cast<PCWSTR>(address),
; 2578 :                            &hModule))
; 2579 :         {
; 2580 :             assign_to_opt_param(addressOffset, 0U);
; 2581 :             return false;
; 2582 :         }
; 2583 :         if (addressOffset)

	cbz         x22,|$LN5@K32GetModu|

; 2584 :         {
; 2585 :             *addressOffset =

	sub         w8,w21,w0
	cmp         x21,#0
	cselne      w8,w8,wzr
	str         w8,[x22]
|$LN5@K32GetModu|

; 2586 :                 address ? static_cast<unsigned int>(static_cast<unsigned char*>(address) - reinterpret_cast<unsigned char*>(hModule))
; 2587 :                         : 0;
; 2588 :         }
; 2589 :         if (name)

	cbz         x19,|$LN16@K32GetModu|

; 2590 :         {
; 2591 :             char modulePath[MAX_PATH];
; 2592 :             if (!GetModuleFileNameA(hModule, modulePath, ARRAYSIZE(modulePath)))

	adrp        x8,__imp_GetModuleFileNameA
	ldr         x8,[x8,__imp_GetModuleFileNameA]
	mov         w2,#0x104
	add         x1,sp,#8
	blr         x8
	cbnz        w0,|$LN7@K32GetModu|
|$LN37@K32GetModu|

; 2594 :                 return false;

	mov         w0,#0
	b           |$LN1@K32GetModu|
|$LN7@K32GetModu|

; 2595 :             }
; 2596 : 
; 2597 :             PCSTR start = modulePath + strlen(modulePath);

	add         x9,sp,#8
	mov         x8,x9
	ldrsb       w10,[x8]
	cbz         w10,|$LN46@K32GetModu|
|$LL45@K32GetModu|
	ldrsb       w10,[x8,#1]!
	cbnz        w10,|$LL45@K32GetModu|
|$LN46@K32GetModu|
	sub         x9,x8,x9
	add         x8,sp,#8
	add         x8,x9,x8

; 2598 :             while ((start > modulePath) && (*(start - 1) != '\\'))

	add         x9,sp,#8
	cmp         x8,x9
	bls         |$LN49@K32GetModu|
	add         x9,sp,#8
|$LL2@K32GetModu|
	ldursb      w10,[x8,#-1]
	cmp         w10,#0x5C
	beq         |$LN49@K32GetModu|

; 2599 :             {
; 2600 :                 start--;

	sub         x8,x8,#1
	cmp         x8,x9
	bhi         |$LL2@K32GetModu|
|$LN49@K32GetModu|
; File C:\Program Files (x86)\Windows Kits\10\Include\10.0.26100.0\shared\strsafe.h

; 9669 :     if ((cchDest == 0) || (cchDest > cchMax))

	cbz         x20,|$LN16@K32GetModu|
	mov         x9,#0x7FFFFFFF
	cmp         x20,x9
	bls         |$LN36@K32GetModu|

; 557  :         *pszDest = '\0';

	strb        wzr,[x19]
	b           |$LN16@K32GetModu|
|$LN36@K32GetModu|

; 549  :         hr = StringCopyWorkerA(pszDest,

	mov         x9,#0x7FFFFFFE
	sub         x9,x9,x20
	sub         x8,x8,x19
|$LL23@K32GetModu|

; 9916 :     while (cchDest && cchToCopy && (*pszSrc != '\0'))

	add         x10,x9,x20
	cbz         x10,|$LN53@K32GetModu|
	ldrsb       w10,[x8,x19]
	cbz         w10,|$LN53@K32GetModu|

; 9917 :     {
; 9918 :         *pszDest++ = *pszSrc++;

	strb        w10,[x19]
	add         x19,x19,#1

; 9919 :         cchDest--;

	sub         x20,x20,#1
	cbnz        x20,|$LL23@K32GetModu|
|$LN53@K32GetModu|

; 9920 :         cchToCopy--;
; 9921 : 
; 9922 :         cchNewDestLength++;
; 9923 :     }
; 9924 : 
; 9925 :     if (cchDest == 0)
; 9926 :     {
; 9927 :         // we are going to truncate pszDest
; 9928 :         pszDest--;
; 9929 :         cchNewDestLength--;
; 9930 : 
; 9931 :         hr = STRSAFE_E_INSUFFICIENT_BUFFER;
; 9932 :     }
; 9933 : 
; 9934 :     *pszDest = '\0';

	sub         x8,x19,#1
	cmp         x20,#0
	cselne      x8,x19,x8
	strb        wzr,[x8]
|$LN16@K32GetModu|
; File G:\Github\microsoft\low-latency-audio\src\uac2-asio\packages\Microsoft.Windows.ImplementationLibrary.1.0.250325.1\include\wil\result_macros.h

; 2604 :         return true;

	mov         w0,#1
|$LN1@K32GetModu|
	add         sp,sp,#0x110
	bl          __security_pop_cookie
	ldp         x21,x22,[sp,#0x20]
	ldp         x19,x20,[sp,#0x10]
	ldp         fp,lr,[sp],#0x30
	ret

	ENDP  ; |?K32GetModuleInformation@details@wil@@YA_NPEAXPEAIPEAD_K@Z|, wil::details::K32GetModuleInformation

; Function compile flags: /Ogtp
; File G:\Github\microsoft\low-latency-audio\src\uac2-asio\packages\Microsoft.Windows.ImplementationLibrary.1.0.250325.1\include\wil\result_macros.h
; File C:\Program Files (x86)\Windows Kits\10\Include\10.0.26100.0\shared\strsafe.h
; File G:\Github\microsoft\low-latency-audio\src\uac2-asio\packages\Microsoft.Windows.ImplementationLibrary.1.0.250325.1\include\wil\result_macros.h

	AREA	|.text$mn|, CODE, ARM64

|?GetCurrentModuleName@details@wil@@YAPEBDXZ| PROC	; wil::details::GetCurrentModuleName

; 2610 :     {

|$LN59|

; 2611 :         static char s_szModule[64] = {};
; 2612 :         static volatile bool s_fModuleValid = false;
; 2613 :         if (!s_fModuleValid) // Races are acceptable

	adrp        x1,|?s_fModuleValid@?1??GetCurrentModuleName@details@wil@@YAPEBDXZ@4_NC|
	ldrb        w8,[x1,|?s_fModuleValid@?1??GetCurrentModuleName@details@wil@@YAPEBDXZ@4_NC|]
	cmp         w8,#0
	adrp        x8,|?s_szModule@?1??GetCurrentModuleName@details@wil@@YAPEBDXZ@4PADA|
	add         x0,x8,|?s_szModule@?1??GetCurrentModuleName@details@wil@@YAPEBDXZ@4PADA|
	bne         |$LN2@GetCurrent|
	stp         fp,lr,[sp,#-0x20]!
	stp         x19,x20,[sp,#0x10]
	mov         fp,sp
	bl          __security_push_cookie
	sub         sp,sp,#0x110
	mov         x20,x1
	mov         x19,x0

; 2574 :         HMODULE hModule = nullptr;

	str         xzr,[sp]

; 2575 :         if (address && !GetModuleHandleExW(

	mov         x2,sp
	adrp        x8,|?RecordFailFast@details@wil@@YAHJ@Z|
	add         x1,x8,|?RecordFailFast@details@wil@@YAHJ@Z|
	mov         w0,#6
	adrp        x8,__imp_GetModuleHandleExW
	ldr         x8,[x8,__imp_GetModuleHandleExW]
	blr         x8
	cbz         w0,|$LN20@GetCurrent|

; 2576 :                            GET_MODULE_HANDLE_EX_FLAG_FROM_ADDRESS | GET_MODULE_HANDLE_EX_FLAG_UNCHANGED_REFCOUNT,
; 2577 :                            reinterpret_cast<PCWSTR>(address),
; 2578 :                            &hModule))
; 2579 :         {
; 2580 :             assign_to_opt_param(addressOffset, 0U);
; 2581 :             return false;
; 2582 :         }
; 2583 :         if (addressOffset)
; 2584 :         {
; 2585 :             *addressOffset =
; 2586 :                 address ? static_cast<unsigned int>(static_cast<unsigned char*>(address) - reinterpret_cast<unsigned char*>(hModule))
; 2587 :                         : 0;
; 2588 :         }
; 2589 :         if (name)
; 2590 :         {
; 2591 :             char modulePath[MAX_PATH];
; 2592 :             if (!GetModuleFileNameA(hModule, modulePath, ARRAYSIZE(modulePath)))

	adrp        x8,__imp_GetModuleFileNameA
	ldr         x8,[x8,__imp_GetModuleFileNameA]
	ldr         x0,[sp]
	mov         w2,#0x104
	add         x1,sp,#8
	blr         x8
	cbz         w0,|$LN20@GetCurrent|

; 2593 :             {
; 2594 :                 return false;
; 2595 :             }
; 2596 : 
; 2597 :             PCSTR start = modulePath + strlen(modulePath);

	add         x9,sp,#8
	mov         x8,x9
	ldrsb       w10,[x8]
	cbz         w10,|$LN47@GetCurrent|
|$LL46@GetCurrent|
	ldrsb       w10,[x8,#1]!
	cbnz        w10,|$LL46@GetCurrent|
|$LN47@GetCurrent|
	sub         x9,x8,x9
	add         x8,sp,#8
	add         x10,x9,x8

; 2598 :             while ((start > modulePath) && (*(start - 1) != '\\'))

	add         x8,sp,#8
	cmp         x10,x8
	bls         |$LN50@GetCurrent|
	add         x8,sp,#8
|$LL6@GetCurrent|
	ldursb      w9,[x10,#-1]
	cmp         w9,#0x5C
	beq         |$LN50@GetCurrent|

; 2599 :             {
; 2600 :                 start--;

	sub         x10,x10,#1
	cmp         x10,x8
	bhi         |$LL6@GetCurrent|
|$LN50@GetCurrent|
; File C:\Program Files (x86)\Windows Kits\10\Include\10.0.26100.0\shared\strsafe.h

; 549  :         hr = StringCopyWorkerA(pszDest,

	sub         x11,x10,x19
	mov         x10,#0xFFBE
	movk        x10,#0x7FFF,lsl #0x10
	mov         x9,#0x40
	mov         x8,x19
|$LL27@GetCurrent|

; 9916 :     while (cchDest && cchToCopy && (*pszSrc != '\0'))

	add         x12,x9,x10
	cbz         x12,|$LN54@GetCurrent|
	ldrsb       w12,[x11,x8]
	cbz         w12,|$LN54@GetCurrent|

; 9917 :     {
; 9918 :         *pszDest++ = *pszSrc++;

	strb        w12,[x8]
	add         x8,x8,#1

; 9919 :         cchDest--;

	sub         x9,x9,#1
	cbnz        x9,|$LL27@GetCurrent|
|$LN54@GetCurrent|

; 9920 :         cchToCopy--;
; 9921 : 
; 9922 :         cchNewDestLength++;
; 9923 :     }
; 9924 : 
; 9925 :     if (cchDest == 0)
; 9926 :     {
; 9927 :         // we are going to truncate pszDest
; 9928 :         pszDest--;
; 9929 :         cchNewDestLength--;
; 9930 : 
; 9931 :         hr = STRSAFE_E_INSUFFICIENT_BUFFER;
; 9932 :     }
; 9933 : 
; 9934 :     *pszDest = '\0';

	sub         x10,x8,#1
	cmp         x9,#0
	cselne      x8,x8,x10
	strb        wzr,[x8]
|$LN20@GetCurrent|
; File G:\Github\microsoft\low-latency-audio\src\uac2-asio\packages\Microsoft.Windows.ImplementationLibrary.1.0.250325.1\include\wil\result_macros.h

; 2616 :             s_fModuleValid = true;

	mov         w8,#1
	strb        w8,[x20,|?s_fModuleValid@?1??GetCurrentModuleName@details@wil@@YAPEBDXZ@4_NC|]
	mov         x0,x19
	add         sp,sp,#0x110
	bl          __security_pop_cookie
	ldp         x19,x20,[sp,#0x10]
	ldp         fp,lr,[sp],#0x20
|$LN2@GetCurrent|
	ret

	ENDP  ; |?GetCurrentModuleName@details@wil@@YAPEBDXZ|, wil::details::GetCurrentModuleName

; Function compile flags: /Ogtp
; File G:\Github\microsoft\low-latency-audio\src\uac2-asio\packages\Microsoft.Windows.ImplementationLibrary.1.0.250325.1\include\wil\result_macros.h

	AREA	|.text$mn|, CODE, ARM64

|?DebugBreak@details@wil@@YAXXZ| PROC			; wil::details::DebugBreak

; 2623 :     {

|$LN8|
	stp         fp,lr,[sp,#-0x10]!
	mov         fp,sp

; 2624 :         ::DebugBreak();

	adrp        x8,__imp_DebugBreak
	ldr         x8,[x8,__imp_DebugBreak]
	blr         x8
	ldp         fp,lr,[sp],#0x10
	ret

	ENDP  ; |?DebugBreak@details@wil@@YAXXZ|, wil::details::DebugBreak

; Function compile flags: /Ogtp
; File G:\Github\microsoft\low-latency-audio\src\uac2-asio\packages\Microsoft.Windows.ImplementationLibrary.1.0.250325.1\include\wil\result_macros.h

	AREA	|.text$mn|, CODE, ARM64

|?WilDynamicLoadRaiseFailFastException@details@wil@@YAXPEAU_EXCEPTION_RECORD@@PEAU_CONTEXT@@K@Z| PROC ; wil::details::WilDynamicLoadRaiseFailFastException

; 2628 :     {

|$LN14|
	stp         x19,x20,[sp,#-0x20]!
	str         x21,[sp,#0x10]
	stp         fp,lr,[sp,#-0x10]!
	mov         fp,sp
	mov         x21,x0

; 2629 :         auto k32handle = GetModuleHandleW(L"kernelbase.dll");

	adrp        x8,|??_C@_1BO@MFOKJHPK@?$AAk?$AAe?$AAr?$AAn?$AAe?$AAl?$AAb?$AAa?$AAs?$AAe?$AA?4?$AAd?$AAl?$AAl@|
	add         x0,x8,|??_C@_1BO@MFOKJHPK@?$AAk?$AAe?$AAr?$AAn?$AAe?$AAl?$AAb?$AAa?$AAs?$AAe?$AA?4?$AAd?$AAl?$AAl@|
	adrp        x8,__imp_GetModuleHandleW
	ldr         x8,[x8,__imp_GetModuleHandleW]
	mov         x20,x1
	mov         w19,w2
	blr         x8

; 1700 :         return reinterpret_cast<FuncPtr>(reinterpret_cast<void (*)()>(::GetProcAddress(module, procName)));

	adrp        x8,|??_C@_0BH@EEDPADAA@RaiseFailFastException@|
	add         x1,x8,|??_C@_0BH@EEDPADAA@RaiseFailFastException@|
	adrp        x8,__imp_GetProcAddress
	ldr         x8,[x8,__imp_GetProcAddress]
	blr         x8
	mov         x3,x0

; 2630 :         _Analysis_assume_(k32handle != nullptr);
; 2631 :         auto pfnRaiseFailFastException =
; 2632 :             details::GetProcAddress<decltype(WilDynamicLoadRaiseFailFastException)*>(k32handle, "RaiseFailFastException");
; 2633 :         if (pfnRaiseFailFastException)

	cbz         x3,|$LN11@WilDynamic|

; 2634 :         {
; 2635 :             pfnRaiseFailFastException(er, cr, flags);

	mov         w2,w19
	mov         x1,x20
	mov         x0,x21
	blr         x3
|$LN11@WilDynamic|
	ldp         fp,lr,[sp],#0x10
	ldr         x21,[sp,#0x10]
	ldp         x19,x20,[sp],#0x20
	ret

	ENDP  ; |?WilDynamicLoadRaiseFailFastException@details@wil@@YAXPEAU_EXCEPTION_RECORD@@PEAU_CONTEXT@@K@Z|, wil::details::WilDynamicLoadRaiseFailFastException

; Function compile flags: /Ogtp
; File G:\Github\microsoft\low-latency-audio\src\uac2-asio\packages\Microsoft.Windows.ImplementationLibrary.1.0.250325.1\include\wil\result_macros.h

	AREA	|.text$mn|, CODE, ARM64

|?HrToNtStatus@details@wil@@YAJJ@Z| PROC		; wil::details::HrToNtStatus

; 2690 :         // Constants taken from ntstatus.h
; 2691 :         static constexpr NTSTATUS WIL_STATUS_INVALID_PARAMETER = 0xC000000D;
; 2692 :         static constexpr NTSTATUS WIL_STATUS_INTERNAL_ERROR = 0xC00000E5;
; 2693 :         static constexpr NTSTATUS WIL_STATUS_INTEGER_OVERFLOW = 0xC0000095;
; 2694 :         static constexpr NTSTATUS WIL_STATUS_OBJECT_PATH_NOT_FOUND = 0xC000003A;
; 2695 :         static constexpr NTSTATUS WIL_STATUS_OBJECT_NAME_NOT_FOUND = 0xC0000034;
; 2696 :         static constexpr NTSTATUS WIL_STATUS_NOT_IMPLEMENTED = 0xC0000002;
; 2697 :         static constexpr NTSTATUS WIL_STATUS_BUFFER_OVERFLOW = 0x80000005;
; 2698 :         static constexpr NTSTATUS WIL_STATUS_IMPLEMENTATION_LIMIT = 0xC000042B;
; 2699 :         static constexpr NTSTATUS WIL_STATUS_NO_MORE_MATCHES = 0xC0000273;
; 2700 :         static constexpr NTSTATUS WIL_STATUS_ILLEGAL_CHARACTER = 0xC0000161;
; 2701 :         static constexpr NTSTATUS WIL_STATUS_UNDEFINED_CHARACTER = 0xC0000163;
; 2702 :         static constexpr NTSTATUS WIL_STATUS_BUFFER_TOO_SMALL = 0xC0000023;
; 2703 :         static constexpr NTSTATUS WIL_STATUS_DISK_FULL = 0xC000007F;
; 2704 :         static constexpr NTSTATUS WIL_STATUS_OBJECT_NAME_INVALID = 0xC0000033;
; 2705 :         static constexpr NTSTATUS WIL_STATUS_DLL_NOT_FOUND = 0xC0000135;
; 2706 :         static constexpr NTSTATUS WIL_STATUS_REVISION_MISMATCH = 0xC0000059;
; 2707 :         static constexpr NTSTATUS WIL_STATUS_XML_PARSE_ERROR = 0xC000A083;
; 2708 :         static constexpr HRESULT WIL_E_FAIL = 0x80004005;
; 2709 : 
; 2710 :         NTSTATUS status = STATUS_SUCCESS;
; 2711 : 
; 2712 :         switch (hr)

	ldr         w8,|$LN60@HrToNtStat|
	cmp         w0,w8
	bgt         |$LN33@HrToNtStat|
	beq         |$LN12@HrToNtStat|
	ldr         w8,|$LN61@HrToNtStat|
	cmp         w0,w8
	bgt         |$LN34@HrToNtStat|
	beq         |$LN5@HrToNtStat|
	ldr         w8,|$LN62@HrToNtStat|
	cmp         w0,w8
	bgt         |$LN35@HrToNtStat|
	beq         |$LN10@HrToNtStat|
	ldr         w8,|$LN63@HrToNtStat|
	cmp         w0,w8
	beq         |$LN22@HrToNtStat|
	ldr         w8,|$LN64@HrToNtStat|
	cmp         w0,w8
	bne         |$LN25@HrToNtStat|

; 2734 :             break;
; 2735 :         case __HRESULT_FROM_WIN32(ERROR_INVALID_FUNCTION):
; 2736 :             status = WIL_STATUS_NOT_IMPLEMENTED;

	ldr         w0,|$LN65@HrToNtStat|
	ret
|$LN22@HrToNtStat|

; 2767 :             break;
; 2768 :         case WIL_E_FAIL:
; 2769 :             status = STATUS_UNSUCCESSFUL;

	mov         w0,#0xC0000001
	ret
|$LN10@HrToNtStat|

; 2731 :             break;
; 2732 :         case __HRESULT_FROM_WIN32(ERROR_FILE_NOT_FOUND):
; 2733 :             status = WIL_STATUS_OBJECT_NAME_NOT_FOUND;

	ldr         w0,|$LN66@HrToNtStat|
	ret
|$LN35@HrToNtStat|

; 2690 :         // Constants taken from ntstatus.h
; 2691 :         static constexpr NTSTATUS WIL_STATUS_INVALID_PARAMETER = 0xC000000D;
; 2692 :         static constexpr NTSTATUS WIL_STATUS_INTERNAL_ERROR = 0xC00000E5;
; 2693 :         static constexpr NTSTATUS WIL_STATUS_INTEGER_OVERFLOW = 0xC0000095;
; 2694 :         static constexpr NTSTATUS WIL_STATUS_OBJECT_PATH_NOT_FOUND = 0xC000003A;
; 2695 :         static constexpr NTSTATUS WIL_STATUS_OBJECT_NAME_NOT_FOUND = 0xC0000034;
; 2696 :         static constexpr NTSTATUS WIL_STATUS_NOT_IMPLEMENTED = 0xC0000002;
; 2697 :         static constexpr NTSTATUS WIL_STATUS_BUFFER_OVERFLOW = 0x80000005;
; 2698 :         static constexpr NTSTATUS WIL_STATUS_IMPLEMENTATION_LIMIT = 0xC000042B;
; 2699 :         static constexpr NTSTATUS WIL_STATUS_NO_MORE_MATCHES = 0xC0000273;
; 2700 :         static constexpr NTSTATUS WIL_STATUS_ILLEGAL_CHARACTER = 0xC0000161;
; 2701 :         static constexpr NTSTATUS WIL_STATUS_UNDEFINED_CHARACTER = 0xC0000163;
; 2702 :         static constexpr NTSTATUS WIL_STATUS_BUFFER_TOO_SMALL = 0xC0000023;
; 2703 :         static constexpr NTSTATUS WIL_STATUS_DISK_FULL = 0xC000007F;
; 2704 :         static constexpr NTSTATUS WIL_STATUS_OBJECT_NAME_INVALID = 0xC0000033;
; 2705 :         static constexpr NTSTATUS WIL_STATUS_DLL_NOT_FOUND = 0xC0000135;
; 2706 :         static constexpr NTSTATUS WIL_STATUS_REVISION_MISMATCH = 0xC0000059;
; 2707 :         static constexpr NTSTATUS WIL_STATUS_XML_PARSE_ERROR = 0xC000A083;
; 2708 :         static constexpr HRESULT WIL_E_FAIL = 0x80004005;
; 2709 : 
; 2710 :         NTSTATUS status = STATUS_SUCCESS;
; 2711 : 
; 2712 :         switch (hr)

	ldr         w8,|$LN67@HrToNtStat|
	cmp         w0,w8
	beq         |$LN9@HrToNtStat|
	ldr         w8,|$LN68@HrToNtStat|
	cmp         w0,w8
	bne         |$LN25@HrToNtStat|

; 2719 :             break;
; 2720 :         case __HRESULT_FROM_WIN32(ERROR_INTERNAL_ERROR):
; 2721 :             status = WIL_STATUS_INTERNAL_ERROR;
; 2722 :             break;
; 2723 :         case E_OUTOFMEMORY:
; 2724 :             status = STATUS_NO_MEMORY;

	ldr         w0,|$LN69@HrToNtStat|
	ret
|$LN9@HrToNtStat|

; 2728 :             break;
; 2729 :         case __HRESULT_FROM_WIN32(ERROR_PATH_NOT_FOUND):
; 2730 :             status = WIL_STATUS_OBJECT_PATH_NOT_FOUND;

	ldr         w0,|$LN70@HrToNtStat|
	ret
|$LN5@HrToNtStat|

; 2716 :             break;
; 2717 :         case E_INVALIDARG:
; 2718 :             status = WIL_STATUS_INVALID_PARAMETER;

	ldr         w0,|$LN71@HrToNtStat|
	ret
|$LN34@HrToNtStat|

; 2690 :         // Constants taken from ntstatus.h
; 2691 :         static constexpr NTSTATUS WIL_STATUS_INVALID_PARAMETER = 0xC000000D;
; 2692 :         static constexpr NTSTATUS WIL_STATUS_INTERNAL_ERROR = 0xC00000E5;
; 2693 :         static constexpr NTSTATUS WIL_STATUS_INTEGER_OVERFLOW = 0xC0000095;
; 2694 :         static constexpr NTSTATUS WIL_STATUS_OBJECT_PATH_NOT_FOUND = 0xC000003A;
; 2695 :         static constexpr NTSTATUS WIL_STATUS_OBJECT_NAME_NOT_FOUND = 0xC0000034;
; 2696 :         static constexpr NTSTATUS WIL_STATUS_NOT_IMPLEMENTED = 0xC0000002;
; 2697 :         static constexpr NTSTATUS WIL_STATUS_BUFFER_OVERFLOW = 0x80000005;
; 2698 :         static constexpr NTSTATUS WIL_STATUS_IMPLEMENTATION_LIMIT = 0xC000042B;
; 2699 :         static constexpr NTSTATUS WIL_STATUS_NO_MORE_MATCHES = 0xC0000273;
; 2700 :         static constexpr NTSTATUS WIL_STATUS_ILLEGAL_CHARACTER = 0xC0000161;
; 2701 :         static constexpr NTSTATUS WIL_STATUS_UNDEFINED_CHARACTER = 0xC0000163;
; 2702 :         static constexpr NTSTATUS WIL_STATUS_BUFFER_TOO_SMALL = 0xC0000023;
; 2703 :         static constexpr NTSTATUS WIL_STATUS_DISK_FULL = 0xC000007F;
; 2704 :         static constexpr NTSTATUS WIL_STATUS_OBJECT_NAME_INVALID = 0xC0000033;
; 2705 :         static constexpr NTSTATUS WIL_STATUS_DLL_NOT_FOUND = 0xC0000135;
; 2706 :         static constexpr NTSTATUS WIL_STATUS_REVISION_MISMATCH = 0xC0000059;
; 2707 :         static constexpr NTSTATUS WIL_STATUS_XML_PARSE_ERROR = 0xC000A083;
; 2708 :         static constexpr HRESULT WIL_E_FAIL = 0x80004005;
; 2709 : 
; 2710 :         NTSTATUS status = STATUS_SUCCESS;
; 2711 : 
; 2712 :         switch (hr)

	mov         w8,#0xFF90
	movk        w8,#0x7FF8,lsl #0x10
	add         w10,w0,w8
	cmp         w10,#0xE
	bhi         |$LN25@HrToNtStat|
	adr         x9,__swt
	ldrsb       x8,[x9,w10 uxtw #0]
	add         x8,x9,x8,lsl #2
	br          x8
|$LN17@HrToNtStat|

; 2752 :             break;
; 2753 :         case __HRESULT_FROM_WIN32(ERROR_INSUFFICIENT_BUFFER):
; 2754 :             status = WIL_STATUS_BUFFER_TOO_SMALL;

	ldr         w0,|$LN72@HrToNtStat|
	ret
|$LN18@HrToNtStat|

; 2755 :             break;
; 2756 :         case __HRESULT_FROM_WIN32(ERROR_DISK_FULL):
; 2757 :             status = WIL_STATUS_DISK_FULL;

	mov         w0,#0xC000007F
	ret
|$LN19@HrToNtStat|

; 2758 :             break;
; 2759 :         case __HRESULT_FROM_WIN32(ERROR_INVALID_NAME):
; 2760 :             status = WIL_STATUS_OBJECT_NAME_INVALID;

	ldr         w0,|$LN73@HrToNtStat|
	ret
|$LN20@HrToNtStat|

; 2761 :             break;
; 2762 :         case __HRESULT_FROM_WIN32(ERROR_MOD_NOT_FOUND):
; 2763 :             status = WIL_STATUS_DLL_NOT_FOUND;

	ldr         w0,|$LN74@HrToNtStat|
	ret
|$LN12@HrToNtStat|

; 2737 :             break;
; 2738 :         case __HRESULT_FROM_WIN32(ERROR_MORE_DATA):
; 2739 :             status = WIL_STATUS_BUFFER_OVERFLOW;

	ldr         w0,|$LN75@HrToNtStat|
	ret
|$LN33@HrToNtStat|

; 2690 :         // Constants taken from ntstatus.h
; 2691 :         static constexpr NTSTATUS WIL_STATUS_INVALID_PARAMETER = 0xC000000D;
; 2692 :         static constexpr NTSTATUS WIL_STATUS_INTERNAL_ERROR = 0xC00000E5;
; 2693 :         static constexpr NTSTATUS WIL_STATUS_INTEGER_OVERFLOW = 0xC0000095;
; 2694 :         static constexpr NTSTATUS WIL_STATUS_OBJECT_PATH_NOT_FOUND = 0xC000003A;
; 2695 :         static constexpr NTSTATUS WIL_STATUS_OBJECT_NAME_NOT_FOUND = 0xC0000034;
; 2696 :         static constexpr NTSTATUS WIL_STATUS_NOT_IMPLEMENTED = 0xC0000002;
; 2697 :         static constexpr NTSTATUS WIL_STATUS_BUFFER_OVERFLOW = 0x80000005;
; 2698 :         static constexpr NTSTATUS WIL_STATUS_IMPLEMENTATION_LIMIT = 0xC000042B;
; 2699 :         static constexpr NTSTATUS WIL_STATUS_NO_MORE_MATCHES = 0xC0000273;
; 2700 :         static constexpr NTSTATUS WIL_STATUS_ILLEGAL_CHARACTER = 0xC0000161;
; 2701 :         static constexpr NTSTATUS WIL_STATUS_UNDEFINED_CHARACTER = 0xC0000163;
; 2702 :         static constexpr NTSTATUS WIL_STATUS_BUFFER_TOO_SMALL = 0xC0000023;
; 2703 :         static constexpr NTSTATUS WIL_STATUS_DISK_FULL = 0xC000007F;
; 2704 :         static constexpr NTSTATUS WIL_STATUS_OBJECT_NAME_INVALID = 0xC0000033;
; 2705 :         static constexpr NTSTATUS WIL_STATUS_DLL_NOT_FOUND = 0xC0000135;
; 2706 :         static constexpr NTSTATUS WIL_STATUS_REVISION_MISMATCH = 0xC0000059;
; 2707 :         static constexpr NTSTATUS WIL_STATUS_XML_PARSE_ERROR = 0xC000A083;
; 2708 :         static constexpr HRESULT WIL_E_FAIL = 0x80004005;
; 2709 : 
; 2710 :         NTSTATUS status = STATUS_SUCCESS;
; 2711 : 
; 2712 :         switch (hr)

	ldr         w8,|$LN76@HrToNtStat|
	cmp         w0,w8
	bgt         |$LN36@HrToNtStat|
	beq         |$LN21@HrToNtStat|
	ldr         w8,|$LN77@HrToNtStat|
	cmp         w0,w8
	bgt         |$LN37@HrToNtStat|
	beq         |$LN15@HrToNtStat|
	ldr         w8,|$LN78@HrToNtStat|
	cmp         w0,w8
	beq         |$LN8@HrToNtStat|
	ldr         w8,|$LN79@HrToNtStat|
	cmp         w0,w8
	bne         |$LN25@HrToNtStat|

; 2773 :             break;
; 2774 :         case __HRESULT_FROM_WIN32(ERROR_UNHANDLED_EXCEPTION):
; 2775 :             status = STATUS_NONCONTINUABLE_EXCEPTION;

	ldr         w0,|$LN80@HrToNtStat|
	ret
|$LN8@HrToNtStat|

; 2725 :             break;
; 2726 :         case __HRESULT_FROM_WIN32(ERROR_ARITHMETIC_OVERFLOW):
; 2727 :             status = WIL_STATUS_INTEGER_OVERFLOW;

	ldr         w0,|$LN81@HrToNtStat|
	ret
|$LN15@HrToNtStat|

; 2746 :             break;
; 2747 :         case __HRESULT_FROM_WIN32(ERROR_ILLEGAL_CHARACTER):
; 2748 :             status = WIL_STATUS_ILLEGAL_CHARACTER;

	ldr         w0,|$LN82@HrToNtStat|
	ret
|$LN37@HrToNtStat|

; 2690 :         // Constants taken from ntstatus.h
; 2691 :         static constexpr NTSTATUS WIL_STATUS_INVALID_PARAMETER = 0xC000000D;
; 2692 :         static constexpr NTSTATUS WIL_STATUS_INTERNAL_ERROR = 0xC00000E5;
; 2693 :         static constexpr NTSTATUS WIL_STATUS_INTEGER_OVERFLOW = 0xC0000095;
; 2694 :         static constexpr NTSTATUS WIL_STATUS_OBJECT_PATH_NOT_FOUND = 0xC000003A;
; 2695 :         static constexpr NTSTATUS WIL_STATUS_OBJECT_NAME_NOT_FOUND = 0xC0000034;
; 2696 :         static constexpr NTSTATUS WIL_STATUS_NOT_IMPLEMENTED = 0xC0000002;
; 2697 :         static constexpr NTSTATUS WIL_STATUS_BUFFER_OVERFLOW = 0x80000005;
; 2698 :         static constexpr NTSTATUS WIL_STATUS_IMPLEMENTATION_LIMIT = 0xC000042B;
; 2699 :         static constexpr NTSTATUS WIL_STATUS_NO_MORE_MATCHES = 0xC0000273;
; 2700 :         static constexpr NTSTATUS WIL_STATUS_ILLEGAL_CHARACTER = 0xC0000161;
; 2701 :         static constexpr NTSTATUS WIL_STATUS_UNDEFINED_CHARACTER = 0xC0000163;
; 2702 :         static constexpr NTSTATUS WIL_STATUS_BUFFER_TOO_SMALL = 0xC0000023;
; 2703 :         static constexpr NTSTATUS WIL_STATUS_DISK_FULL = 0xC000007F;
; 2704 :         static constexpr NTSTATUS WIL_STATUS_OBJECT_NAME_INVALID = 0xC0000033;
; 2705 :         static constexpr NTSTATUS WIL_STATUS_DLL_NOT_FOUND = 0xC0000135;
; 2706 :         static constexpr NTSTATUS WIL_STATUS_REVISION_MISMATCH = 0xC0000059;
; 2707 :         static constexpr NTSTATUS WIL_STATUS_XML_PARSE_ERROR = 0xC000A083;
; 2708 :         static constexpr HRESULT WIL_E_FAIL = 0x80004005;
; 2709 : 
; 2710 :         NTSTATUS status = STATUS_SUCCESS;
; 2711 : 
; 2712 :         switch (hr)

	ldr         w8,|$LN83@HrToNtStat|
	cmp         w0,w8
	beq         |$LN16@HrToNtStat|
	ldr         w8,|$LN84@HrToNtStat|
	cmp         w0,w8
	bne         |$LN25@HrToNtStat|

; 2743 :             break;
; 2744 :         case __HRESULT_FROM_WIN32(ERROR_NO_MORE_MATCHES):
; 2745 :             status = WIL_STATUS_NO_MORE_MATCHES;

	ldr         w0,|$LN85@HrToNtStat|
	ret
|$LN16@HrToNtStat|

; 2749 :             break;
; 2750 :         case __HRESULT_FROM_WIN32(ERROR_UNDEFINED_CHARACTER):
; 2751 :             status = WIL_STATUS_UNDEFINED_CHARACTER;

	ldr         w0,|$LN86@HrToNtStat|
	ret
|$LN21@HrToNtStat|

; 2764 :             break;
; 2765 :         case __HRESULT_FROM_WIN32(ERROR_OLD_WIN_VERSION):
; 2766 :             status = WIL_STATUS_REVISION_MISMATCH;

	ldr         w0,|$LN87@HrToNtStat|
	ret
|$LN36@HrToNtStat|

; 2690 :         // Constants taken from ntstatus.h
; 2691 :         static constexpr NTSTATUS WIL_STATUS_INVALID_PARAMETER = 0xC000000D;
; 2692 :         static constexpr NTSTATUS WIL_STATUS_INTERNAL_ERROR = 0xC00000E5;
; 2693 :         static constexpr NTSTATUS WIL_STATUS_INTEGER_OVERFLOW = 0xC0000095;
; 2694 :         static constexpr NTSTATUS WIL_STATUS_OBJECT_PATH_NOT_FOUND = 0xC000003A;
; 2695 :         static constexpr NTSTATUS WIL_STATUS_OBJECT_NAME_NOT_FOUND = 0xC0000034;
; 2696 :         static constexpr NTSTATUS WIL_STATUS_NOT_IMPLEMENTED = 0xC0000002;
; 2697 :         static constexpr NTSTATUS WIL_STATUS_BUFFER_OVERFLOW = 0x80000005;
; 2698 :         static constexpr NTSTATUS WIL_STATUS_IMPLEMENTATION_LIMIT = 0xC000042B;
; 2699 :         static constexpr NTSTATUS WIL_STATUS_NO_MORE_MATCHES = 0xC0000273;
; 2700 :         static constexpr NTSTATUS WIL_STATUS_ILLEGAL_CHARACTER = 0xC0000161;
; 2701 :         static constexpr NTSTATUS WIL_STATUS_UNDEFINED_CHARACTER = 0xC0000163;
; 2702 :         static constexpr NTSTATUS WIL_STATUS_BUFFER_TOO_SMALL = 0xC0000023;
; 2703 :         static constexpr NTSTATUS WIL_STATUS_DISK_FULL = 0xC000007F;
; 2704 :         static constexpr NTSTATUS WIL_STATUS_OBJECT_NAME_INVALID = 0xC0000033;
; 2705 :         static constexpr NTSTATUS WIL_STATUS_DLL_NOT_FOUND = 0xC0000135;
; 2706 :         static constexpr NTSTATUS WIL_STATUS_REVISION_MISMATCH = 0xC0000059;
; 2707 :         static constexpr NTSTATUS WIL_STATUS_XML_PARSE_ERROR = 0xC000A083;
; 2708 :         static constexpr HRESULT WIL_E_FAIL = 0x80004005;
; 2709 : 
; 2710 :         NTSTATUS status = STATUS_SUCCESS;
; 2711 : 
; 2712 :         switch (hr)

	ldr         w8,|$LN88@HrToNtStat|
	cmp         w0,w8
	bgt         |$LN38@HrToNtStat|
	beq         |$LN23@HrToNtStat|
	ldr         w8,|$LN89@HrToNtStat|
	cmp         w0,w8
	beq         |$LN13@HrToNtStat|
	ldr         w8,|$LN90@HrToNtStat|
	cmp         w0,w8
	bne         |$LN25@HrToNtStat|
|$LN30@HrToNtStat|

; 2789 :                     ((NTSTATUS)(hr) <= 0 ? ((NTSTATUS)(hr))
; 2790 :                                          : ((NTSTATUS)(((hr) & 0x0000FFFF) | (FACILITY_SSPI << 16) | ERROR_SEVERITY_ERROR)));
; 2791 :             }
; 2792 :             else
; 2793 :             {
; 2794 :                 status = WIL_STATUS_INTERNAL_ERROR;
; 2795 :             }
; 2796 :             break;
; 2797 :         }
; 2798 :         return status;
; 2799 :     }

	ldr         w0,|$LN91@HrToNtStat|
	ret
|$LN13@HrToNtStat|

; 2740 :             break;
; 2741 :         case __HRESULT_FROM_WIN32(ERROR_IMPLEMENTATION_LIMIT):
; 2742 :             status = WIL_STATUS_IMPLEMENTATION_LIMIT;

	ldr         w0,|$LN92@HrToNtStat|
	ret
|$LN23@HrToNtStat|

; 2770 :             break;
; 2771 :         case __HRESULT_FROM_WIN32(ERROR_XML_PARSE_ERROR):
; 2772 :             status = WIL_STATUS_XML_PARSE_ERROR;

	ldr         w0,|$LN93@HrToNtStat|
	ret
|$LN38@HrToNtStat|

; 2690 :         // Constants taken from ntstatus.h
; 2691 :         static constexpr NTSTATUS WIL_STATUS_INVALID_PARAMETER = 0xC000000D;
; 2692 :         static constexpr NTSTATUS WIL_STATUS_INTERNAL_ERROR = 0xC00000E5;
; 2693 :         static constexpr NTSTATUS WIL_STATUS_INTEGER_OVERFLOW = 0xC0000095;
; 2694 :         static constexpr NTSTATUS WIL_STATUS_OBJECT_PATH_NOT_FOUND = 0xC000003A;
; 2695 :         static constexpr NTSTATUS WIL_STATUS_OBJECT_NAME_NOT_FOUND = 0xC0000034;
; 2696 :         static constexpr NTSTATUS WIL_STATUS_NOT_IMPLEMENTED = 0xC0000002;
; 2697 :         static constexpr NTSTATUS WIL_STATUS_BUFFER_OVERFLOW = 0x80000005;
; 2698 :         static constexpr NTSTATUS WIL_STATUS_IMPLEMENTATION_LIMIT = 0xC000042B;
; 2699 :         static constexpr NTSTATUS WIL_STATUS_NO_MORE_MATCHES = 0xC0000273;
; 2700 :         static constexpr NTSTATUS WIL_STATUS_ILLEGAL_CHARACTER = 0xC0000161;
; 2701 :         static constexpr NTSTATUS WIL_STATUS_UNDEFINED_CHARACTER = 0xC0000163;
; 2702 :         static constexpr NTSTATUS WIL_STATUS_BUFFER_TOO_SMALL = 0xC0000023;
; 2703 :         static constexpr NTSTATUS WIL_STATUS_DISK_FULL = 0xC000007F;
; 2704 :         static constexpr NTSTATUS WIL_STATUS_OBJECT_NAME_INVALID = 0xC0000033;
; 2705 :         static constexpr NTSTATUS WIL_STATUS_DLL_NOT_FOUND = 0xC0000135;
; 2706 :         static constexpr NTSTATUS WIL_STATUS_REVISION_MISMATCH = 0xC0000059;
; 2707 :         static constexpr NTSTATUS WIL_STATUS_XML_PARSE_ERROR = 0xC000A083;
; 2708 :         static constexpr HRESULT WIL_E_FAIL = 0x80004005;
; 2709 : 
; 2710 :         NTSTATUS status = STATUS_SUCCESS;
; 2711 : 
; 2712 :         switch (hr)

	cbz         w0,|$LN4@HrToNtStat|
|$LN25@HrToNtStat|

; 2776 :             break;
; 2777 :         default:
; 2778 :             if ((hr & FACILITY_NT_BIT) != 0)

	tbz         w0,#0x1C,|$LN26@HrToNtStat|

; 2779 :             {
; 2780 :                 status = (hr & ~FACILITY_NT_BIT);

	and         w0,w0,#0xEFFFFFFF
	ret
|$LN26@HrToNtStat|

; 2781 :             }
; 2782 :             else if (HRESULT_FACILITY(hr) == FACILITY_WIN32)

	and         w8,w0,#0x1FFF0000
	cmp         w8,#0x70,lsl #0xC
	bne         |$LN28@HrToNtStat|

; 2783 :             {
; 2784 :                 status = __NTSTATUS_FROM_WIN32(HRESULT_CODE(hr));

	and         w9,w0,#0xFFFF
	mov         w8,#0xC0070000
	orr         w8,w9,w8
	cmp         w9,#0
	csells      w0,w9,w8
	ret
|$LN28@HrToNtStat|

; 2785 :             }
; 2786 :             else if (HRESULT_FACILITY(hr) == FACILITY_SSPI)

	and         w8,w0,#0x1FFF0000
	cmp         w8,#0x90,lsl #0xC
	bne         |$LN30@HrToNtStat|

; 2787 :             {
; 2788 :                 status =

	and         w9,w0,#0xFFFF
	mov         w8,#0xC0090000
	orr         w8,w9,w8
	cmp         w0,#0
	cselle      w0,w0,w8
	ret
|$LN4@HrToNtStat|

; 2713 :         {
; 2714 :         case S_OK:
; 2715 :             status = STATUS_SUCCESS;

	mov         w0,#0
	ret
|__swt|
|$LN45@HrToNtStat|

; 2690 :         // Constants taken from ntstatus.h
; 2691 :         static constexpr NTSTATUS WIL_STATUS_INVALID_PARAMETER = 0xC000000D;
; 2692 :         static constexpr NTSTATUS WIL_STATUS_INTERNAL_ERROR = 0xC00000E5;
; 2693 :         static constexpr NTSTATUS WIL_STATUS_INTEGER_OVERFLOW = 0xC0000095;
; 2694 :         static constexpr NTSTATUS WIL_STATUS_OBJECT_PATH_NOT_FOUND = 0xC000003A;
; 2695 :         static constexpr NTSTATUS WIL_STATUS_OBJECT_NAME_NOT_FOUND = 0xC0000034;
; 2696 :         static constexpr NTSTATUS WIL_STATUS_NOT_IMPLEMENTED = 0xC0000002;
; 2697 :         static constexpr NTSTATUS WIL_STATUS_BUFFER_OVERFLOW = 0x80000005;
; 2698 :         static constexpr NTSTATUS WIL_STATUS_IMPLEMENTATION_LIMIT = 0xC000042B;
; 2699 :         static constexpr NTSTATUS WIL_STATUS_NO_MORE_MATCHES = 0xC0000273;
; 2700 :         static constexpr NTSTATUS WIL_STATUS_ILLEGAL_CHARACTER = 0xC0000161;
; 2701 :         static constexpr NTSTATUS WIL_STATUS_UNDEFINED_CHARACTER = 0xC0000163;
; 2702 :         static constexpr NTSTATUS WIL_STATUS_BUFFER_TOO_SMALL = 0xC0000023;
; 2703 :         static constexpr NTSTATUS WIL_STATUS_DISK_FULL = 0xC000007F;
; 2704 :         static constexpr NTSTATUS WIL_STATUS_OBJECT_NAME_INVALID = 0xC0000033;
; 2705 :         static constexpr NTSTATUS WIL_STATUS_DLL_NOT_FOUND = 0xC0000135;
; 2706 :         static constexpr NTSTATUS WIL_STATUS_REVISION_MISMATCH = 0xC0000059;
; 2707 :         static constexpr NTSTATUS WIL_STATUS_XML_PARSE_ERROR = 0xC000A083;
; 2708 :         static constexpr HRESULT WIL_E_FAIL = 0x80004005;
; 2709 : 
; 2710 :         NTSTATUS status = STATUS_SUCCESS;
; 2711 : 
; 2712 :         switch (hr)

	DCB         0xb0
|$LN46@HrToNtStat|
	DCB         0xe9
|$LN47@HrToNtStat|
	DCB         0xe9
|$LN48@HrToNtStat|
	DCB         0xe9
|$LN49@HrToNtStat|
	DCB         0xe9
|$LN50@HrToNtStat|
	DCB         0xe9
|$LN51@HrToNtStat|
	DCB         0xe9
|$LN52@HrToNtStat|
	DCB         0xe9
|$LN53@HrToNtStat|
	DCB         0xe9
|$LN54@HrToNtStat|
	DCB         0xe9
|$LN55@HrToNtStat|
	DCB         0xae
|$LN56@HrToNtStat|
	DCB         0xb2
|$LN57@HrToNtStat|
	DCB         0xe9
|$LN58@HrToNtStat|
	DCB         0xe9
|$LN59@HrToNtStat|
	DCB         0xb4
|$LN94@HrToNtStat|
	DCB         0xb4
	nop
|$LN60@HrToNtStat|
	DCD         0x800700ea
|$LN61@HrToNtStat|
	DCD         0x80070057
|$LN62@HrToNtStat|
	DCD         0x80070002
|$LN63@HrToNtStat|
	DCD         0x80004005
|$LN64@HrToNtStat|
	DCD         0x80070001
|$LN65@HrToNtStat|
	DCD         0xc0000002
|$LN66@HrToNtStat|
	DCD         0xc0000034
|$LN67@HrToNtStat|
	DCD         0x80070003
|$LN68@HrToNtStat|
	DCD         0x8007000e
|$LN69@HrToNtStat|
	DCD         0xc0000017
|$LN70@HrToNtStat|
	DCD         0xc000003a
|$LN71@HrToNtStat|
	DCD         0xc000000d
|$LN72@HrToNtStat|
	DCD         0xc0000023
|$LN73@HrToNtStat|
	DCD         0xc0000033
|$LN74@HrToNtStat|
	DCD         0xc0000135
|$LN75@HrToNtStat|
	DCD         0x80000005
|$LN76@HrToNtStat|
	DCD         0x8007047e
|$LN77@HrToNtStat|
	DCD         0x80070246
|$LN78@HrToNtStat|
	DCD         0x80070216
|$LN79@HrToNtStat|
	DCD         0x8007023e
|$LN80@HrToNtStat|
	DCD         0xc0000025
|$LN81@HrToNtStat|
	DCD         0xc0000095
|$LN82@HrToNtStat|
	DCD         0xc0000161
|$LN83@HrToNtStat|
	DCD         0x80070247
|$LN84@HrToNtStat|
	DCD         0x80070272
|$LN85@HrToNtStat|
	DCD         0xc0000273
|$LN86@HrToNtStat|
	DCD         0xc0000163
|$LN87@HrToNtStat|
	DCD         0xc0000059
|$LN88@HrToNtStat|
	DCD         0x800705b9
|$LN89@HrToNtStat|
	DCD         0x8007050c
|$LN90@HrToNtStat|
	DCD         0x8007054f
|$LN91@HrToNtStat|
	DCD         0xc00000e5
|$LN92@HrToNtStat|
	DCD         0xc000042b
|$LN93@HrToNtStat|
	DCD         0xc000a083

	ENDP  ; |?HrToNtStatus@details@wil@@YAJJ@Z|, wil::details::HrToNtStatus

; Function compile flags: /Ogtp
; File G:\Github\microsoft\low-latency-audio\src\uac2-asio\packages\Microsoft.Windows.ImplementationLibrary.1.0.250325.1\include\wil\result_macros.h

	AREA	|.text$mn|, CODE, ARM64

|?ResultStringSize@details@wil@@YA_KPEBD@Z| PROC	; wil::details::ResultStringSize

; 3018 :         return (psz == nullptr) ? sizeof(char) : (strlen(psz) + sizeof(char));

	cbnz        x0,|$LN3@ResultStri|
	mov         x0,#1
	ret
|$LN3@ResultStri|
	mov         x8,x0
	ldrsb       w9,[x8]
	cbz         w9,|$LN11@ResultStri|
|$LL10@ResultStri|
	ldrsb       w9,[x8,#1]!
	cbnz        w9,|$LL10@ResultStri|
|$LN11@ResultStri|
	sub         x8,x8,x0
	add         x0,x8,#1
	ret

	ENDP  ; |?ResultStringSize@details@wil@@YA_KPEBD@Z|, wil::details::ResultStringSize

; Function compile flags: /Ogtp
; File G:\Github\microsoft\low-latency-audio\src\uac2-asio\packages\Microsoft.Windows.ImplementationLibrary.1.0.250325.1\include\wil\result_macros.h

	AREA	|.text$mn|, CODE, ARM64

|?ResultStringSize@details@wil@@YA_KPEB_W@Z| PROC	; wil::details::ResultStringSize

; 3024 :         return (psz == nullptr) ? sizeof(wchar_t) : (wcslen(psz) + 1) * sizeof(wchar_t);

